 hvh

 Timestamp is 6845714a (Sun Jun  8 19:17:30 2025)

 Preferred load address is 10000000

 Start         Length     Name                   Class
 0001:00000000 000004c0H .text$di                CODE
 0001:000004c0 00040bf0H .text$mn                CODE
 0001:000410b0 00001cf0H .text$x                 CODE
 0001:00042da0 000000baH .text$yd                CODE
 0002:00000000 000002f0H .idata$5                DATA
 0002:000002f0 00000008H .00cfg                  DATA
 0002:000002f8 00000004H .CRT$XCA                DATA
 0002:000002fc 00000004H .CRT$XCL                DATA
 0002:00000300 0000007cH .CRT$XCU                DATA
 0002:0000037c 00000004H .CRT$XCZ                DATA
 0002:00000380 00000004H .CRT$XIA                DATA
 0002:00000384 00000004H .CRT$XIZ                DATA
 0002:00000388 00000004H .CRT$XLA                DATA
 0002:0000038c 00000004H .CRT$XLZ                DATA
 0002:00000390 00000004H .CRT$XPA                DATA
 0002:00000394 00000004H .CRT$XPZ                DATA
 0002:00000398 00000004H .CRT$XTA                DATA
 0002:0000039c 00000004H .CRT$XTZ                DATA
 0002:000003a0 00000000H .gfids$y                DATA
 0002:000003a0 000263a0H .rdata                  DATA
 0002:00026740 00000000H .rdata$CastGuardVftablesA DATA
 0002:00026740 00000000H .rdata$CastGuardVftablesC DATA
 0002:00026740 00000018H .rdata$T                DATA
 0002:00026758 000007e8H .rdata$r                DATA
 0002:00026f40 00000204H .rdata$sxdata           DATA
 0002:00027144 00000610H .rdata$voltmd           DATA
 0002:00027754 000003acH .rdata$zzzdbg           DATA
 0002:00027b00 00000004H .rtc$IAA                DATA
 0002:00027b04 00000004H .rtc$IZZ                DATA
 0002:00027b08 00000004H .rtc$TAA                DATA
 0002:00027b0c 00000004H .rtc$TZZ                DATA
 0002:00027b10 00000004H .tls                    DATA
 0002:00027b14 00000004H .tls$                   DATA
 0002:00027b18 00000008H .tls$ZZZ                DATA
 0002:00027b20 00001770H .xdata$x                DATA
 0002:00029290 00000000H .edata                  DATA
 0002:00029290 000000f0H .idata$2                DATA
 0002:00029380 00000014H .idata$3                DATA
 0002:00029394 000002f0H .idata$4                DATA
 0002:00029684 000016dcH .idata$6                DATA
 0003:00000000 00000124H .data                   DATA
 0003:00000124 000000bcH .data$r                 DATA
 0003:000001e0 000003b8H .data$rs                DATA
 0003:00000598 0007917cH .bss                    DATA
 0004:00000000 00000060H .rsrc$01                DATA
 0004:00000060 00000180H .rsrc$02                DATA

  Address         Publics by Value              Rva+Base       Lib:Object

 0000:00000000       ___AbsoluteZero            00000000     <absolute>
 0000:00000000       ___arm64x_extra_rfe_table  00000000     <absolute>
 0000:00000000       ___arm64x_extra_rfe_table_size 00000000     <absolute>
 0000:00000000       ___arm64x_native_entrypoint 00000000     <absolute>
 0000:00000000       ___arm64x_redirection_metadata 00000000     <absolute>
 0000:00000000       ___arm64x_redirection_metadata_count 00000000     <absolute>
 0000:00000000       ___dynamic_value_reloc_table 00000000     <absolute>
 0000:00000000       ___enclave_config          00000000     <absolute>
 0000:00000000       ___guard_check_icall_a64n_fptr 00000000     <absolute>
 0000:00000000       ___guard_eh_cont_count     00000000     <absolute>
 0000:00000000       ___guard_eh_cont_table     00000000     <absolute>
 0000:00000000       ___guard_fids_count        00000000     <absolute>
 0000:00000000       ___guard_fids_table        00000000     <absolute>
 0000:00000000       ___guard_iat_count         00000000     <absolute>
 0000:00000000       ___guard_iat_table         00000000     <absolute>
 0000:00000000       ___guard_longjmp_count     00000000     <absolute>
 0000:00000000       ___guard_longjmp_table     00000000     <absolute>
 0000:00000000       ___hybrid_auxiliary_delayload_iat 00000000     <absolute>
 0000:00000000       ___hybrid_auxiliary_delayload_iat_copy 00000000     <absolute>
 0000:00000000       ___hybrid_auxiliary_iat    00000000     <absolute>
 0000:00000000       ___hybrid_auxiliary_iat_copy 00000000     <absolute>
 0000:00000000       ___hybrid_code_map         00000000     <absolute>
 0000:00000000       ___hybrid_code_map_count   00000000     <absolute>
 0000:00000000       ___hybrid_image_info_bitfield 00000000     <absolute>
 0000:00000000       ___x64_code_ranges_to_entry_points 00000000     <absolute>
 0000:00000000       ___x64_code_ranges_to_entry_points_count 00000000     <absolute>
 0000:0000002c       __tls_array                0000002c     <absolute>
 0000:00000081       ___safe_se_handler_count   00000081     <absolute>
 0000:00000100       ___guard_flags             00000100     <absolute>
 0000:00000000       ___ImageBase               10000000     <linker-defined>
 0001:000004c0       ??$?0$$QAV?$basic_string@DU?$char_traits@D@std@@V?$allocator@D@2@@std@@$$Z$$V@?$pair@$$CBV?$basic_string@DU?$char_traits@D@std@@V?$allocator@D@2@@std@@V?$shared_ptr@UNode@NetvarTree@@@2@@std@@QAE@Upiecewise_construct_t@1@V?$tuple@$$QAV?$basic_string@DU?$char_traits@D@std@@V?$allocator@D@2@@std@@@1@V?$tuple@$$V@1@@Z 100014c0 f i EnginePrediction.obj
 0001:00000500       ??$?0$$V@?$_Compressed_pair@V?$allocator@D@std@@V?$_String_val@U?$_Simple_types@D@std@@@2@$00@std@@QAE@U_Zero_then_variadic_args_t@1@@Z 10001500 f i EnginePrediction.obj
 0001:00000530       ??$?0AAPAU?$_List_node@U?$pair@$$CBII@std@@PAX@std@@_N$0A@@?$pair@PAU?$_List_node@U?$pair@$$CBII@std@@PAX@std@@_N@std@@QAE@AAPAU?$_List_node@U?$pair@$$CBII@std@@PAX@1@$$QA_N@Z 10001530 f i Resolver.obj
 0001:00000530       ??$?0AAPAU?$_List_node@U?$pair@$$CBV?$basic_string@DU?$char_traits@D@std@@V?$allocator@D@2@@std@@V?$shared_ptr@UNode@NetvarTree@@@2@@std@@PAX@std@@_N$0A@@?$pair@PAU?$_List_node@U?$pair@$$CBV?$basic_string@DU?$char_traits@D@std@@V?$allocator@D@2@@std@@V?$shared_ptr@UNode@NetvarTree@@@2@@std@@PAX@std@@_N@std@@QAE@AAPAU?$_List_node@U?$pair@$$CBV?$basic_string@DU?$char_traits@D@std@@V?$allocator@D@2@@std@@V?$shared_ptr@UNode@NetvarTree@@@2@@std@@PAX@1@$$QA_N@Z 10001530 f i EnginePrediction.obj
 0001:00000530       ??$?0PAU?$_List_node@U?$pair@$$CBII@std@@PAX@std@@_N$0A@@?$pair@PAU?$_List_node@U?$pair@$$CBII@std@@PAX@std@@_N@std@@QAE@$$QAPAU?$_List_node@U?$pair@$$CBII@std@@PAX@1@$$QA_N@Z 10001530 f i Resolver.obj
 0001:00000530       ??$?0PAU?$_List_node@U?$pair@$$CBV?$basic_string@DU?$char_traits@D@std@@V?$allocator@D@2@@std@@V?$shared_ptr@UNode@NetvarTree@@@2@@std@@PAX@std@@_N$0A@@?$pair@PAU?$_List_node@U?$pair@$$CBV?$basic_string@DU?$char_traits@D@std@@V?$allocator@D@2@@std@@V?$shared_ptr@UNode@NetvarTree@@@2@@std@@PAX@std@@_N@std@@QAE@$$QAPAU?$_List_node@U?$pair@$$CBV?$basic_string@DU?$char_traits@D@std@@V?$allocator@D@2@@std@@V?$shared_ptr@UNode@NetvarTree@@@2@@std@@PAX@1@$$QA_N@Z 10001530 f i EnginePrediction.obj
 0001:00000560       ??$?0ABUpiecewise_construct_t@std@@V?$tuple@$$QAV?$basic_string@DU?$char_traits@D@std@@V?$allocator@D@2@@std@@@1@V?$tuple@$$V@1@@?$_List_node_emplace_op2@V?$allocator@U?$_List_node@U?$pair@$$CBV?$basic_string@DU?$char_traits@D@std@@V?$allocator@D@2@@std@@V?$shared_ptr@UNode@NetvarTree@@@2@@std@@PAX@std@@@std@@@std@@QAE@AAV?$allocator@U?$_List_node@U?$pair@$$CBV?$basic_string@DU?$char_traits@D@std@@V?$allocator@D@2@@std@@V?$shared_ptr@UNode@NetvarTree@@@2@@std@@PAX@std@@@1@ABUpiecewise_construct_t@1@$$QAV?$tuple@$$QAV?$basic_string@DU?$char_traits@D@std@@V?$allocator@D@2@@std@@@1@$$QAV?$tuple@$$V@1@@Z 10001560 f i EnginePrediction.obj
 0001:00000600       ??$?0ABV?$allocator@U?$pair@$$CBII@std@@@std@@$$V@?$_Compressed_pair@V?$allocator@U?$_List_node@U?$pair@$$CBII@std@@PAX@std@@@std@@V?$_List_val@U?$_List_simple_types@U?$pair@$$CBII@std@@@std@@@2@$00@std@@QAE@U_One_then_variadic_args_t@1@ABV?$allocator@U?$pair@$$CBII@std@@@1@@Z 10001600 f i EnginePrediction.obj
 0001:00000600       ??$?0ABV?$allocator@U?$pair@$$CBV?$basic_string@DU?$char_traits@D@std@@V?$allocator@D@2@@std@@V?$shared_ptr@UNode@NetvarTree@@@2@@std@@@std@@$$V@?$_Compressed_pair@V?$allocator@U?$_List_node@U?$pair@$$CBV?$basic_string@DU?$char_traits@D@std@@V?$allocator@D@2@@std@@V?$shared_ptr@UNode@NetvarTree@@@2@@std@@PAX@std@@@std@@V?$_List_val@U?$_List_simple_types@U?$pair@$$CBV?$basic_string@DU?$char_traits@D@std@@V?$allocator@D@2@@std@@V?$shared_ptr@UNode@NetvarTree@@@2@@std@@@std@@@2@$00@std@@QAE@U_One_then_variadic_args_t@1@ABV?$allocator@U?$pair@$$CBV?$basic_string@DU?$char_traits@D@std@@V?$allocator@D@2@@std@@V?$shared_ptr@UNode@NetvarTree@@@2@@std@@@1@@Z 10001600 f i NetvarManager.obj
 0001:00000630       ??$?0ABV?$allocator@U?$pair@$$CBII@std@@@std@@$$V@?$_Compressed_pair@V?$allocator@V?$_List_unchecked_iterator@V?$_List_val@U?$_List_simple_types@U?$pair@$$CBII@std@@@std@@@std@@@std@@@std@@V?$_Vector_val@U?$_Simple_types@V?$_List_unchecked_iterator@V?$_List_val@U?$_List_simple_types@U?$pair@$$CBII@std@@@std@@@std@@@std@@@std@@@2@$00@std@@QAE@U_One_then_variadic_args_t@1@ABV?$allocator@U?$pair@$$CBII@std@@@1@@Z 10001630 f i EnginePrediction.obj
 0001:00000630       ??$?0ABV?$allocator@U?$pair@$$CBV?$basic_string@DU?$char_traits@D@std@@V?$allocator@D@2@@std@@V?$shared_ptr@UNode@NetvarTree@@@2@@std@@@std@@$$V@?$_Compressed_pair@V?$allocator@V?$_List_unchecked_iterator@V?$_List_val@U?$_List_simple_types@U?$pair@$$CBV?$basic_string@DU?$char_traits@D@std@@V?$allocator@D@2@@std@@V?$shared_ptr@UNode@NetvarTree@@@2@@std@@@std@@@std@@@std@@@std@@V?$_Vector_val@U?$_Simple_types@V?$_List_unchecked_iterator@V?$_List_val@U?$_List_simple_types@U?$pair@$$CBV?$basic_string@DU?$char_traits@D@std@@V?$allocator@D@2@@std@@V?$shared_ptr@UNode@NetvarTree@@@2@@std@@@std@@@std@@@std@@@std@@@2@$00@std@@QAE@U_One_then_variadic_args_t@1@ABV?$allocator@U?$pair@$$CBV?$basic_string@DU?$char_traits@D@std@@V?$allocator@D@2@@std@@V?$shared_ptr@UNode@NetvarTree@@@2@@std@@@1@@Z 10001630 f i NetvarManager.obj
 0001:00000660       ??$?0ABV?$allocator@U?$pair@$$CBII@std@@@std@@$0A@@?$_Hash_vec@V?$allocator@V?$_List_unchecked_iterator@V?$_List_val@U?$_List_simple_types@U?$pair@$$CBII@std@@@std@@@std@@@std@@@std@@@std@@QAE@ABV?$allocator@U?$pair@$$CBII@std@@@1@@Z 10001660 f i EnginePrediction.obj
 0001:00000660       ??$?0ABV?$allocator@U?$pair@$$CBV?$basic_string@DU?$char_traits@D@std@@V?$allocator@D@2@@std@@V?$shared_ptr@UNode@NetvarTree@@@2@@std@@@std@@$0A@@?$_Hash_vec@V?$allocator@V?$_List_unchecked_iterator@V?$_List_val@U?$_List_simple_types@U?$pair@$$CBV?$basic_string@DU?$char_traits@D@std@@V?$allocator@D@2@@std@@V?$shared_ptr@UNode@NetvarTree@@@2@@std@@@std@@@std@@@std@@@std@@@std@@QAE@ABV?$allocator@U?$pair@$$CBV?$basic_string@DU?$char_traits@D@std@@V?$allocator@D@2@@std@@V?$shared_ptr@UNode@NetvarTree@@@2@@std@@@1@@Z 10001660 f i NetvarManager.obj
 0001:000006b0       ??$?0AAPAI@?$_Compressed_pair@U?$default_delete@$$BY0A@I@std@@PAI$00@std@@QAE@U_Zero_then_variadic_args_t@1@AAPAI@Z 100016b0 f i Hooks.obj
 0001:000006b0       ??$?0AAPAVNetvarTree@@@?$_Compressed_pair@U?$default_delete@VNetvarTree@@@std@@PAVNetvarTree@@$00@std@@QAE@U_Zero_then_variadic_args_t@1@AAPAVNetvarTree@@@Z 100016b0 f i Hooks.obj
 0001:000006b0       ??$?0AAPAVVMTHook@@@?$_Compressed_pair@U?$default_delete@VVMTHook@@@std@@PAVVMTHook@@$00@std@@QAE@U_Zero_then_variadic_args_t@1@AAPAVVMTHook@@@Z 100016b0 f i Hooks.obj
 0001:000006b0       ??$?0AAPAV_Facet_base@std@@@?$_Compressed_pair@U?$default_delete@V_Facet_base@std@@@std@@PAV_Facet_base@2@$00@std@@QAE@U_Zero_then_variadic_args_t@1@AAPAV_Facet_base@1@@Z 100016b0 f i Hooks.obj
 0001:000006b0       ??$?0M@?$_Compressed_pair@U?$equal_to@I@std@@M$00@std@@QAE@U_Zero_then_variadic_args_t@1@$$QAM@Z 100016b0 f i EnginePrediction.obj
 0001:000006b0       ??$?0M@?$_Compressed_pair@U?$equal_to@V?$basic_string@DU?$char_traits@D@std@@V?$allocator@D@2@@std@@@std@@M$00@std@@QAE@U_Zero_then_variadic_args_t@1@$$QAM@Z 100016b0 f i NetvarManager.obj
 0001:000006d0       ??$?0U?$pair@$$CBII@std@@@?$allocator@U?$_List_node@U?$pair@$$CBII@std@@PAX@std@@@std@@QAE@ABV?$allocator@U?$pair@$$CBII@std@@@1@@Z 100016d0 f i EnginePrediction.obj
 0001:000006d0       ??$?0U?$pair@$$CBII@std@@@?$allocator@V?$_List_unchecked_iterator@V?$_List_val@U?$_List_simple_types@U?$pair@$$CBII@std@@@std@@@std@@@std@@@std@@QAE@ABV?$allocator@U?$pair@$$CBII@std@@@1@@Z 100016d0 f i EnginePrediction.obj
 0001:000006d0       ??$?0U?$pair@$$CBV?$basic_string@DU?$char_traits@D@std@@V?$allocator@D@2@@std@@V?$shared_ptr@UNode@NetvarTree@@@2@@std@@@?$allocator@U?$_List_node@U?$pair@$$CBV?$basic_string@DU?$char_traits@D@std@@V?$allocator@D@2@@std@@V?$shared_ptr@UNode@NetvarTree@@@2@@std@@PAX@std@@@std@@QAE@ABV?$allocator@U?$pair@$$CBV?$basic_string@DU?$char_traits@D@std@@V?$allocator@D@2@@std@@V?$shared_ptr@UNode@NetvarTree@@@2@@std@@@1@@Z 100016d0 f i NetvarManager.obj
 0001:000006d0       ??$?0U?$pair@$$CBV?$basic_string@DU?$char_traits@D@std@@V?$allocator@D@2@@std@@V?$shared_ptr@UNode@NetvarTree@@@2@@std@@@?$allocator@V?$_List_unchecked_iterator@V?$_List_val@U?$_List_simple_types@U?$pair@$$CBV?$basic_string@DU?$char_traits@D@std@@V?$allocator@D@2@@std@@V?$shared_ptr@UNode@NetvarTree@@@2@@std@@@std@@@std@@@std@@@std@@QAE@ABV?$allocator@U?$pair@$$CBV?$basic_string@DU?$char_traits@D@std@@V?$allocator@D@2@@std@@V?$shared_ptr@UNode@NetvarTree@@@2@@std@@@1@@Z 100016d0 f i NetvarManager.obj
 0001:000006d0       ??$?0ULegitPlayerRecords@@@?$allocator@PAULegitPlayerRecords@@@std@@QAE@ABV?$allocator@ULegitPlayerRecords@@@1@@Z 100016d0 f i Legitbot.obj
 0001:000006d0       ??$?0ULegitPlayerRecords@@@?$allocator@U_Container_proxy@std@@@std@@QAE@ABV?$allocator@ULegitPlayerRecords@@@1@@Z 100016d0 f i Legitbot.obj
 0001:000006d0       ??$?0UPlayerRecords@@@?$allocator@PAUPlayerRecords@@@std@@QAE@ABV?$allocator@UPlayerRecords@@@1@@Z 100016d0 f i LagComp.obj
 0001:000006d0       ??$?0UPlayerRecords@@@?$allocator@U_Container_proxy@std@@@std@@QAE@ABV?$allocator@UPlayerRecords@@@1@@Z 100016d0 f i LagComp.obj
 0001:000006d0       ??$?0U_Exact_args_t@std@@$0A@@?$tuple@$$V@std@@QAE@U_Exact_args_t@1@@Z 100016d0 f i EnginePrediction.obj
 0001:000006d0       ??0?$tuple@$$V@std@@QAE@ABV01@@Z 100016d0 f i EnginePrediction.obj
 0001:000006d0       ??0_Fmt_buffer_traits@std@@QAE@H@Z 100016d0 f i Hooks.obj
 0001:000006e0       ??$?0U_Exact_args_t@std@@I$$V$0A@@?$tuple@$$QAI@std@@QAE@U_Exact_args_t@1@$$QAI@Z 100016e0 f i Resolver.obj
 0001:000006e0       ??$?0U_Exact_args_t@std@@V?$basic_string@DU?$char_traits@D@std@@V?$allocator@D@2@@1@$$V$0A@@?$tuple@$$QAV?$basic_string@DU?$char_traits@D@std@@V?$allocator@D@2@@std@@@std@@QAE@U_Exact_args_t@1@$$QAV?$basic_string@DU?$char_traits@D@std@@V?$allocator@D@2@@1@@Z 100016e0 f i EnginePrediction.obj
 0001:00000720       ??$?0U_Zero_then_variadic_args_t@std@@M@?$_Compressed_pair@U?$hash@I@std@@V?$_Compressed_pair@U?$equal_to@I@std@@M$00@2@$00@std@@QAE@U_Zero_then_variadic_args_t@1@$$QAU21@$$QAM@Z 10001720 f i EnginePrediction.obj
 0001:00000720       ??$?0U_Zero_then_variadic_args_t@std@@M@?$_Compressed_pair@U?$hash@V?$basic_string@DU?$char_traits@D@std@@V?$allocator@D@2@@std@@@std@@V?$_Compressed_pair@U?$equal_to@V?$basic_string@DU?$char_traits@D@std@@V?$allocator@D@2@@std@@@std@@M$00@2@$00@std@@QAE@U_Zero_then_variadic_args_t@1@$$QAU21@$$QAM@Z 10001720 f i NetvarManager.obj
 0001:00000750       ??$?0ABV?$allocator@D@std@@$$V@?$_Compressed_pair@V?$allocator@D@std@@V?$_String_val@U?$_Simple_types@D@std@@@2@$00@std@@QAE@U_One_then_variadic_args_t@1@ABV?$allocator@D@1@@Z 10001750 f i Menu.obj
 0001:00000750       ??$?0V?$allocator@D@std@@$$V@?$_Compressed_pair@V?$allocator@D@std@@V?$_String_val@U?$_Simple_types@D@std@@@2@$00@std@@QAE@U_One_then_variadic_args_t@1@$$QAV?$allocator@D@1@@Z 10001750 f i EnginePrediction.obj
 0001:00000770       ??$?0I$$V$0A@@?$tuple@$$QAI@std@@QAE@$$QAI@Z 10001770 f i Resolver.obj
 0001:00000770       ??$?0V?$basic_string@DU?$char_traits@D@std@@V?$allocator@D@2@@std@@$$V$0A@@?$tuple@$$QAV?$basic_string@DU?$char_traits@D@std@@V?$allocator@D@2@@std@@@std@@QAE@$$QAV?$basic_string@DU?$char_traits@D@std@@V?$allocator@D@2@@1@@Z 10001770 f i EnginePrediction.obj
 0001:000007d0       ??$?0I@?$_Tuple_val@$$QAI@std@@QAE@$$QAI@Z 100017d0 f i Resolver.obj
 0001:000007d0       ??$?0V?$basic_string@DU?$char_traits@D@std@@V?$allocator@D@2@@std@@@?$_Tuple_val@$$QAV?$basic_string@DU?$char_traits@D@std@@V?$allocator@D@2@@std@@@std@@QAE@$$QAV?$basic_string@DU?$char_traits@D@std@@V?$allocator@D@2@@1@@Z 100017d0 f i EnginePrediction.obj
 0001:000007d0       ??0?$_Back_insert_iterator_container_access@V?$basic_string@DU?$char_traits@D@std@@V?$allocator@D@2@@std@@@std@@QAE@V?$back_insert_iterator@V?$basic_string@DU?$char_traits@D@std@@V?$allocator@D@2@@std@@@1@@Z 100017d0 f i Hooks.obj
 0001:000007d0       ??0?$_Precision_adapter@DAAV?$_Specs_checker@V?$_Specs_handler@V?$basic_format_parse_context@D@std@@V?$basic_format_context@V?$back_insert_iterator@V?$_Fmt_buffer@D@std@@@std@@D@2@@std@@@std@@@std@@QAE@AAV?$_Specs_checker@V?$_Specs_handler@V?$basic_format_parse_context@D@std@@V?$basic_format_context@V?$back_insert_iterator@V?$_Fmt_buffer@D@std@@@std@@D@2@@std@@@1@@Z 100017d0 f i Hooks.obj
 0001:000007d0       ??0?$_Specs_setter@D@std@@QAE@AAU?$_Basic_format_specs@D@1@@Z 100017d0 f i Hooks.obj
 0001:000007d0       ??0?$_String_view_iterator@U?$char_traits@D@std@@@std@@AAE@QBD@Z 100017d0 f i Hooks.obj
 0001:000007d0       ??0?$_Width_adapter@DAAV?$_Specs_checker@V?$_Specs_handler@V?$basic_format_parse_context@D@std@@V?$basic_format_context@V?$back_insert_iterator@V?$_Fmt_buffer@D@std@@@std@@D@2@@std@@@std@@@std@@QAE@AAV?$_Specs_checker@V?$_Specs_handler@V?$basic_format_parse_context@D@std@@V?$basic_format_context@V?$back_insert_iterator@V?$_Fmt_buffer@D@std@@@std@@D@2@@std@@@1@@Z 100017d0 f i Hooks.obj
 0001:000007d0       ??0_Clear_guard@?$_Hash@V?$_Umap_traits@IIV?$_Uhash_compare@IU?$hash@I@std@@U?$equal_to@I@2@@std@@V?$allocator@U?$pair@$$CBII@std@@@2@$0A@@std@@@std@@QAE@QAV12@@Z 100017d0 f i Resolver.obj
 0001:000007d0       ??0_Clear_guard@?$_Hash@V?$_Umap_traits@V?$basic_string@DU?$char_traits@D@std@@V?$allocator@D@2@@std@@V?$shared_ptr@UNode@NetvarTree@@@2@V?$_Uhash_compare@V?$basic_string@DU?$char_traits@D@std@@V?$allocator@D@2@@std@@U?$hash@V?$basic_string@DU?$char_traits@D@std@@V?$allocator@D@2@@std@@@2@U?$equal_to@V?$basic_string@DU?$char_traits@D@std@@V?$allocator@D@2@@std@@@2@@2@V?$allocator@U?$pair@$$CBV?$basic_string@DU?$char_traits@D@std@@V?$allocator@D@2@@std@@V?$shared_ptr@UNode@NetvarTree@@@2@@std@@@2@$0A@@std@@@std@@QAE@QAV12@@Z 100017d0 f i EnginePrediction.obj
 0001:000007f0       ??$?0V?$tuple@$$QAV?$basic_string@DU?$char_traits@D@std@@V?$allocator@D@2@@std@@@std@@V?$tuple@$$V@1@$0A@$$Z$S@?$pair@$$CBV?$basic_string@DU?$char_traits@D@std@@V?$allocator@D@2@@std@@V?$shared_ptr@UNode@NetvarTree@@@2@@std@@AAE@AAV?$tuple@$$QAV?$basic_string@DU?$char_traits@D@std@@V?$allocator@D@2@@std@@@1@AAV?$tuple@$$V@1@U?$integer_sequence@I$0A@@1@U?$integer_sequence@I$S@1@@Z 100017f0 f i EnginePrediction.obj
 0001:00000840       ??$?8DU?$char_traits@D@std@@V?$allocator@D@1@@std@@YA_NABV?$basic_string@DU?$char_traits@D@std@@V?$allocator@D@2@@0@0@Z 10001840 f i EnginePrediction.obj
 0001:00000860       ??$?CUNode@NetvarTree@@$0A@@?$shared_ptr@UNode@NetvarTree@@@std@@QBEPAUNode@NetvarTree@@XZ 10001860 f i EnginePrediction.obj
 0001:00000860       ?_Unwrapped@?$_Array_iterator@M$0BI@@std@@QBEPAMXZ 10001860 f i Hooks.obj
 0001:00000860       ?_Unwrapped@?$_Array_iterator@VAnimationLayer@@$0N@@std@@QBEPAVAnimationLayer@@XZ 10001860 f i Hooks.obj
 0001:00000880       ??$?RV?$basic_string@DU?$char_traits@D@std@@V?$allocator@D@2@@std@@@?$_Uhash_compare@V?$basic_string@DU?$char_traits@D@std@@V?$allocator@D@2@@std@@U?$hash@V?$basic_string@DU?$char_traits@D@std@@V?$allocator@D@2@@std@@@2@U?$equal_to@V?$basic_string@DU?$char_traits@D@std@@V?$allocator@D@2@@std@@@2@@std@@QBEIABV?$basic_string@DU?$char_traits@D@std@@V?$allocator@D@2@@1@@Z 10001880 f i EnginePrediction.obj
 0001:000008b0       ??$?RV?$basic_string@DU?$char_traits@D@std@@V?$allocator@D@2@@std@@V01@@?$_Uhash_compare@V?$basic_string@DU?$char_traits@D@std@@V?$allocator@D@2@@std@@U?$hash@V?$basic_string@DU?$char_traits@D@std@@V?$allocator@D@2@@std@@@2@U?$equal_to@V?$basic_string@DU?$char_traits@D@std@@V?$allocator@D@2@@std@@@2@@std@@QBE_NABV?$basic_string@DU?$char_traits@D@std@@V?$allocator@D@2@@1@0@Z 100018b0 f i EnginePrediction.obj
 0001:00000900       ??$CallVFunc@$00XPAVC_BaseEntity@@@Utils@@SAXPAXPAVC_BaseEntity@@@Z 10001900 f i EnginePrediction.obj
 0001:00000930       ??$GetOffset@PBD@NetvarTree@@QAEHPBD0@Z 10001930 f i EnginePrediction.obj
 0001:000009e0       ??$GetOffset@PBDPBD@NetvarTree@@QAEHPBD00@Z 100019e0 f i EnginePrediction.obj
 0001:00000a90       ??$GetOffsetRecursive@PBD@NetvarTree@@AAEHAAV?$unordered_map@V?$basic_string@DU?$char_traits@D@std@@V?$allocator@D@2@@std@@V?$shared_ptr@UNode@NetvarTree@@@2@U?$hash@V?$basic_string@DU?$char_traits@D@std@@V?$allocator@D@2@@std@@@2@U?$equal_to@V?$basic_string@DU?$char_traits@D@std@@V?$allocator@D@2@@std@@@2@V?$allocator@U?$pair@$$CBV?$basic_string@DU?$char_traits@D@std@@V?$allocator@D@2@@std@@V?$shared_ptr@UNode@NetvarTree@@@2@@std@@@2@@std@@HPBD1@Z 10001a90 f i EnginePrediction.obj
 0001:00000b40       ??$GetVFunc@P6EAAVVector@@PAX@Z@Utils@@SAP6EAAVVector@@PAX@Z0I@Z 10001b40 f i CEntity.obj
 0001:00000b40       ??$GetVFunc@P6EIPAX@Z@Utils@@SAP6EIPAX@Z0I@Z 10001b40 f i Hooks.obj
 0001:00000b40       ??$GetVFunc@P6EMPAX@Z@Utils@@SAP6EMPAX@Z0I@Z 10001b40 f i Aimbot.obj
 0001:00000b40       ??$GetVFunc@P6EPAVIMaterial@@PAXPBD1_N1@Z@Utils@@SAP6EPAVIMaterial@@PAXPBD1_N1@Z0I@Z 10001b40 f i Hooks.obj
 0001:00000b40       ??$GetVFunc@P6EPBDPAVIPanel@@I@Z@Utils@@SAP6EPBDPAVIPanel@@I@ZPAXI@Z 10001b40 f i Hooks.obj
 0001:00000b40       ??$GetVFunc@P6EXPAX@Z@Utils@@SAP6EXPAX@Z0I@Z 10001b40 f i EnginePrediction.obj
 0001:00000b40       ??$GetVFunc@P6EXPAXAAVVector@@@Z@Utils@@SAP6EXPAXAAVVector@@@Z0I@Z 10001b40 f i Aimbot.obj
 0001:00000b40       ??$GetVFunc@P6EXPAXH@Z@Utils@@SAP6EXPAXH@Z0I@Z 10001b40 f i Hooks.obj
 0001:00000b40       ??$GetVFunc@P6EXPAXHH@Z@Utils@@SAP6EXPAXHH@Z0I@Z 10001b40 f i Menu.obj
 0001:00000b40       ??$GetVFunc@P6EXPAXHHHH@Z@Utils@@SAP6EXPAXHHHH@Z0I@Z 10001b40 f i Hooks.obj
 0001:00000b40       ??$GetVFunc@P6EXPAXHPAUVertex_t@@_N@Z@Utils@@SAP6EXPAXHPAUVertex_t@@_N@Z0I@Z 10001b40 f i Menu.obj
 0001:00000b40       ??$GetVFunc@P6EXPAXK@Z@Utils@@SAP6EXPAXK@Z0I@Z 10001b40 f i Menu.obj
 0001:00000b40       ??$GetVFunc@P6EXPAXKPBDHHHHHHH@Z@Utils@@SAP6EXPAXKPBDHHHHHHH@Z0I@Z 10001b40 f i Hooks.obj
 0001:00000b40       ??$GetVFunc@P6EXPAXKPB_WAAH2@Z@Utils@@SAP6EXPAXKPB_WAAH2@Z0I@Z 10001b40 f i Menu.obj
 0001:00000b40       ??$GetVFunc@P6EXPAXPAVIMaterial@@W4OverrideType_t@@H@Z@Utils@@SAP6EXPAXPAVIMaterial@@W4OverrideType_t@@H@Z0I@Z 10001b40 f i Hooks.obj
 0001:00000b40       ??$GetVFunc@P6EXPAXPB_WHH@Z@Utils@@SAP6EXPAXPB_WHH@Z0I@Z 10001b40 f i Menu.obj
 0001:00000b50       ??$GetValue@H@C_BaseEntity@@AAEHH@Z 10001b50 f i EnginePrediction.obj
 0001:00000b50       ??$GetValue@W4EntityFlags@@@C_BaseEntity@@AAE?AW4EntityFlags@@H@Z 10001b50 f i Aimbot.obj
 0001:00000b70       ??$GetValue@VCBaseHandle@@@C_BaseEntity@@AAE?AVCBaseHandle@@H@Z 10001b70 f i EnginePrediction.obj
 0001:00000b90       ??$GetValue@_N@C_BaseEntity@@AAE_NH@Z 10001b90 f i EnginePrediction.obj
 0001:00000bb0       ??$_Adl_verify_range@PADPAD@std@@YAXABQAD0@Z 10001bb0 f i Hooks.obj
 0001:00000bb0       ??$_Adl_verify_range@PAPAULegitPlayerRecords@@PAPAU1@@std@@YAXABQAPAULegitPlayerRecords@@0@Z 10001bb0 f i Legitbot.obj
 0001:00000bb0       ??$_Adl_verify_range@PAPAUPlayerRecords@@PAPAU1@@std@@YAXABQAPAUPlayerRecords@@0@Z 10001bb0 f i LagComp.obj
 0001:00000bb0       ??$_Adl_verify_range@PAV?$_List_unchecked_iterator@V?$_List_val@U?$_List_simple_types@U?$pair@$$CBII@std@@@std@@@std@@@std@@PAV12@@std@@YAXABQAV?$_List_unchecked_iterator@V?$_List_val@U?$_List_simple_types@U?$pair@$$CBII@std@@@std@@@std@@@0@0@Z 10001bb0 f i EnginePrediction.obj
 0001:00000bb0       ??$_Adl_verify_range@PAV?$_List_unchecked_iterator@V?$_List_val@U?$_List_simple_types@U?$pair@$$CBV?$basic_string@DU?$char_traits@D@std@@V?$allocator@D@2@@std@@V?$shared_ptr@UNode@NetvarTree@@@2@@std@@@std@@@std@@@std@@PAV12@@std@@YAXABQAV?$_List_unchecked_iterator@V?$_List_val@U?$_List_simple_types@U?$pair@$$CBV?$basic_string@DU?$char_traits@D@std@@V?$allocator@D@2@@std@@V?$shared_ptr@UNode@NetvarTree@@@2@@std@@@std@@@std@@@0@0@Z 10001bb0 f i EnginePrediction.obj
 0001:00000bb0       ??$_Adl_verify_range@PAVAnimationLayer@@PAV1@@std@@YAXABQAVAnimationLayer@@0@Z 10001bb0 f i Hooks.obj
 0001:00000bb0       ??$_Adl_verify_range@PBDPBD@std@@YAXABQBD0@Z 10001bb0 f i Hooks.obj
 0001:00000bb0       ??$_Adl_verify_range@PBIPBI@std@@YAXABQBI0@Z 10001bb0 f i Hooks.obj
 0001:00000bb0       ??$_Adl_verify_range@PB_KPB_K@std@@YAXABQB_K0@Z 10001bb0 f i Hooks.obj
 0001:00000bb0       ??$_Adl_verify_range@V?$_Array_iterator@M$0BI@@std@@V12@@std@@YAXABV?$_Array_iterator@M$0BI@@0@0@Z 10001bb0 f i Hooks.obj
 0001:00000bb0       ??$_Adl_verify_range@V?$_Array_iterator@VAnimationLayer@@$0N@@std@@V12@@std@@YAXABV?$_Array_iterator@VAnimationLayer@@$0N@@0@0@Z 10001bb0 f i Hooks.obj
 0001:00000bb0       ??$_Adl_verify_range@V?$_Deque_unchecked_iterator@V?$_Deque_val@U?$_Deque_simple_types@ULegitPlayerRecords@@@std@@@std@@@std@@V12@@std@@YAXABV?$_Deque_unchecked_iterator@V?$_Deque_val@U?$_Deque_simple_types@ULegitPlayerRecords@@@std@@@std@@@0@0@Z 10001bb0 f i Legitbot.obj
 0001:00000bb0       ??$_Adl_verify_range@V?$_Deque_unchecked_iterator@V?$_Deque_val@U?$_Deque_simple_types@UPlayerRecords@@@std@@@std@@@std@@V12@@std@@YAXABV?$_Deque_unchecked_iterator@V?$_Deque_val@U?$_Deque_simple_types@UPlayerRecords@@@std@@@std@@@0@0@Z 10001bb0 f i LagComp.obj
 0001:00000bb0       ??$_Adl_verify_range@V?$_String_view_iterator@U?$char_traits@D@std@@@std@@V12@@std@@YAXABV?$_String_view_iterator@U?$char_traits@D@std@@@0@0@Z 10001bb0 f i Hooks.obj
 0001:00000bb0       ??$_Destroy_in_place@PAD@std@@YAXAAPAD@Z 10001bb0 f i EnginePrediction.obj
 0001:00000bb0       ??$_Destroy_in_place@PAU?$_List_node@U?$pair@$$CBII@std@@PAX@std@@@std@@YAXAAPAU?$_List_node@U?$pair@$$CBII@std@@PAX@0@@Z 10001bb0 f i EnginePrediction.obj
 0001:00000bb0       ??$_Destroy_in_place@PAU?$_List_node@U?$pair@$$CBV?$basic_string@DU?$char_traits@D@std@@V?$allocator@D@2@@std@@V?$shared_ptr@UNode@NetvarTree@@@2@@std@@PAX@std@@@std@@YAXAAPAU?$_List_node@U?$pair@$$CBV?$basic_string@DU?$char_traits@D@std@@V?$allocator@D@2@@std@@V?$shared_ptr@UNode@NetvarTree@@@2@@std@@PAX@0@@Z 10001bb0 f i EnginePrediction.obj
 0001:00000bb0       ??$_Destroy_in_place@PAULegitPlayerRecords@@@std@@YAXAAPAULegitPlayerRecords@@@Z 10001bb0 f i Legitbot.obj
 0001:00000bb0       ??$_Destroy_in_place@PAUPlayerRecords@@@std@@YAXAAPAUPlayerRecords@@@Z 10001bb0 f i LagComp.obj
 0001:00000bb0       ??$_Destroy_range@PAPAULegitPlayerRecords@@PAPAU1@@std@@YAXPAPAULegitPlayerRecords@@QAPAU1@@Z 10001bb0 f i Legitbot.obj
 0001:00000bb0       ??$_Destroy_range@PAPAUPlayerRecords@@PAPAU1@@std@@YAXPAPAUPlayerRecords@@QAPAU1@@Z 10001bb0 f i LagComp.obj
 0001:00000bb0       ??$_Destroy_range@PAV?$_List_unchecked_iterator@V?$_List_val@U?$_List_simple_types@U?$pair@$$CBII@std@@@std@@@std@@@std@@PAV12@@std@@YAXPAV?$_List_unchecked_iterator@V?$_List_val@U?$_List_simple_types@U?$pair@$$CBII@std@@@std@@@std@@@0@QAV10@@Z 10001bb0 f i EnginePrediction.obj
 0001:00000bb0       ??$_Destroy_range@PAV?$_List_unchecked_iterator@V?$_List_val@U?$_List_simple_types@U?$pair@$$CBV?$basic_string@DU?$char_traits@D@std@@V?$allocator@D@2@@std@@V?$shared_ptr@UNode@NetvarTree@@@2@@std@@@std@@@std@@@std@@PAV12@@std@@YAXPAV?$_List_unchecked_iterator@V?$_List_val@U?$_List_simple_types@U?$pair@$$CBV?$basic_string@DU?$char_traits@D@std@@V?$allocator@D@2@@std@@V?$shared_ptr@UNode@NetvarTree@@@2@@std@@@std@@@std@@@0@QAV10@@Z 10001bb0 f i EnginePrediction.obj
 0001:00000bb0       ??$_Destroy_range@V?$allocator@H@std@@@std@@YAXPAHQAHAAV?$allocator@H@0@@Z 10001bb0 f i Aimbot.obj
 0001:00000bb0       ??$_Destroy_range@V?$allocator@PAV?$ConfigValue@H@@@std@@@std@@YAXPAPAV?$ConfigValue@H@@QAPAV1@AAV?$allocator@PAV?$ConfigValue@H@@@0@@Z 10001bb0 f i TGFCfg.obj
 0001:00000bb0       ??$_Destroy_range@V?$allocator@PAV?$ConfigValue@M@@@std@@@std@@YAXPAPAV?$ConfigValue@M@@QAPAV1@AAV?$allocator@PAV?$ConfigValue@M@@@0@@Z 10001bb0 f i TGFCfg.obj
 0001:00000bb0       ??$_Destroy_range@V?$allocator@PAV?$ConfigValue@_N@@@std@@@std@@YAXPAPAV?$ConfigValue@_N@@QAPAV1@AAV?$allocator@PAV?$ConfigValue@_N@@@0@@Z 10001bb0 f i TGFCfg.obj
 0001:00000bb0       ??$_Pocca@V?$allocator@D@std@@@std@@YAXAAV?$allocator@D@0@ABV10@@Z 10001bb0 f i Menu.obj
 0001:00000bb0       ??$_Pocma@V?$allocator@D@std@@@std@@YAXAAV?$allocator@D@0@0@Z 10001bb0 f i Hooks.obj
 0001:00000bb0       ??$destroy_at@U?$pair@$$CBII@std@@@std@@YAXQAU?$pair@$$CBII@0@@Z 10001bb0 f i EnginePrediction.obj
 0001:00000bb0       ??$destroy_at@ULegitPlayerRecords@@@std@@YAXQAULegitPlayerRecords@@@Z 10001bb0 f i Legitbot.obj
 0001:00000bb0       ??$destroy_at@UPlayerRecords@@@std@@YAXQAUPlayerRecords@@@Z 10001bb0 f i LagComp.obj
 0001:00000bb0       ?Log@Utils@@SAXABV?$basic_string@DU?$char_traits@D@std@@V?$allocator@D@2@@std@@ZZ 10001bb0 f i Hooks.obj
 0001:00000bb0       ?_You_see_this_error_because_arg_id_is_out_of_range@std@@YAXXZ 10001bb0 f i Hooks.obj
 0001:00000bc0       ??$_Allocate@$07U_Default_allocate_traits@std@@@std@@YAPAXI@Z 10001bc0 f i EnginePrediction.obj
 0001:00000c10       ??$_Allocate_at_least_helper@V?$allocator@D@std@@@std@@YAPADAAV?$allocator@D@0@AAI@Z 10001c10 f i EnginePrediction.obj
 0001:00000c30       ??$_Allocate_for_capacity@$0A@@?$basic_string@DU?$char_traits@D@std@@V?$allocator@D@2@@std@@CAPADAAV?$allocator@D@1@AAI@Z 10001c30 f i EnginePrediction.obj
 0001:00000cc0       ??$_Allocate_manually_vector_aligned@U_Default_allocate_traits@std@@@std@@YAPAXI@Z 10001cc0 f i EnginePrediction.obj
 0001:00000d30       ??$_Construct@$00PAD@?$basic_string@DU?$char_traits@D@std@@V?$allocator@D@2@@std@@AAEXQADI@Z 10001d30 f i Menu.obj
 0001:00000d30       ??$_Construct@$00PBD@?$basic_string@DU?$char_traits@D@std@@V?$allocator@D@2@@std@@AAEXQBDI@Z 10001d30 f i EnginePrediction.obj
 0001:00000e70       ??$_Construct_in_place@HH@std@@YAXAAH$$QAH@Z 10001e70 f i Aimbot.obj
 0001:00000e70       ??$_Construct_in_place@PADAAPAD@std@@YAXAAPAD0@Z 10001e70 f i EnginePrediction.obj
 0001:00000e70       ??$_Construct_in_place@PADABQAD@std@@YAXAAPADABQAD@Z 10001e70 f i EnginePrediction.obj
 0001:00000e70       ??$_Construct_in_place@PAU?$_List_node@U?$pair@$$CBII@std@@PAX@std@@AAPAU12@@std@@YAXAAPAU?$_List_node@U?$pair@$$CBII@std@@PAX@0@0@Z 10001e70 f i EnginePrediction.obj
 0001:00000e70       ??$_Construct_in_place@PAU?$_List_node@U?$pair@$$CBII@std@@PAX@std@@ABQAU12@@std@@YAXAAPAU?$_List_node@U?$pair@$$CBII@std@@PAX@0@ABQAU10@@Z 10001e70 f i Resolver.obj
 0001:00000e70       ??$_Construct_in_place@PAU?$_List_node@U?$pair@$$CBV?$basic_string@DU?$char_traits@D@std@@V?$allocator@D@2@@std@@V?$shared_ptr@UNode@NetvarTree@@@2@@std@@PAX@std@@AAPAU12@@std@@YAXAAPAU?$_List_node@U?$pair@$$CBV?$basic_string@DU?$char_traits@D@std@@V?$allocator@D@2@@std@@V?$shared_ptr@UNode@NetvarTree@@@2@@std@@PAX@0@0@Z 10001e70 f i NetvarManager.obj
 0001:00000e70       ??$_Construct_in_place@PAU?$_List_node@U?$pair@$$CBV?$basic_string@DU?$char_traits@D@std@@V?$allocator@D@2@@std@@V?$shared_ptr@UNode@NetvarTree@@@2@@std@@PAX@std@@ABQAU12@@std@@YAXAAPAU?$_List_node@U?$pair@$$CBV?$basic_string@DU?$char_traits@D@std@@V?$allocator@D@2@@std@@V?$shared_ptr@UNode@NetvarTree@@@2@@std@@PAX@0@ABQAU10@@Z 10001e70 f i EnginePrediction.obj
 0001:00000e70       ??$_Construct_in_place@PAV?$ConfigValue@H@@PAV1@@std@@YAXAAPAV?$ConfigValue@H@@$$QAPAV1@@Z 10001e70 f i TGFCfg.obj
 0001:00000e70       ??$_Construct_in_place@PAV?$ConfigValue@M@@PAV1@@std@@YAXAAPAV?$ConfigValue@M@@$$QAPAV1@@Z 10001e70 f i TGFCfg.obj
 0001:00000e70       ??$_Construct_in_place@PAV?$ConfigValue@_N@@PAV1@@std@@YAXAAPAV?$ConfigValue@_N@@$$QAPAV1@@Z 10001e70 f i TGFCfg.obj
 0001:00000ed0       ??$_Construct_in_place@V?$_List_unchecked_iterator@V?$_List_val@U?$_List_simple_types@U?$pair@$$CBII@std@@@std@@@std@@@std@@ABV12@@std@@YAXAAV?$_List_unchecked_iterator@V?$_List_val@U?$_List_simple_types@U?$pair@$$CBII@std@@@std@@@std@@@0@ABV10@@Z 10001ed0 f i EnginePrediction.obj
 0001:00000ed0       ??$_Construct_in_place@V?$_List_unchecked_iterator@V?$_List_val@U?$_List_simple_types@U?$pair@$$CBV?$basic_string@DU?$char_traits@D@std@@V?$allocator@D@2@@std@@V?$shared_ptr@UNode@NetvarTree@@@2@@std@@@std@@@std@@@std@@ABV12@@std@@YAXAAV?$_List_unchecked_iterator@V?$_List_val@U?$_List_simple_types@U?$pair@$$CBV?$basic_string@DU?$char_traits@D@std@@V?$allocator@D@2@@std@@V?$shared_ptr@UNode@NetvarTree@@@2@@std@@@std@@@std@@@0@ABV10@@Z 10001ed0 f i EnginePrediction.obj
 0001:00000f30       ??$_Choose_literal@D@std@@YAPBDQBDQB_W@Z 10001f30 f i Hooks.obj
 0001:00000f30       ??$_Convert_size@II@std@@YAII@Z 10001f30 f i EnginePrediction.obj
 0001:00000f30       ??$_Get_unwrapped@AAV?$_Deque_unchecked_iterator@V?$_Deque_val@U?$_Deque_simple_types@ULegitPlayerRecords@@@std@@@std@@@std@@@std@@YA?A_TAAV?$_Deque_unchecked_iterator@V?$_Deque_val@U?$_Deque_simple_types@ULegitPlayerRecords@@@std@@@std@@@0@@Z 10001f30 f i Legitbot.obj
 0001:00000f30       ??$_Get_unwrapped@AAV?$_Deque_unchecked_iterator@V?$_Deque_val@U?$_Deque_simple_types@UPlayerRecords@@@std@@@std@@@std@@@std@@YA?A_TAAV?$_Deque_unchecked_iterator@V?$_Deque_val@U?$_Deque_simple_types@UPlayerRecords@@@std@@@std@@@0@@Z 10001f30 f i LagComp.obj
 0001:00000f30       ??$_Get_unwrapped_n@AAV?$_Deque_unchecked_iterator@V?$_Deque_val@U?$_Deque_simple_types@ULegitPlayerRecords@@@std@@@std@@@std@@H@std@@YA?A_TAAV?$_Deque_unchecked_iterator@V?$_Deque_val@U?$_Deque_simple_types@ULegitPlayerRecords@@@std@@@std@@@0@H@Z 10001f30 f i Legitbot.obj
 0001:00000f30       ??$_Get_unwrapped_n@AAV?$_Deque_unchecked_iterator@V?$_Deque_val@U?$_Deque_simple_types@UPlayerRecords@@@std@@@std@@@std@@H@std@@YA?A_TAAV?$_Deque_unchecked_iterator@V?$_Deque_val@U?$_Deque_simple_types@UPlayerRecords@@@std@@@std@@@0@H@Z 10001f30 f i LagComp.obj
 0001:00000f30       ??$_Get_unwrapped_n@V?$back_insert_iterator@V?$_Fmt_buffer@D@std@@@std@@H@std@@YA?A_T$$QAV?$back_insert_iterator@V?$_Fmt_buffer@D@std@@@0@H@Z 10001f30 f i Hooks.obj
 0001:00000f30       ??$_Kfn@$$CBII@?$_Umap_traits@IIV?$_Uhash_compare@IU?$hash@I@std@@U?$equal_to@I@2@@std@@V?$allocator@U?$pair@$$CBII@std@@@2@$0A@@std@@SAABIABU?$pair@$$CBII@1@@Z 10001f30 f i Resolver.obj
 0001:00000f30       ??$_Kfn@$$CBV?$basic_string@DU?$char_traits@D@std@@V?$allocator@D@2@@std@@V?$shared_ptr@UNode@NetvarTree@@@2@@?$_Umap_traits@V?$basic_string@DU?$char_traits@D@std@@V?$allocator@D@2@@std@@V?$shared_ptr@UNode@NetvarTree@@@2@V?$_Uhash_compare@V?$basic_string@DU?$char_traits@D@std@@V?$allocator@D@2@@std@@U?$hash@V?$basic_string@DU?$char_traits@D@std@@V?$allocator@D@2@@std@@@2@U?$equal_to@V?$basic_string@DU?$char_traits@D@std@@V?$allocator@D@2@@std@@@2@@2@V?$allocator@U?$pair@$$CBV?$basic_string@DU?$char_traits@D@std@@V?$allocator@D@2@@std@@V?$shared_ptr@UNode@NetvarTree@@@2@@std@@@2@$0A@@std@@SAABV?$basic_string@DU?$char_traits@D@std@@V?$allocator@D@2@@1@ABU?$pair@$$CBV?$basic_string@DU?$char_traits@D@std@@V?$allocator@D@2@@std@@V?$shared_ptr@UNode@NetvarTree@@@2@@1@@Z 10001f30 f i EnginePrediction.obj
 0001:00000f30       ??$_Refancy@PAD$0A@@std@@YAPADPAD@Z 10001f30 f i Hooks.obj
 0001:00000f30       ??$_Unfancy@$$CBD@std@@YAPBDPBD@Z 10001f30 f i Hooks.obj
 0001:00000f30       ??$_Unfancy@D@std@@YAPADPAD@Z 10001f30 f i EnginePrediction.obj
 0001:00000f30       ??$_Unfancy@H@std@@YAPAHPAH@Z 10001f30 f i Aimbot.obj
 0001:00000f30       ??$_Unfancy@PAV?$ConfigValue@H@@@std@@YAPAPAV?$ConfigValue@H@@PAPAV1@@Z 10001f30 f i TGFCfg.obj
 0001:00000f30       ??$_Unfancy@PAV?$ConfigValue@M@@@std@@YAPAPAV?$ConfigValue@M@@PAPAV1@@Z 10001f30 f i TGFCfg.obj
 0001:00000f30       ??$_Unfancy@PAV?$ConfigValue@_N@@@std@@YAPAPAV?$ConfigValue@_N@@PAPAV1@@Z 10001f30 f i TGFCfg.obj
 0001:00000f30       ??$_Unfancy@ULegitPlayerRecords@@@std@@YAPAULegitPlayerRecords@@PAU1@@Z 10001f30 f i Legitbot.obj
 0001:00000f30       ??$_Unfancy@UPlayerRecords@@@std@@YAPAUPlayerRecords@@PAU1@@Z 10001f30 f i LagComp.obj
 0001:00000f30       ??$_Unfancy@U_Container_proxy@std@@@std@@YAPAU_Container_proxy@0@PAU10@@Z 10001f30 f i LagComp.obj
 0001:00000f30       ??$_Unfancy@V?$basic_string@DU?$char_traits@D@std@@V?$allocator@D@2@@std@@@std@@YAPAV?$basic_string@DU?$char_traits@D@std@@V?$allocator@D@2@@0@PAV10@@Z 10001f30 f i Menu.obj
 0001:00000f30       ??$_Unfancy_maybe_null@H@std@@YAPAHPAH@Z 10001f30 f i Aimbot.obj
 0001:00000f30       ??$_Unfancy_maybe_null@PAV?$ConfigValue@H@@@std@@YAPAPAV?$ConfigValue@H@@PAPAV1@@Z 10001f30 f i TGFCfg.obj
 0001:00000f30       ??$_Unfancy_maybe_null@PAV?$ConfigValue@M@@@std@@YAPAPAV?$ConfigValue@M@@PAPAV1@@Z 10001f30 f i TGFCfg.obj
 0001:00000f30       ??$_Unfancy_maybe_null@PAV?$ConfigValue@_N@@@std@@YAPAPAV?$ConfigValue@_N@@PAPAV1@@Z 10001f30 f i TGFCfg.obj
 0001:00000f30       ??$addressof@$$CBV?$_Deque_val@U?$_Deque_simple_types@ULegitPlayerRecords@@@std@@@std@@@std@@YAPBV?$_Deque_val@U?$_Deque_simple_types@ULegitPlayerRecords@@@std@@@0@ABV10@@Z 10001f30 f i Legitbot.obj
 0001:00000f30       ??$addressof@$$CBV?$_Deque_val@U?$_Deque_simple_types@UPlayerRecords@@@std@@@std@@@std@@YAPBV?$_Deque_val@U?$_Deque_simple_types@UPlayerRecords@@@std@@@0@ABV10@@Z 10001f30 f i LagComp.obj
 0001:00000f30       ??$addressof@$$CBV?$_List_val@U?$_List_simple_types@U?$pair@$$CBV?$basic_string@DU?$char_traits@D@std@@V?$allocator@D@2@@std@@V?$shared_ptr@UNode@NetvarTree@@@2@@std@@@std@@@std@@@std@@YAPBV?$_List_val@U?$_List_simple_types@U?$pair@$$CBV?$basic_string@DU?$char_traits@D@std@@V?$allocator@D@2@@std@@V?$shared_ptr@UNode@NetvarTree@@@2@@std@@@std@@@0@ABV10@@Z 10001f30 f i NetvarManager.obj
 0001:00000f30       ??$addressof@$$CBV?$basic_string@DU?$char_traits@D@std@@V?$allocator@D@2@@std@@@std@@YAPBV?$basic_string@DU?$char_traits@D@std@@V?$allocator@D@2@@0@ABV10@@Z 10001f30 f i Menu.obj
 0001:00000f30       ??$addressof@$$CBV?$basic_string_view@DU?$char_traits@D@std@@@std@@@std@@YAPBV?$basic_string_view@DU?$char_traits@D@std@@@0@ABV10@@Z 10001f30 f i Hooks.obj
 0001:00000f30       ??$addressof@$$CBV?$codecvt@DDU_Mbstatet@@@std@@@std@@YAPBV?$codecvt@DDU_Mbstatet@@@0@ABV10@@Z 10001f30 f i Interfaces.obj
 0001:00000f30       ??$addressof@H@std@@YAPAHAAH@Z 10001f30 f i Aimbot.obj
 0001:00000f30       ??$addressof@PAD@std@@YAPAPADAAPAD@Z 10001f30 f i EnginePrediction.obj
 0001:00000f30       ??$addressof@PAU?$_List_node@U?$pair@$$CBII@std@@PAX@std@@@std@@YAPAPAU?$_List_node@U?$pair@$$CBII@std@@PAX@0@AAPAU10@@Z 10001f30 f i EnginePrediction.obj
 0001:00000f30       ??$addressof@PAU?$_List_node@U?$pair@$$CBV?$basic_string@DU?$char_traits@D@std@@V?$allocator@D@2@@std@@V?$shared_ptr@UNode@NetvarTree@@@2@@std@@PAX@std@@@std@@YAPAPAU?$_List_node@U?$pair@$$CBV?$basic_string@DU?$char_traits@D@std@@V?$allocator@D@2@@std@@V?$shared_ptr@UNode@NetvarTree@@@2@@std@@PAX@0@AAPAU10@@Z 10001f30 f i EnginePrediction.obj
 0001:00000f30       ??$addressof@PAULegitPlayerRecords@@@std@@YAPAPAULegitPlayerRecords@@AAPAU1@@Z 10001f30 f i Legitbot.obj
 0001:00000f30       ??$addressof@PAUPlayerRecords@@@std@@YAPAPAUPlayerRecords@@AAPAU1@@Z 10001f30 f i LagComp.obj
 0001:00000f30       ??$addressof@PAV?$ConfigValue@H@@@std@@YAPAPAV?$ConfigValue@H@@AAPAV1@@Z 10001f30 f i TGFCfg.obj
 0001:00000f30       ??$addressof@PAV?$ConfigValue@M@@@std@@YAPAPAV?$ConfigValue@M@@AAPAV1@@Z 10001f30 f i TGFCfg.obj
 0001:00000f30       ??$addressof@PAV?$ConfigValue@_N@@@std@@YAPAPAV?$ConfigValue@_N@@AAPAV1@@Z 10001f30 f i TGFCfg.obj
 0001:00000f30       ??$addressof@QBD@std@@YAPBQBDABQBD@Z 10001f30 f i Hooks.obj
 0001:00000f30       ??$addressof@U?$_Basic_format_specs@D@std@@@std@@YAPAU?$_Basic_format_specs@D@0@AAU10@@Z 10001f30 f i Hooks.obj
 0001:00000f30       ??$addressof@U?$pair@$$CBII@std@@@std@@YAPAU?$pair@$$CBII@0@AAU10@@Z 10001f30 f i EnginePrediction.obj
 0001:00000f30       ??$addressof@U?$pair@$$CBV?$basic_string@DU?$char_traits@D@std@@V?$allocator@D@2@@std@@V?$shared_ptr@UNode@NetvarTree@@@2@@std@@@std@@YAPAU?$pair@$$CBV?$basic_string@DU?$char_traits@D@std@@V?$allocator@D@2@@std@@V?$shared_ptr@UNode@NetvarTree@@@2@@0@AAU10@@Z 10001f30 f i EnginePrediction.obj
 0001:00000f30       ??$addressof@UNode@NetvarTree@@@std@@YAPAUNode@NetvarTree@@AAU12@@Z 10001f30 f i NetvarManager.obj
 0001:00000f30       ??$addressof@U_Container_proxy@std@@@std@@YAPAU_Container_proxy@0@AAU10@@Z 10001f30 f i LagComp.obj
 0001:00000f30       ??$addressof@V?$_Deque_val@U?$_Deque_simple_types@ULegitPlayerRecords@@@std@@@std@@@std@@YAPAV?$_Deque_val@U?$_Deque_simple_types@ULegitPlayerRecords@@@std@@@0@AAV10@@Z 10001f30 f i Legitbot.obj
 0001:00000f30       ??$addressof@V?$_Deque_val@U?$_Deque_simple_types@UPlayerRecords@@@std@@@std@@@std@@YAPAV?$_Deque_val@U?$_Deque_simple_types@UPlayerRecords@@@std@@@0@AAV10@@Z 10001f30 f i LagComp.obj
 0001:00000f30       ??$addressof@V?$_Fmt_buffer@D@std@@@std@@YAPAV?$_Fmt_buffer@D@0@AAV10@@Z 10001f30 f i Hooks.obj
 0001:00000f30       ??$addressof@V?$_List_unchecked_iterator@V?$_List_val@U?$_List_simple_types@U?$pair@$$CBII@std@@@std@@@std@@@std@@@std@@YAPAV?$_List_unchecked_iterator@V?$_List_val@U?$_List_simple_types@U?$pair@$$CBII@std@@@std@@@std@@@0@AAV10@@Z 10001f30 f i EnginePrediction.obj
 0001:00000f30       ??$addressof@V?$_List_unchecked_iterator@V?$_List_val@U?$_List_simple_types@U?$pair@$$CBV?$basic_string@DU?$char_traits@D@std@@V?$allocator@D@2@@std@@V?$shared_ptr@UNode@NetvarTree@@@2@@std@@@std@@@std@@@std@@@std@@YAPAV?$_List_unchecked_iterator@V?$_List_val@U?$_List_simple_types@U?$pair@$$CBV?$basic_string@DU?$char_traits@D@std@@V?$allocator@D@2@@std@@V?$shared_ptr@UNode@NetvarTree@@@2@@std@@@std@@@std@@@0@AAV10@@Z 10001f30 f i EnginePrediction.obj
 0001:00000f30       ??$addressof@V?$_String_val@U?$_Simple_types@D@std@@@std@@@std@@YAPAV?$_String_val@U?$_Simple_types@D@std@@@0@AAV10@@Z 10001f30 f i EnginePrediction.obj
 0001:00000f30       ??$addressof@V?$basic_filebuf@DU?$char_traits@D@std@@@std@@@std@@YAPAV?$basic_filebuf@DU?$char_traits@D@std@@@0@AAV10@@Z 10001f30 f i Interfaces.obj
 0001:00000f30       ??$addressof@V?$basic_format_context@V?$back_insert_iterator@V?$_Fmt_buffer@D@std@@@std@@D@std@@@std@@YAPAV?$basic_format_context@V?$back_insert_iterator@V?$_Fmt_buffer@D@std@@@std@@D@0@AAV10@@Z 10001f30 f i Hooks.obj
 0001:00000f30       ??$addressof@V?$basic_ostream@DU?$char_traits@D@std@@@std@@@std@@YAPAV?$basic_ostream@DU?$char_traits@D@std@@@0@AAV10@@Z 10001f30 f i Interfaces.obj
 0001:00000f30       ??$addressof@V?$basic_string@DU?$char_traits@D@std@@V?$allocator@D@2@@std@@@std@@YAPAV?$basic_string@DU?$char_traits@D@std@@V?$allocator@D@2@@0@AAV10@@Z 10001f30 f i Hooks.obj
 0001:00000f30       ??$addressof@V?$unique_ptr@$$BY0A@IU?$default_delete@$$BY0A@I@std@@@std@@@std@@YAPAV?$unique_ptr@$$BY0A@IU?$default_delete@$$BY0A@I@std@@@0@AAV10@@Z 10001f30 f i Hooks.obj
 0001:00000f30       ??$forward_as_tuple@$$V@std@@YA?AV?$tuple@$$V@0@XZ 10001f30 f i EnginePrediction.obj
 0001:00000f30       ??$launder@$$CBV?$_Fmt_codec@D$0A@@std@@@std@@YAPBV?$_Fmt_codec@D$0A@@0@PBV10@@Z 10001f30 f i Hooks.obj
 0001:00000f30       ??$to_address@$$CBD@std@@YAPBDQBD@Z 10001f30 f i Hooks.obj
 0001:00000f30       ??$to_address@D@std@@YAPADQAD@Z 10001f30 f i Hooks.obj
 0001:00000f30       ??$to_address@H@std@@YAPAHQAH@Z 10001f30 f i Aimbot.obj
 0001:00000f30       ??$to_address@M@std@@YAPAMQAM@Z 10001f30 f i Hooks.obj
 0001:00000f30       ??$to_address@PAULegitPlayerRecords@@@std@@YAPAPAULegitPlayerRecords@@QAPAU1@@Z 10001f30 f i Legitbot.obj
 0001:00000f30       ??$to_address@PAUPlayerRecords@@@std@@YAPAPAUPlayerRecords@@QAPAU1@@Z 10001f30 f i LagComp.obj
 0001:00000f30       ??$to_address@PAV?$ConfigValue@H@@@std@@YAPAPAV?$ConfigValue@H@@QAPAV1@@Z 10001f30 f i TGFCfg.obj
 0001:00000f30       ??$to_address@PAV?$ConfigValue@M@@@std@@YAPAPAV?$ConfigValue@M@@QAPAV1@@Z 10001f30 f i TGFCfg.obj
 0001:00000f30       ??$to_address@PAV?$ConfigValue@_N@@@std@@YAPAPAV?$ConfigValue@_N@@QAPAV1@@Z 10001f30 f i TGFCfg.obj
 0001:00000f30       ??$to_address@VAnimationLayer@@@std@@YAPAVAnimationLayer@@QAV1@@Z 10001f30 f i Hooks.obj
 0001:00000f30       ?select_on_container_copy_construction@?$_Default_allocator_traits@V?$allocator@D@std@@@std@@SA?AV?$allocator@D@2@ABV32@@Z 10001f30 f i Menu.obj
 0001:00000f40       ??$_Deallocate@$07@std@@YAXPAXI@Z 10001f40 f i EnginePrediction.obj
 0001:00000fc0       ??$_Emplace_back@ABV?$_List_unchecked_iterator@V?$_List_val@U?$_List_simple_types@U?$pair@$$CBII@std@@@std@@@std@@@std@@@?$_Uninitialized_backout@PAV?$_List_unchecked_iterator@V?$_List_val@U?$_List_simple_types@U?$pair@$$CBII@std@@@std@@@std@@@std@@@std@@QAEXABV?$_List_unchecked_iterator@V?$_List_val@U?$_List_simple_types@U?$pair@$$CBII@std@@@std@@@std@@@1@@Z 10001fc0 f i EnginePrediction.obj
 0001:00000fc0       ??$_Emplace_back@ABV?$_List_unchecked_iterator@V?$_List_val@U?$_List_simple_types@U?$pair@$$CBV?$basic_string@DU?$char_traits@D@std@@V?$allocator@D@2@@std@@V?$shared_ptr@UNode@NetvarTree@@@2@@std@@@std@@@std@@@std@@@?$_Uninitialized_backout@PAV?$_List_unchecked_iterator@V?$_List_val@U?$_List_simple_types@U?$pair@$$CBV?$basic_string@DU?$char_traits@D@std@@V?$allocator@D@2@@std@@V?$shared_ptr@UNode@NetvarTree@@@2@@std@@@std@@@std@@@std@@@std@@QAEXABV?$_List_unchecked_iterator@V?$_List_val@U?$_List_simple_types@U?$pair@$$CBV?$basic_string@DU?$char_traits@D@std@@V?$allocator@D@2@@std@@V?$shared_ptr@UNode@NetvarTree@@@2@@std@@@std@@@std@@@1@@Z 10001fc0 f i EnginePrediction.obj
 0001:00000ff0       ??$_Find_last@V?$basic_string@DU?$char_traits@D@std@@V?$allocator@D@2@@std@@@?$_Hash@V?$_Umap_traits@V?$basic_string@DU?$char_traits@D@std@@V?$allocator@D@2@@std@@V?$shared_ptr@UNode@NetvarTree@@@2@V?$_Uhash_compare@V?$basic_string@DU?$char_traits@D@std@@V?$allocator@D@2@@std@@U?$hash@V?$basic_string@DU?$char_traits@D@std@@V?$allocator@D@2@@std@@@2@U?$equal_to@V?$basic_string@DU?$char_traits@D@std@@V?$allocator@D@2@@std@@@2@@2@V?$allocator@U?$pair@$$CBV?$basic_string@DU?$char_traits@D@std@@V?$allocator@D@2@@std@@V?$shared_ptr@UNode@NetvarTree@@@2@@std@@@2@$0A@@std@@@std@@IBE?AU?$_Hash_find_last_result@PAU?$_List_node@U?$pair@$$CBV?$basic_string@DU?$char_traits@D@std@@V?$allocator@D@2@@std@@V?$shared_ptr@UNode@NetvarTree@@@2@@std@@PAX@std@@@1@ABV?$basic_string@DU?$char_traits@D@std@@V?$allocator@D@2@@1@I@Z 10001ff0 f i EnginePrediction.obj
 0001:000010d0       ??$_Free_non_head@V?$allocator@U?$_List_node@U?$pair@$$CBII@std@@PAX@std@@@std@@@?$_List_node@U?$pair@$$CBII@std@@PAX@std@@SAXAAV?$allocator@U?$_List_node@U?$pair@$$CBII@std@@PAX@std@@@1@PAU01@@Z 100020d0 f i EnginePrediction.obj
 0001:00001120       ??$_Free_non_head@V?$allocator@U?$_List_node@U?$pair@$$CBV?$basic_string@DU?$char_traits@D@std@@V?$allocator@D@2@@std@@V?$shared_ptr@UNode@NetvarTree@@@2@@std@@PAX@std@@@std@@@?$_List_node@U?$pair@$$CBV?$basic_string@DU?$char_traits@D@std@@V?$allocator@D@2@@std@@V?$shared_ptr@UNode@NetvarTree@@@2@@std@@PAX@std@@SAXAAV?$allocator@U?$_List_node@U?$pair@$$CBV?$basic_string@DU?$char_traits@D@std@@V?$allocator@D@2@@std@@V?$shared_ptr@UNode@NetvarTree@@@2@@std@@PAX@std@@@1@PAU01@@Z 10002120 f i EnginePrediction.obj
 0001:00001170       ??$_Freenode0@V?$allocator@U?$_List_node@U?$pair@$$CBII@std@@PAX@std@@@std@@@?$_List_node@U?$pair@$$CBII@std@@PAX@std@@SAXAAV?$allocator@U?$_List_node@U?$pair@$$CBII@std@@PAX@std@@@1@PAU01@@Z 10002170 f i EnginePrediction.obj
 0001:000011b0       ??$_Freenode0@V?$allocator@U?$_List_node@U?$pair@$$CBV?$basic_string@DU?$char_traits@D@std@@V?$allocator@D@2@@std@@V?$shared_ptr@UNode@NetvarTree@@@2@@std@@PAX@std@@@std@@@?$_List_node@U?$pair@$$CBV?$basic_string@DU?$char_traits@D@std@@V?$allocator@D@2@@std@@V?$shared_ptr@UNode@NetvarTree@@@2@@std@@PAX@std@@SAXAAV?$allocator@U?$_List_node@U?$pair@$$CBV?$basic_string@DU?$char_traits@D@std@@V?$allocator@D@2@@std@@V?$shared_ptr@UNode@NetvarTree@@@2@@std@@PAX@std@@@1@PAU01@@Z 100021b0 f i EnginePrediction.obj
 0001:000011f0       ??$_Freenode@V?$allocator@U?$_List_node@U?$pair@$$CBII@std@@PAX@std@@@std@@@?$_List_node@U?$pair@$$CBII@std@@PAX@std@@SAXAAV?$allocator@U?$_List_node@U?$pair@$$CBII@std@@PAX@std@@@1@PAU01@@Z 100021f0 f i EnginePrediction.obj
 0001:00001260       ??$_Freenode@V?$allocator@U?$_List_node@U?$pair@$$CBV?$basic_string@DU?$char_traits@D@std@@V?$allocator@D@2@@std@@V?$shared_ptr@UNode@NetvarTree@@@2@@std@@PAX@std@@@std@@@?$_List_node@U?$pair@$$CBV?$basic_string@DU?$char_traits@D@std@@V?$allocator@D@2@@std@@V?$shared_ptr@UNode@NetvarTree@@@2@@std@@PAX@std@@SAXAAV?$allocator@U?$_List_node@U?$pair@$$CBV?$basic_string@DU?$char_traits@D@std@@V?$allocator@D@2@@std@@V?$shared_ptr@UNode@NetvarTree@@@2@@std@@PAX@std@@@1@PAU01@@Z 10002260 f i EnginePrediction.obj
 0001:000012d0       ??$_Get_size_of_n@$00@std@@YAII@Z 100022d0 f i EnginePrediction.obj
 0001:000012e0       ??$_Get_size_of_n@$03@std@@YAII@Z 100022e0 f i EnginePrediction.obj
 0001:00001310       ??$_Get_size_of_n@$0BA@@std@@YAII@Z 10002310 f i EnginePrediction.obj
 0001:00001340       ??$_Get_size_of_n@$0CI@@std@@YAII@Z 10002340 f i EnginePrediction.obj
 0001:00001370       ??$_Get_unwrapped@AAPAD@std@@YA?A_TAAPAD@Z 10002370 f i Hooks.obj
 0001:00001370       ??$_Get_unwrapped@AAPAVAnimationLayer@@@std@@YA?A_TAAPAVAnimationLayer@@@Z 10002370 f i Hooks.obj
 0001:00001370       ??$_Get_unwrapped@AAPBI@std@@YA?A_TAAPBI@Z 10002370 f i Hooks.obj
 0001:00001370       ??$_Get_unwrapped@AAPB_K@std@@YA?A_TAAPB_K@Z 10002370 f i Hooks.obj
 0001:00001370       ??$_Get_unwrapped@ABQAD@std@@YA?A_TABQAD@Z 10002370 f i Hooks.obj
 0001:00001370       ??$_Get_unwrapped@ABQAH@std@@YA?A_TABQAH@Z 10002370 f i Aimbot.obj
 0001:00001370       ??$_Get_unwrapped@ABQAPAULegitPlayerRecords@@@std@@YA?A_TABQAPAULegitPlayerRecords@@@Z 10002370 f i Legitbot.obj
 0001:00001370       ??$_Get_unwrapped@ABQAPAUPlayerRecords@@@std@@YA?A_TABQAPAUPlayerRecords@@@Z 10002370 f i LagComp.obj
 0001:00001370       ??$_Get_unwrapped@ABQAPAV?$ConfigValue@H@@@std@@YA?A_TABQAPAV?$ConfigValue@H@@@Z 10002370 f i TGFCfg.obj
 0001:00001370       ??$_Get_unwrapped@ABQAPAV?$ConfigValue@M@@@std@@YA?A_TABQAPAV?$ConfigValue@M@@@Z 10002370 f i TGFCfg.obj
 0001:00001370       ??$_Get_unwrapped@ABQAPAV?$ConfigValue@_N@@@std@@YA?A_TABQAPAV?$ConfigValue@_N@@@Z 10002370 f i TGFCfg.obj
 0001:00001370       ??$_Get_unwrapped@ABQAV?$_List_unchecked_iterator@V?$_List_val@U?$_List_simple_types@U?$pair@$$CBII@std@@@std@@@std@@@std@@@std@@YA?A_TABQAV?$_List_unchecked_iterator@V?$_List_val@U?$_List_simple_types@U?$pair@$$CBII@std@@@std@@@std@@@0@@Z 10002370 f i EnginePrediction.obj
 0001:00001370       ??$_Get_unwrapped@ABQAV?$_List_unchecked_iterator@V?$_List_val@U?$_List_simple_types@U?$pair@$$CBV?$basic_string@DU?$char_traits@D@std@@V?$allocator@D@2@@std@@V?$shared_ptr@UNode@NetvarTree@@@2@@std@@@std@@@std@@@std@@@std@@YA?A_TABQAV?$_List_unchecked_iterator@V?$_List_val@U?$_List_simple_types@U?$pair@$$CBV?$basic_string@DU?$char_traits@D@std@@V?$allocator@D@2@@std@@V?$shared_ptr@UNode@NetvarTree@@@2@@std@@@std@@@std@@@0@@Z 10002370 f i EnginePrediction.obj
 0001:00001370       ??$_Get_unwrapped@ABQBD@std@@YA?A_TABQBD@Z 10002370 f i Hooks.obj
 0001:00001370       ??$_Get_unwrapped@ABQBI@std@@YA?A_TABQBI@Z 10002370 f i Hooks.obj
 0001:00001370       ??$_Get_unwrapped@ABQB_K@std@@YA?A_TABQB_K@Z 10002370 f i Hooks.obj
 0001:00001370       ??$_Get_unwrapped_n@AAPADH@std@@YA?A_TAAPADH@Z 10002370 f i Hooks.obj
 0001:00001370       ??$_Get_unwrapped_n@AAPADI@std@@YA?A_TAAPADI@Z 10002370 f i Hooks.obj
 0001:00001370       ??$_Get_unwrapped_n@AAPAPAULegitPlayerRecords@@H@std@@YA?A_TAAPAPAULegitPlayerRecords@@H@Z 10002370 f i Legitbot.obj
 0001:00001370       ??$_Get_unwrapped_n@AAPAPAUPlayerRecords@@H@std@@YA?A_TAAPAPAUPlayerRecords@@H@Z 10002370 f i LagComp.obj
 0001:00001370       ??$_Get_unwrapped_n@PAVAnimationLayer@@H@std@@YA?A_T$$QAPAVAnimationLayer@@H@Z 10002370 f i Hooks.obj
 0001:00001370       ??$_Tuple_get@$0A@$$QAI@std@@YA$$QA_P$$QAV?$tuple@$$QAI@0@@Z 10002370 f i Resolver.obj
 0001:00001370       ??$_Tuple_get@$0A@$$QAV?$basic_string@DU?$char_traits@D@std@@V?$allocator@D@2@@std@@@std@@YA$$QA_P$$QAV?$tuple@$$QAV?$basic_string@DU?$char_traits@D@std@@V?$allocator@D@2@@std@@@0@@Z 10002370 f i EnginePrediction.obj
 0001:00001370       ??$_Unwrap_iter@PADPAD@ranges@std@@YA?A_T$$QAPAD@Z 10002370 f i Hooks.obj
 0001:00001370       ??$_Unwrap_iter@PBV?$basic_string@DU?$char_traits@D@std@@V?$allocator@D@2@@std@@PBV12@@ranges@std@@YA?A_T$$QAPBV?$basic_string@DU?$char_traits@D@std@@V?$allocator@D@2@@1@@Z 10002370 f i Menu.obj
 0001:00001370       ??$_Unwrap_sent@PADPAD@ranges@std@@YA?A_T$$QAPAD@Z 10002370 f i Hooks.obj
 0001:00001370       ??$_Unwrap_sent@PBV?$basic_string@DU?$char_traits@D@std@@V?$allocator@D@2@@std@@PBV12@@ranges@std@@YA?A_T$$QAPBV?$basic_string@DU?$char_traits@D@std@@V?$allocator@D@2@@1@@Z 10002370 f i Menu.obj
 0001:00001380       ??$_Hash_array_representation@D@std@@YAIQBDI@Z 10002380 f i EnginePrediction.obj
 0001:000013a0       ??$_Max_limit@H@std@@YAHXZ 100023a0 f i EnginePrediction.obj
 0001:000013c0       ??$_Traits_equal@U?$char_traits@D@std@@@std@@YA_NQBDI0I@Z 100023c0 f i EnginePrediction.obj
 0001:00001410       ??$_Try_emplace@V?$basic_string@DU?$char_traits@D@std@@V?$allocator@D@2@@std@@$$V@?$_Hash@V?$_Umap_traits@V?$basic_string@DU?$char_traits@D@std@@V?$allocator@D@2@@std@@V?$shared_ptr@UNode@NetvarTree@@@2@V?$_Uhash_compare@V?$basic_string@DU?$char_traits@D@std@@V?$allocator@D@2@@std@@U?$hash@V?$basic_string@DU?$char_traits@D@std@@V?$allocator@D@2@@std@@@2@U?$equal_to@V?$basic_string@DU?$char_traits@D@std@@V?$allocator@D@2@@std@@@2@@2@V?$allocator@U?$pair@$$CBV?$basic_string@DU?$char_traits@D@std@@V?$allocator@D@2@@std@@V?$shared_ptr@UNode@NetvarTree@@@2@@std@@@2@$0A@@std@@@std@@IAE?AU?$pair@PAU?$_List_node@U?$pair@$$CBV?$basic_string@DU?$char_traits@D@std@@V?$allocator@D@2@@std@@V?$shared_ptr@UNode@NetvarTree@@@2@@std@@PAX@std@@_N@1@$$QAV?$basic_string@DU?$char_traits@D@std@@V?$allocator@D@2@@1@@Z 10002410 f i EnginePrediction.obj
 0001:00001580       ??$construct@U?$pair@$$CBV?$basic_string@DU?$char_traits@D@std@@V?$allocator@D@2@@std@@V?$shared_ptr@UNode@NetvarTree@@@2@@std@@ABUpiecewise_construct_t@2@V?$tuple@$$QAV?$basic_string@DU?$char_traits@D@std@@V?$allocator@D@2@@std@@@2@V?$tuple@$$V@2@@?$_Default_allocator_traits@V?$allocator@U?$_List_node@U?$pair@$$CBV?$basic_string@DU?$char_traits@D@std@@V?$allocator@D@2@@std@@V?$shared_ptr@UNode@NetvarTree@@@2@@std@@PAX@std@@@std@@@std@@SAXAAV?$allocator@U?$_List_node@U?$pair@$$CBV?$basic_string@DU?$char_traits@D@std@@V?$allocator@D@2@@std@@V?$shared_ptr@UNode@NetvarTree@@@2@@std@@PAX@std@@@1@QAU?$pair@$$CBV?$basic_string@DU?$char_traits@D@std@@V?$allocator@D@2@@std@@V?$shared_ptr@UNode@NetvarTree@@@2@@1@ABUpiecewise_construct_t@1@$$QAV?$tuple@$$QAV?$basic_string@DU?$char_traits@D@std@@V?$allocator@D@2@@std@@@1@$$QAV?$tuple@$$V@1@@Z 10002580 f i EnginePrediction.obj
 0001:000015a0       ??$construct_at@D$$V@std@@YAPADQAD@Z 100025a0 f i EnginePrediction.obj
 0001:000015e0       ??$construct_at@HH@std@@YAPAHQAH$$QAH@Z 100025e0 f i Aimbot.obj
 0001:000015e0       ??$construct_at@PADAAPAD@std@@YAPAPADQAPADAAPAD@Z 100025e0 f i EnginePrediction.obj
 0001:000015e0       ??$construct_at@PADABQAD@std@@YAPAPADQAPADABQAD@Z 100025e0 f i EnginePrediction.obj
 0001:000015e0       ??$construct_at@PAU?$_List_node@U?$pair@$$CBII@std@@PAX@std@@AAPAU12@@std@@YAPAPAU?$_List_node@U?$pair@$$CBII@std@@PAX@0@QAPAU10@AAPAU10@@Z 100025e0 f i EnginePrediction.obj
 0001:000015e0       ??$construct_at@PAU?$_List_node@U?$pair@$$CBII@std@@PAX@std@@ABQAU12@@std@@YAPAPAU?$_List_node@U?$pair@$$CBII@std@@PAX@0@QAPAU10@ABQAU10@@Z 100025e0 f i Resolver.obj
 0001:000015e0       ??$construct_at@PAU?$_List_node@U?$pair@$$CBV?$basic_string@DU?$char_traits@D@std@@V?$allocator@D@2@@std@@V?$shared_ptr@UNode@NetvarTree@@@2@@std@@PAX@std@@AAPAU12@@std@@YAPAPAU?$_List_node@U?$pair@$$CBV?$basic_string@DU?$char_traits@D@std@@V?$allocator@D@2@@std@@V?$shared_ptr@UNode@NetvarTree@@@2@@std@@PAX@0@QAPAU10@AAPAU10@@Z 100025e0 f i NetvarManager.obj
 0001:000015e0       ??$construct_at@PAU?$_List_node@U?$pair@$$CBV?$basic_string@DU?$char_traits@D@std@@V?$allocator@D@2@@std@@V?$shared_ptr@UNode@NetvarTree@@@2@@std@@PAX@std@@ABQAU12@@std@@YAPAPAU?$_List_node@U?$pair@$$CBV?$basic_string@DU?$char_traits@D@std@@V?$allocator@D@2@@std@@V?$shared_ptr@UNode@NetvarTree@@@2@@std@@PAX@0@QAPAU10@ABQAU10@@Z 100025e0 f i EnginePrediction.obj
 0001:000015e0       ??$construct_at@PAV?$ConfigValue@H@@PAV1@@std@@YAPAPAV?$ConfigValue@H@@QAPAV1@$$QAPAV1@@Z 100025e0 f i TGFCfg.obj
 0001:000015e0       ??$construct_at@PAV?$ConfigValue@M@@PAV1@@std@@YAPAPAV?$ConfigValue@M@@QAPAV1@$$QAPAV1@@Z 100025e0 f i TGFCfg.obj
 0001:000015e0       ??$construct_at@PAV?$ConfigValue@_N@@PAV1@@std@@YAPAPAV?$ConfigValue@_N@@QAPAV1@$$QAPAV1@@Z 100025e0 f i TGFCfg.obj
 0001:00001610       ??$construct_at@U?$pair@$$CBV?$basic_string@DU?$char_traits@D@std@@V?$allocator@D@2@@std@@V?$shared_ptr@UNode@NetvarTree@@@2@@std@@ABUpiecewise_construct_t@2@V?$tuple@$$QAV?$basic_string@DU?$char_traits@D@std@@V?$allocator@D@2@@std@@@2@V?$tuple@$$V@2@@std@@YAPAU?$pair@$$CBV?$basic_string@DU?$char_traits@D@std@@V?$allocator@D@2@@std@@V?$shared_ptr@UNode@NetvarTree@@@2@@0@QAU10@ABUpiecewise_construct_t@0@$$QAV?$tuple@$$QAV?$basic_string@DU?$char_traits@D@std@@V?$allocator@D@2@@std@@@0@$$QAV?$tuple@$$V@0@@Z 10002610 f i EnginePrediction.obj
 0001:00001660       ??$construct_at@V?$_List_unchecked_iterator@V?$_List_val@U?$_List_simple_types@U?$pair@$$CBII@std@@@std@@@std@@@std@@ABV12@@std@@YAPAV?$_List_unchecked_iterator@V?$_List_val@U?$_List_simple_types@U?$pair@$$CBII@std@@@std@@@std@@@0@QAV10@ABV10@@Z 10002660 f i EnginePrediction.obj
 0001:00001660       ??$construct_at@V?$_List_unchecked_iterator@V?$_List_val@U?$_List_simple_types@U?$pair@$$CBV?$basic_string@DU?$char_traits@D@std@@V?$allocator@D@2@@std@@V?$shared_ptr@UNode@NetvarTree@@@2@@std@@@std@@@std@@@std@@ABV12@@std@@YAPAV?$_List_unchecked_iterator@V?$_List_val@U?$_List_simple_types@U?$pair@$$CBV?$basic_string@DU?$char_traits@D@std@@V?$allocator@D@2@@std@@V?$shared_ptr@UNode@NetvarTree@@@2@@std@@@std@@@std@@@0@QAV10@ABV10@@Z 10002660 f i EnginePrediction.obj
 0001:00001690       ??$destroy@U?$pair@$$CBII@std@@@?$_Default_allocator_traits@V?$allocator@U?$_List_node@U?$pair@$$CBII@std@@PAX@std@@@std@@@std@@SAXAAV?$allocator@U?$_List_node@U?$pair@$$CBII@std@@PAX@std@@@1@QAU?$pair@$$CBII@1@@Z 10002690 f i EnginePrediction.obj
 0001:00001690       ??$destroy@ULegitPlayerRecords@@@?$_Default_allocator_traits@V?$allocator@ULegitPlayerRecords@@@std@@@std@@SAXAAV?$allocator@ULegitPlayerRecords@@@1@QAULegitPlayerRecords@@@Z 10002690 f i Legitbot.obj
 0001:00001690       ??$destroy@UPlayerRecords@@@?$_Default_allocator_traits@V?$allocator@UPlayerRecords@@@std@@@std@@SAXAAV?$allocator@UPlayerRecords@@@1@QAUPlayerRecords@@@Z 10002690 f i LagComp.obj
 0001:000016b0       ??$destroy@U?$pair@$$CBV?$basic_string@DU?$char_traits@D@std@@V?$allocator@D@2@@std@@V?$shared_ptr@UNode@NetvarTree@@@2@@std@@@?$_Default_allocator_traits@V?$allocator@U?$_List_node@U?$pair@$$CBV?$basic_string@DU?$char_traits@D@std@@V?$allocator@D@2@@std@@V?$shared_ptr@UNode@NetvarTree@@@2@@std@@PAX@std@@@std@@@std@@SAXAAV?$allocator@U?$_List_node@U?$pair@$$CBV?$basic_string@DU?$char_traits@D@std@@V?$allocator@D@2@@std@@V?$shared_ptr@UNode@NetvarTree@@@2@@std@@PAX@std@@@1@QAU?$pair@$$CBV?$basic_string@DU?$char_traits@D@std@@V?$allocator@D@2@@std@@V?$shared_ptr@UNode@NetvarTree@@@2@@1@@Z 100026b0 f i EnginePrediction.obj
 0001:000016d0       ??$destroy_at@U?$pair@$$CBV?$basic_string@DU?$char_traits@D@std@@V?$allocator@D@2@@std@@V?$shared_ptr@UNode@NetvarTree@@@2@@std@@@std@@YAXQAU?$pair@$$CBV?$basic_string@DU?$char_traits@D@std@@V?$allocator@D@2@@std@@V?$shared_ptr@UNode@NetvarTree@@@2@@0@@Z 100026d0 f i EnginePrediction.obj
 0001:000016e0       ??$exchange@PAI$$T@std@@YAPAIAAPAI$$QA$$T@Z 100026e0 f i Hooks.obj
 0001:000016e0       ??$exchange@PAIAAPAI@std@@YAPAIAAPAI0@Z 100026e0 f i Hooks.obj
 0001:000016e0       ??$exchange@PAU?$_List_node@U?$pair@$$CBII@std@@PAX@std@@$$T@std@@YAPAU?$_List_node@U?$pair@$$CBII@std@@PAX@0@AAPAU10@$$QA$$T@Z 100026e0 f i Resolver.obj
 0001:000016e0       ??$exchange@PAU?$_List_node@U?$pair@$$CBV?$basic_string@DU?$char_traits@D@std@@V?$allocator@D@2@@std@@V?$shared_ptr@UNode@NetvarTree@@@2@@std@@PAX@std@@$$T@std@@YAPAU?$_List_node@U?$pair@$$CBV?$basic_string@DU?$char_traits@D@std@@V?$allocator@D@2@@std@@V?$shared_ptr@UNode@NetvarTree@@@2@@std@@PAX@0@AAPAU10@$$QA$$T@Z 100026e0 f i EnginePrediction.obj
 0001:000016e0       ??$exchange@PAU_Container_proxy@std@@$$T@std@@YAPAU_Container_proxy@0@AAPAU10@$$QA$$T@Z 100026e0 f i LagComp.obj
 0001:000016e0       ??$exchange@PAVNetvarTree@@$$T@std@@YAPAVNetvarTree@@AAPAV1@$$QA$$T@Z 100026e0 f i Hooks.obj
 0001:000016e0       ??$exchange@PAVNetvarTree@@AAPAV1@@std@@YAPAVNetvarTree@@AAPAV1@0@Z 100026e0 f i Hooks.obj
 0001:000016e0       ??$exchange@PAVVMTHook@@$$T@std@@YAPAVVMTHook@@AAPAV1@$$QA$$T@Z 100026e0 f i Hooks.obj
 0001:000016e0       ??$exchange@PAVVMTHook@@AAPAV1@@std@@YAPAVVMTHook@@AAPAV1@0@Z 100026e0 f i Hooks.obj
 0001:000016e0       ??$exchange@PAV_Facet_base@std@@$$T@std@@YAPAV_Facet_base@0@AAPAV10@$$QA$$T@Z 100026e0 f i Hooks.obj
 0001:00001700       ??$fill@PAV?$_List_unchecked_iterator@V?$_List_val@U?$_List_simple_types@U?$pair@$$CBII@std@@@std@@@std@@@std@@V12@@std@@YAXQAV?$_List_unchecked_iterator@V?$_List_val@U?$_List_simple_types@U?$pair@$$CBII@std@@@std@@@std@@@0@0ABV10@@Z 10002700 f i EnginePrediction.obj
 0001:00001700       ??$fill@PAV?$_List_unchecked_iterator@V?$_List_val@U?$_List_simple_types@U?$pair@$$CBV?$basic_string@DU?$char_traits@D@std@@V?$allocator@D@2@@std@@V?$shared_ptr@UNode@NetvarTree@@@2@@std@@@std@@@std@@@std@@V12@@std@@YAXQAV?$_List_unchecked_iterator@V?$_List_val@U?$_List_simple_types@U?$pair@$$CBV?$basic_string@DU?$char_traits@D@std@@V?$allocator@D@2@@std@@V?$shared_ptr@UNode@NetvarTree@@@2@@std@@@std@@@std@@@0@0ABV10@@Z 10002700 f i EnginePrediction.obj
 0001:00001760       ??$forward_as_tuple@I@std@@YA?AV?$tuple@$$QAI@0@$$QAI@Z 10002760 f i Resolver.obj
 0001:00001760       ??$forward_as_tuple@V?$basic_string@DU?$char_traits@D@std@@V?$allocator@D@2@@std@@@std@@YA?AV?$tuple@$$QAV?$basic_string@DU?$char_traits@D@std@@V?$allocator@D@2@@std@@@0@$$QAV?$basic_string@DU?$char_traits@D@std@@V?$allocator@D@2@@0@@Z 10002760 f i EnginePrediction.obj
 0001:00001780       ??$max@I@std@@YAABIABI0@Z  10002780 f i EnginePrediction.obj
 0001:000017b0       ??$min@I@std@@YAABIABI0@Z  100027b0 f i EnginePrediction.obj
 0001:000017b0       ??$min@PAD@std@@YAABQADABQAD0@Z 100027b0 f i Hooks.obj
 0001:000017e0       ??$uninitialized_fill@PAV?$_List_unchecked_iterator@V?$_List_val@U?$_List_simple_types@U?$pair@$$CBII@std@@@std@@@std@@@std@@V12@@std@@YAXQAV?$_List_unchecked_iterator@V?$_List_val@U?$_List_simple_types@U?$pair@$$CBII@std@@@std@@@std@@@0@0ABV10@@Z 100027e0 f i EnginePrediction.obj
 0001:000017e0       ??$uninitialized_fill@PAV?$_List_unchecked_iterator@V?$_List_val@U?$_List_simple_types@U?$pair@$$CBV?$basic_string@DU?$char_traits@D@std@@V?$allocator@D@2@@std@@V?$shared_ptr@UNode@NetvarTree@@@2@@std@@@std@@@std@@@std@@V12@@std@@YAXQAV?$_List_unchecked_iterator@V?$_List_val@U?$_List_simple_types@U?$pair@$$CBV?$basic_string@DU?$char_traits@D@std@@V?$allocator@D@2@@std@@V?$shared_ptr@UNode@NetvarTree@@@2@@std@@@std@@@std@@@0@0ABV10@@Z 100027e0 f i EnginePrediction.obj
 0001:00001890       ??0?$_Alloc_construct_ptr@V?$allocator@U?$_List_node@U?$pair@$$CBII@std@@PAX@std@@@std@@@std@@QAE@AAV?$allocator@U?$_List_node@U?$pair@$$CBII@std@@PAX@std@@@1@@Z 10002890 f i Resolver.obj
 0001:00001890       ??0?$_Alloc_construct_ptr@V?$allocator@U?$_List_node@U?$pair@$$CBV?$basic_string@DU?$char_traits@D@std@@V?$allocator@D@2@@std@@V?$shared_ptr@UNode@NetvarTree@@@2@@std@@PAX@std@@@std@@@std@@QAE@AAV?$allocator@U?$_List_node@U?$pair@$$CBV?$basic_string@DU?$char_traits@D@std@@V?$allocator@D@2@@std@@V?$shared_ptr@UNode@NetvarTree@@@2@@std@@PAX@std@@@1@@Z 10002890 f i EnginePrediction.obj
 0001:00001890       ??0_Container_proxy@std@@QAE@PAU_Container_base12@1@@Z 10002890 f i LagComp.obj
 0001:000018c0       ??0?$_Hash@V?$_Umap_traits@IIV?$_Uhash_compare@IU?$hash@I@std@@U?$equal_to@I@2@@std@@V?$allocator@U?$pair@$$CBII@std@@@2@$0A@@std@@@std@@IAE@ABV?$_Uhash_compare@IU?$hash@I@std@@U?$equal_to@I@2@@1@ABV?$allocator@U?$pair@$$CBII@std@@@1@@Z 100028c0 f i EnginePrediction.obj
 0001:000019a0       ??0?$_List_unchecked_const_iterator@V?$_List_val@U?$_List_simple_types@U?$pair@$$CBII@std@@@std@@@std@@U_Iterator_base0@2@@std@@QAE@PAU?$_List_node@U?$pair@$$CBII@std@@PAX@1@PBV?$_List_val@U?$_List_simple_types@U?$pair@$$CBII@std@@@std@@@1@@Z 100029a0 f i EnginePrediction.obj
 0001:000019a0       ??0?$_List_unchecked_const_iterator@V?$_List_val@U?$_List_simple_types@U?$pair@$$CBV?$basic_string@DU?$char_traits@D@std@@V?$allocator@D@2@@std@@V?$shared_ptr@UNode@NetvarTree@@@2@@std@@@std@@@std@@U_Iterator_base0@2@@std@@QAE@PAU?$_List_node@U?$pair@$$CBV?$basic_string@DU?$char_traits@D@std@@V?$allocator@D@2@@std@@V?$shared_ptr@UNode@NetvarTree@@@2@@std@@PAX@1@PBV?$_List_val@U?$_List_simple_types@U?$pair@$$CBV?$basic_string@DU?$char_traits@D@std@@V?$allocator@D@2@@std@@V?$shared_ptr@UNode@NetvarTree@@@2@@std@@@std@@@1@@Z 100029a0 f i EnginePrediction.obj
 0001:000019a0       ??0?$_String_const_iterator@V?$_String_val@U?$_Simple_types@D@std@@@std@@@std@@QAE@PBDPBU_Container_base0@1@@Z 100029a0 f i Hooks.obj
 0001:000019d0       ??0?$_List_const_iterator@V?$_List_val@U?$_List_simple_types@U?$pair@$$CBV?$basic_string@DU?$char_traits@D@std@@V?$allocator@D@2@@std@@V?$shared_ptr@UNode@NetvarTree@@@2@@std@@@std@@@std@@@std@@QAE@PAU?$_List_node@U?$pair@$$CBV?$basic_string@DU?$char_traits@D@std@@V?$allocator@D@2@@std@@V?$shared_ptr@UNode@NetvarTree@@@2@@std@@PAX@1@PBV?$_List_val@U?$_List_simple_types@U?$pair@$$CBV?$basic_string@DU?$char_traits@D@std@@V?$allocator@D@2@@std@@V?$shared_ptr@UNode@NetvarTree@@@2@@std@@@std@@@1@@Z 100029d0 f i NetvarManager.obj
 0001:000019d0       ??0?$_List_unchecked_iterator@V?$_List_val@U?$_List_simple_types@U?$pair@$$CBII@std@@@std@@@std@@@std@@QAE@PAU?$_List_node@U?$pair@$$CBII@std@@PAX@1@PBV?$_List_val@U?$_List_simple_types@U?$pair@$$CBII@std@@@std@@@1@@Z 100029d0 f i EnginePrediction.obj
 0001:000019d0       ??0?$_List_unchecked_iterator@V?$_List_val@U?$_List_simple_types@U?$pair@$$CBV?$basic_string@DU?$char_traits@D@std@@V?$allocator@D@2@@std@@V?$shared_ptr@UNode@NetvarTree@@@2@@std@@@std@@@std@@@std@@QAE@PAU?$_List_node@U?$pair@$$CBV?$basic_string@DU?$char_traits@D@std@@V?$allocator@D@2@@std@@V?$shared_ptr@UNode@NetvarTree@@@2@@std@@PAX@1@PBV?$_List_val@U?$_List_simple_types@U?$pair@$$CBV?$basic_string@DU?$char_traits@D@std@@V?$allocator@D@2@@std@@V?$shared_ptr@UNode@NetvarTree@@@2@@std@@@std@@@1@@Z 100029d0 f i EnginePrediction.obj
 0001:000019d0       ??0?$_String_iterator@V?$_String_val@U?$_Simple_types@D@std@@@std@@@std@@QAE@PBDPBU_Container_base0@1@@Z 100029d0 f i Hooks.obj
 0001:00001a00       ??0?$_List_val@U?$_List_simple_types@U?$pair@$$CBII@std@@@std@@@std@@QAE@XZ 10002a00 f i EnginePrediction.obj
 0001:00001a00       ??0?$_List_val@U?$_List_simple_types@U?$pair@$$CBV?$basic_string@DU?$char_traits@D@std@@V?$allocator@D@2@@std@@V?$shared_ptr@UNode@NetvarTree@@@2@@std@@@std@@@std@@QAE@XZ 10002a00 f i NetvarManager.obj
 0001:00001a00       ??0?$_Ptr_base@UNode@NetvarTree@@@std@@IAE@XZ 10002a00 f i EnginePrediction.obj
 0001:00001a00       ??0?$basic_string_view@DU?$char_traits@D@std@@@std@@QAE@XZ 10002a00 f i Hooks.obj
 0001:00001a00       ??0_Iterator_base12@std@@QAE@XZ 10002a00 f i LagComp.obj
 0001:00001a30       ??0?$_String_val@U?$_Simple_types@D@std@@@std@@QAE@XZ 10002a30 f i EnginePrediction.obj
 0001:00001a60       ??0?$_Uhash_compare@IU?$hash@I@std@@U?$equal_to@I@2@@std@@QAE@XZ 10002a60 f i EnginePrediction.obj
 0001:00001a60       ??0?$_Uhash_compare@V?$basic_string@DU?$char_traits@D@std@@V?$allocator@D@2@@std@@U?$hash@V?$basic_string@DU?$char_traits@D@std@@V?$allocator@D@2@@std@@@2@U?$equal_to@V?$basic_string@DU?$char_traits@D@std@@V?$allocator@D@2@@std@@@2@@std@@QAE@XZ 10002a60 f i NetvarManager.obj
 0001:00001aa0       ??0?$_Umap_traits@IIV?$_Uhash_compare@IU?$hash@I@std@@U?$equal_to@I@2@@std@@V?$allocator@U?$pair@$$CBII@std@@@2@$0A@@std@@QAE@ABV?$_Uhash_compare@IU?$hash@I@std@@U?$equal_to@I@2@@1@@Z 10002aa0 f i EnginePrediction.obj
 0001:00001aa0       ??0?$_Umap_traits@V?$basic_string@DU?$char_traits@D@std@@V?$allocator@D@2@@std@@V?$shared_ptr@UNode@NetvarTree@@@2@V?$_Uhash_compare@V?$basic_string@DU?$char_traits@D@std@@V?$allocator@D@2@@std@@U?$hash@V?$basic_string@DU?$char_traits@D@std@@V?$allocator@D@2@@std@@@2@U?$equal_to@V?$basic_string@DU?$char_traits@D@std@@V?$allocator@D@2@@std@@@2@@2@V?$allocator@U?$pair@$$CBV?$basic_string@DU?$char_traits@D@std@@V?$allocator@D@2@@std@@V?$shared_ptr@UNode@NetvarTree@@@2@@std@@@2@$0A@@std@@QAE@ABV?$_Uhash_compare@V?$basic_string@DU?$char_traits@D@std@@V?$allocator@D@2@@std@@U?$hash@V?$basic_string@DU?$char_traits@D@std@@V?$allocator@D@2@@std@@@2@U?$equal_to@V?$basic_string@DU?$char_traits@D@std@@V?$allocator@D@2@@std@@@2@@1@@Z 10002aa0 f i NetvarManager.obj
 0001:00001ac0       ??0?$_Uninitialized_backout@PAPAULegitPlayerRecords@@@std@@QAE@PAPAULegitPlayerRecords@@@Z 10002ac0 f i Legitbot.obj
 0001:00001ac0       ??0?$_Uninitialized_backout@PAPAUPlayerRecords@@@std@@QAE@PAPAUPlayerRecords@@@Z 10002ac0 f i LagComp.obj
 0001:00001ac0       ??0?$_Uninitialized_backout@PAV?$_List_unchecked_iterator@V?$_List_val@U?$_List_simple_types@U?$pair@$$CBII@std@@@std@@@std@@@std@@@std@@QAE@PAV?$_List_unchecked_iterator@V?$_List_val@U?$_List_simple_types@U?$pair@$$CBII@std@@@std@@@std@@@1@@Z 10002ac0 f i EnginePrediction.obj
 0001:00001ac0       ??0?$_Uninitialized_backout@PAV?$_List_unchecked_iterator@V?$_List_val@U?$_List_simple_types@U?$pair@$$CBV?$basic_string@DU?$char_traits@D@std@@V?$allocator@D@2@@std@@V?$shared_ptr@UNode@NetvarTree@@@2@@std@@@std@@@std@@@std@@@std@@QAE@PAV?$_List_unchecked_iterator@V?$_List_val@U?$_List_simple_types@U?$pair@$$CBV?$basic_string@DU?$char_traits@D@std@@V?$allocator@D@2@@std@@V?$shared_ptr@UNode@NetvarTree@@@2@@std@@@std@@@std@@@1@@Z 10002ac0 f i EnginePrediction.obj
 0001:00001af0       ??0?$_Vector_val@U?$_Simple_types@H@std@@@std@@QAE@XZ 10002af0 f i Aimbot.obj
 0001:00001af0       ??0?$_Vector_val@U?$_Simple_types@PAV?$ConfigValue@H@@@std@@@std@@QAE@XZ 10002af0 f i TGFCfg.obj
 0001:00001af0       ??0?$_Vector_val@U?$_Simple_types@PAV?$ConfigValue@M@@@std@@@std@@QAE@XZ 10002af0 f i TGFCfg.obj
 0001:00001af0       ??0?$_Vector_val@U?$_Simple_types@PAV?$ConfigValue@_N@@@std@@@std@@QAE@XZ 10002af0 f i TGFCfg.obj
 0001:00001af0       ??0?$_Vector_val@U?$_Simple_types@V?$_List_unchecked_iterator@V?$_List_val@U?$_List_simple_types@U?$pair@$$CBII@std@@@std@@@std@@@std@@@std@@@std@@QAE@XZ 10002af0 f i EnginePrediction.obj
 0001:00001af0       ??0?$_Vector_val@U?$_Simple_types@V?$_List_unchecked_iterator@V?$_List_val@U?$_List_simple_types@U?$pair@$$CBV?$basic_string@DU?$char_traits@D@std@@V?$allocator@D@2@@std@@V?$shared_ptr@UNode@NetvarTree@@@2@@std@@@std@@@std@@@std@@@std@@@std@@QAE@XZ 10002af0 f i NetvarManager.obj
 0001:00001af0       ??0?$_Vector_val@U?$_Simple_types@V?$basic_string@DU?$char_traits@D@std@@V?$allocator@D@2@@std@@@std@@@std@@QAE@XZ 10002af0 f i Menu.obj
 0001:00001b20       ??0?$allocator@D@std@@QAE@XZ 10002b20 f i EnginePrediction.obj
 0001:00001b20       ??0?$allocator@H@std@@QAE@XZ 10002b20 f i Aimbot.obj
 0001:00001b20       ??0?$allocator@PAV?$ConfigValue@H@@@std@@QAE@XZ 10002b20 f i TGFCfg.obj
 0001:00001b20       ??0?$allocator@PAV?$ConfigValue@M@@@std@@QAE@XZ 10002b20 f i TGFCfg.obj
 0001:00001b20       ??0?$allocator@PAV?$ConfigValue@_N@@@std@@QAE@XZ 10002b20 f i TGFCfg.obj
 0001:00001b20       ??0?$allocator@U?$pair@$$CBII@std@@@std@@QAE@XZ 10002b20 f i EnginePrediction.obj
 0001:00001b20       ??0?$allocator@U?$pair@$$CBV?$basic_string@DU?$char_traits@D@std@@V?$allocator@D@2@@std@@V?$shared_ptr@UNode@NetvarTree@@@2@@std@@@std@@QAE@XZ 10002b20 f i NetvarManager.obj
 0001:00001b20       ??0?$allocator@ULegitPlayerRecords@@@std@@QAE@XZ 10002b20 f i Legitbot.obj
 0001:00001b20       ??0?$allocator@UPlayerRecords@@@std@@QAE@XZ 10002b20 f i LagComp.obj
 0001:00001b20       ??0?$allocator@V?$basic_string@DU?$char_traits@D@std@@V?$allocator@D@2@@std@@@std@@QAE@XZ 10002b20 f i Menu.obj
 0001:00001b20       ??0Vector2D@@QAE@XZ        10002b20 f i Legitbot.obj
 0001:00001b20       ??0Vector@@QAE@XZ          10002b20 f i Aimbot.obj
 0001:00001b20       ??0matrix3x4_t@@QAE@XZ     10002b20 f i Aimbot.obj
 0001:00001b20       ??D?$back_insert_iterator@V?$_Fmt_buffer@D@std@@@std@@QAEAAV01@XZ 10002b20 f i Hooks.obj
 0001:00001b20       ??E?$back_insert_iterator@V?$_Fmt_buffer@D@std@@@std@@QAEAAV01@XZ 10002b20 f i Hooks.obj
 0001:00001b20       ?_Get_data@?$deque@ULegitPlayerRecords@@V?$allocator@ULegitPlayerRecords@@@std@@@std@@AAEAAV?$_Deque_val@U?$_Deque_simple_types@ULegitPlayerRecords@@@std@@@2@XZ 10002b20 f i Legitbot.obj
 0001:00001b20       ?_Get_data@?$deque@ULegitPlayerRecords@@V?$allocator@ULegitPlayerRecords@@@std@@@std@@ABEABV?$_Deque_val@U?$_Deque_simple_types@ULegitPlayerRecords@@@std@@@2@XZ 10002b20 f i Legitbot.obj
 0001:00001b20       ?_Get_data@?$deque@UPlayerRecords@@V?$allocator@UPlayerRecords@@@std@@@std@@AAEAAV?$_Deque_val@U?$_Deque_simple_types@UPlayerRecords@@@std@@@2@XZ 10002b20 f i Aimbot.obj
 0001:00001b20       ?_Get_data@?$deque@UPlayerRecords@@V?$allocator@UPlayerRecords@@@std@@@std@@ABEABV?$_Deque_val@U?$_Deque_simple_types@UPlayerRecords@@@std@@@2@XZ 10002b20 f i Aimbot.obj
 0001:00001b20       ?_Get_first@?$_Compressed_pair@U?$default_delete@$$BY0A@I@std@@PAI$00@std@@QAEAAU?$default_delete@$$BY0A@I@2@XZ 10002b20 f i Hooks.obj
 0001:00001b20       ?_Get_first@?$_Compressed_pair@U?$default_delete@VNetvarTree@@@std@@PAVNetvarTree@@$00@std@@QAEAAU?$default_delete@VNetvarTree@@@2@XZ 10002b20 f i Hooks.obj
 0001:00001b20       ?_Get_first@?$_Compressed_pair@U?$default_delete@VShadowVTManager@@@std@@PAVShadowVTManager@@$00@std@@QAEAAU?$default_delete@VShadowVTManager@@@2@XZ 10002b20 f i Hooks.obj
 0001:00001b20       ?_Get_first@?$_Compressed_pair@U?$default_delete@VVMTHook@@@std@@PAVVMTHook@@$00@std@@QAEAAU?$default_delete@VVMTHook@@@2@XZ 10002b20 f i Hooks.obj
 0001:00001b20       ?_Get_first@?$_Compressed_pair@U?$default_delete@V_Facet_base@std@@@std@@PAV_Facet_base@2@$00@std@@QAEAAU?$default_delete@V_Facet_base@std@@@2@XZ 10002b20 f i Hooks.obj
 0001:00001b20       ?_Get_first@?$_Compressed_pair@U?$equal_to@I@std@@M$00@std@@QBEABU?$equal_to@I@2@XZ 10002b20 f i Resolver.obj
 0001:00001b20       ?_Get_first@?$_Compressed_pair@U?$equal_to@V?$basic_string@DU?$char_traits@D@std@@V?$allocator@D@2@@std@@@std@@M$00@std@@QBEABU?$equal_to@V?$basic_string@DU?$char_traits@D@std@@V?$allocator@D@2@@std@@@2@XZ 10002b20 f i EnginePrediction.obj
 0001:00001b20       ?_Get_first@?$_Compressed_pair@U?$hash@I@std@@V?$_Compressed_pair@U?$equal_to@I@std@@M$00@2@$00@std@@QBEABU?$hash@I@2@XZ 10002b20 f i Resolver.obj
 0001:00001b20       ?_Get_first@?$_Compressed_pair@U?$hash@V?$basic_string@DU?$char_traits@D@std@@V?$allocator@D@2@@std@@@std@@V?$_Compressed_pair@U?$equal_to@V?$basic_string@DU?$char_traits@D@std@@V?$allocator@D@2@@std@@@std@@M$00@2@$00@std@@QBEABU?$hash@V?$basic_string@DU?$char_traits@D@std@@V?$allocator@D@2@@std@@@2@XZ 10002b20 f i EnginePrediction.obj
 0001:00001b20       ?_Get_first@?$_Compressed_pair@V?$allocator@D@std@@V?$_String_val@U?$_Simple_types@D@std@@@2@$00@std@@QAEAAV?$allocator@D@2@XZ 10002b20 f i EnginePrediction.obj
 0001:00001b20       ?_Get_first@?$_Compressed_pair@V?$allocator@D@std@@V?$_String_val@U?$_Simple_types@D@std@@@2@$00@std@@QBEABV?$allocator@D@2@XZ 10002b20 f i EnginePrediction.obj
 0001:00001b20       ?_Get_first@?$_Compressed_pair@V?$allocator@H@std@@V?$_Vector_val@U?$_Simple_types@H@std@@@2@$00@std@@QAEAAV?$allocator@H@2@XZ 10002b20 f i Aimbot.obj
 0001:00001b20       ?_Get_first@?$_Compressed_pair@V?$allocator@H@std@@V?$_Vector_val@U?$_Simple_types@H@std@@@2@$00@std@@QBEABV?$allocator@H@2@XZ 10002b20 f i Aimbot.obj
 0001:00001b20       ?_Get_first@?$_Compressed_pair@V?$allocator@PAV?$ConfigValue@H@@@std@@V?$_Vector_val@U?$_Simple_types@PAV?$ConfigValue@H@@@std@@@2@$00@std@@QAEAAV?$allocator@PAV?$ConfigValue@H@@@2@XZ 10002b20 f i TGFCfg.obj
 0001:00001b20       ?_Get_first@?$_Compressed_pair@V?$allocator@PAV?$ConfigValue@H@@@std@@V?$_Vector_val@U?$_Simple_types@PAV?$ConfigValue@H@@@std@@@2@$00@std@@QBEABV?$allocator@PAV?$ConfigValue@H@@@2@XZ 10002b20 f i TGFCfg.obj
 0001:00001b20       ?_Get_first@?$_Compressed_pair@V?$allocator@PAV?$ConfigValue@M@@@std@@V?$_Vector_val@U?$_Simple_types@PAV?$ConfigValue@M@@@std@@@2@$00@std@@QAEAAV?$allocator@PAV?$ConfigValue@M@@@2@XZ 10002b20 f i TGFCfg.obj
 0001:00001b20       ?_Get_first@?$_Compressed_pair@V?$allocator@PAV?$ConfigValue@M@@@std@@V?$_Vector_val@U?$_Simple_types@PAV?$ConfigValue@M@@@std@@@2@$00@std@@QBEABV?$allocator@PAV?$ConfigValue@M@@@2@XZ 10002b20 f i TGFCfg.obj
 0001:00001b20       ?_Get_first@?$_Compressed_pair@V?$allocator@PAV?$ConfigValue@_N@@@std@@V?$_Vector_val@U?$_Simple_types@PAV?$ConfigValue@_N@@@std@@@2@$00@std@@QAEAAV?$allocator@PAV?$ConfigValue@_N@@@2@XZ 10002b20 f i TGFCfg.obj
 0001:00001b20       ?_Get_first@?$_Compressed_pair@V?$allocator@PAV?$ConfigValue@_N@@@std@@V?$_Vector_val@U?$_Simple_types@PAV?$ConfigValue@_N@@@std@@@2@$00@std@@QBEABV?$allocator@PAV?$ConfigValue@_N@@@2@XZ 10002b20 f i TGFCfg.obj
 0001:00001b20       ?_Get_first@?$_Compressed_pair@V?$allocator@U?$_List_node@U?$pair@$$CBII@std@@PAX@std@@@std@@V?$_List_val@U?$_List_simple_types@U?$pair@$$CBII@std@@@std@@@2@$00@std@@QAEAAV?$allocator@U?$_List_node@U?$pair@$$CBII@std@@PAX@std@@@2@XZ 10002b20 f i EnginePrediction.obj
 0001:00001b20       ?_Get_first@?$_Compressed_pair@V?$allocator@U?$_List_node@U?$pair@$$CBII@std@@PAX@std@@@std@@V?$_List_val@U?$_List_simple_types@U?$pair@$$CBII@std@@@std@@@2@$00@std@@QBEABV?$allocator@U?$_List_node@U?$pair@$$CBII@std@@PAX@std@@@2@XZ 10002b20 f i Resolver.obj
 0001:00001b20       ?_Get_first@?$_Compressed_pair@V?$allocator@U?$_List_node@U?$pair@$$CBV?$basic_string@DU?$char_traits@D@std@@V?$allocator@D@2@@std@@V?$shared_ptr@UNode@NetvarTree@@@2@@std@@PAX@std@@@std@@V?$_List_val@U?$_List_simple_types@U?$pair@$$CBV?$basic_string@DU?$char_traits@D@std@@V?$allocator@D@2@@std@@V?$shared_ptr@UNode@NetvarTree@@@2@@std@@@std@@@2@$00@std@@QAEAAV?$allocator@U?$_List_node@U?$pair@$$CBV?$basic_string@DU?$char_traits@D@std@@V?$allocator@D@2@@std@@V?$shared_ptr@UNode@NetvarTree@@@2@@std@@PAX@std@@@2@XZ 10002b20 f i EnginePrediction.obj
 0001:00001b20       ?_Get_first@?$_Compressed_pair@V?$allocator@U?$_List_node@U?$pair@$$CBV?$basic_string@DU?$char_traits@D@std@@V?$allocator@D@2@@std@@V?$shared_ptr@UNode@NetvarTree@@@2@@std@@PAX@std@@@std@@V?$_List_val@U?$_List_simple_types@U?$pair@$$CBV?$basic_string@DU?$char_traits@D@std@@V?$allocator@D@2@@std@@V?$shared_ptr@UNode@NetvarTree@@@2@@std@@@std@@@2@$00@std@@QBEABV?$allocator@U?$_List_node@U?$pair@$$CBV?$basic_string@DU?$char_traits@D@std@@V?$allocator@D@2@@std@@V?$shared_ptr@UNode@NetvarTree@@@2@@std@@PAX@std@@@2@XZ 10002b20 f i EnginePrediction.obj
 0001:00001b20       ?_Get_first@?$_Compressed_pair@V?$allocator@ULegitPlayerRecords@@@std@@V?$_Deque_val@U?$_Deque_simple_types@ULegitPlayerRecords@@@std@@@2@$00@std@@QAEAAV?$allocator@ULegitPlayerRecords@@@2@XZ 10002b20 f i Legitbot.obj
 0001:00001b20       ?_Get_first@?$_Compressed_pair@V?$allocator@ULegitPlayerRecords@@@std@@V?$_Deque_val@U?$_Deque_simple_types@ULegitPlayerRecords@@@std@@@2@$00@std@@QBEABV?$allocator@ULegitPlayerRecords@@@2@XZ 10002b20 f i Legitbot.obj
 0001:00001b20       ?_Get_first@?$_Compressed_pair@V?$allocator@UPlayerRecords@@@std@@V?$_Deque_val@U?$_Deque_simple_types@UPlayerRecords@@@std@@@2@$00@std@@QAEAAV?$allocator@UPlayerRecords@@@2@XZ 10002b20 f i LagComp.obj
 0001:00001b20       ?_Get_first@?$_Compressed_pair@V?$allocator@UPlayerRecords@@@std@@V?$_Deque_val@U?$_Deque_simple_types@UPlayerRecords@@@std@@@2@$00@std@@QBEABV?$allocator@UPlayerRecords@@@2@XZ 10002b20 f i LagComp.obj
 0001:00001b20       ?_Get_first@?$_Compressed_pair@V?$allocator@V?$_List_unchecked_iterator@V?$_List_val@U?$_List_simple_types@U?$pair@$$CBII@std@@@std@@@std@@@std@@@std@@V?$_Vector_val@U?$_Simple_types@V?$_List_unchecked_iterator@V?$_List_val@U?$_List_simple_types@U?$pair@$$CBII@std@@@std@@@std@@@std@@@std@@@2@$00@std@@QAEAAV?$allocator@V?$_List_unchecked_iterator@V?$_List_val@U?$_List_simple_types@U?$pair@$$CBII@std@@@std@@@std@@@std@@@2@XZ 10002b20 f i EnginePrediction.obj
 0001:00001b20       ?_Get_first@?$_Compressed_pair@V?$allocator@V?$_List_unchecked_iterator@V?$_List_val@U?$_List_simple_types@U?$pair@$$CBII@std@@@std@@@std@@@std@@@std@@V?$_Vector_val@U?$_Simple_types@V?$_List_unchecked_iterator@V?$_List_val@U?$_List_simple_types@U?$pair@$$CBII@std@@@std@@@std@@@std@@@std@@@2@$00@std@@QBEABV?$allocator@V?$_List_unchecked_iterator@V?$_List_val@U?$_List_simple_types@U?$pair@$$CBII@std@@@std@@@std@@@std@@@2@XZ 10002b20 f i Resolver.obj
 0001:00001b20       ?_Get_first@?$_Compressed_pair@V?$allocator@V?$_List_unchecked_iterator@V?$_List_val@U?$_List_simple_types@U?$pair@$$CBV?$basic_string@DU?$char_traits@D@std@@V?$allocator@D@2@@std@@V?$shared_ptr@UNode@NetvarTree@@@2@@std@@@std@@@std@@@std@@@std@@V?$_Vector_val@U?$_Simple_types@V?$_List_unchecked_iterator@V?$_List_val@U?$_List_simple_types@U?$pair@$$CBV?$basic_string@DU?$char_traits@D@std@@V?$allocator@D@2@@std@@V?$shared_ptr@UNode@NetvarTree@@@2@@std@@@std@@@std@@@std@@@std@@@2@$00@std@@QAEAAV?$allocator@V?$_List_unchecked_iterator@V?$_List_val@U?$_List_simple_types@U?$pair@$$CBV?$basic_string@DU?$char_traits@D@std@@V?$allocator@D@2@@std@@V?$shared_ptr@UNode@NetvarTree@@@2@@std@@@std@@@std@@@std@@@2@XZ 10002b20 f i EnginePrediction.obj
 0001:00001b20       ?_Get_first@?$_Compressed_pair@V?$allocator@V?$_List_unchecked_iterator@V?$_List_val@U?$_List_simple_types@U?$pair@$$CBV?$basic_string@DU?$char_traits@D@std@@V?$allocator@D@2@@std@@V?$shared_ptr@UNode@NetvarTree@@@2@@std@@@std@@@std@@@std@@@std@@V?$_Vector_val@U?$_Simple_types@V?$_List_unchecked_iterator@V?$_List_val@U?$_List_simple_types@U?$pair@$$CBV?$basic_string@DU?$char_traits@D@std@@V?$allocator@D@2@@std@@V?$shared_ptr@UNode@NetvarTree@@@2@@std@@@std@@@std@@@std@@@std@@@2@$00@std@@QBEABV?$allocator@V?$_List_unchecked_iterator@V?$_List_val@U?$_List_simple_types@U?$pair@$$CBV?$basic_string@DU?$char_traits@D@std@@V?$allocator@D@2@@std@@V?$shared_ptr@UNode@NetvarTree@@@2@@std@@@std@@@std@@@std@@@2@XZ 10002b20 f i EnginePrediction.obj
 0001:00001b20       ?_Get_first@?$_Compressed_pair@V?$allocator@V?$basic_string@DU?$char_traits@D@std@@V?$allocator@D@2@@std@@@std@@V?$_Vector_val@U?$_Simple_types@V?$basic_string@DU?$char_traits@D@std@@V?$allocator@D@2@@std@@@std@@@2@$00@std@@QAEAAV?$allocator@V?$basic_string@DU?$char_traits@D@std@@V?$allocator@D@2@@std@@@2@XZ 10002b20 f i Menu.obj
 0001:00001b20       ?_Get_first@?$_Compressed_pair@V?$allocator@V?$basic_string@DU?$char_traits@D@std@@V?$allocator@D@2@@std@@@std@@V?$_Vector_val@U?$_Simple_types@V?$basic_string@DU?$char_traits@D@std@@V?$allocator@D@2@@std@@@std@@@2@$00@std@@QBEABV?$allocator@V?$basic_string@DU?$char_traits@D@std@@V?$allocator@D@2@@std@@@2@XZ 10002b20 f i Menu.obj
 0001:00001b20       ?_Get_max_bucket_size@?$_Uhash_compare@IU?$hash@I@std@@U?$equal_to@I@2@@std@@QAEAAMXZ 10002b20 f i EnginePrediction.obj
 0001:00001b20       ?_Get_max_bucket_size@?$_Uhash_compare@IU?$hash@I@std@@U?$equal_to@I@2@@std@@QBEABMXZ 10002b20 f i Resolver.obj
 0001:00001b20       ?_Get_max_bucket_size@?$_Uhash_compare@V?$basic_string@DU?$char_traits@D@std@@V?$allocator@D@2@@std@@U?$hash@V?$basic_string@DU?$char_traits@D@std@@V?$allocator@D@2@@std@@@2@U?$equal_to@V?$basic_string@DU?$char_traits@D@std@@V?$allocator@D@2@@std@@@2@@std@@QAEAAMXZ 10002b20 f i NetvarManager.obj
 0001:00001b20       ?_Get_max_bucket_size@?$_Uhash_compare@V?$basic_string@DU?$char_traits@D@std@@V?$allocator@D@2@@std@@U?$hash@V?$basic_string@DU?$char_traits@D@std@@V?$allocator@D@2@@std@@@2@U?$equal_to@V?$basic_string@DU?$char_traits@D@std@@V?$allocator@D@2@@std@@@2@@std@@QBEABMXZ 10002b20 f i EnginePrediction.obj
 0001:00001b20       ?data@?$array@D$0BP@@std@@QAEPADXZ 10002b20 f i Menu.obj
 0001:00001b20       ?data@?$array@D$0CH@@std@@QAEPADXZ 10002b20 f i Menu.obj
 0001:00001b30       ??0?$basic_string@DU?$char_traits@D@std@@V?$allocator@D@2@@std@@QAE@$$QAV01@@Z 10002b30 f i EnginePrediction.obj
 0001:00001b90       ??0?$basic_string@DU?$char_traits@D@std@@V?$allocator@D@2@@std@@QAE@QBD@Z 10002b90 f i EnginePrediction.obj
 0001:00001c10       ??0?$list@U?$pair@$$CBII@std@@V?$allocator@U?$pair@$$CBII@std@@@2@@std@@QAE@ABV?$allocator@U?$pair@$$CBII@std@@@1@@Z 10002c10 f i EnginePrediction.obj
 0001:00001c50       ??0?$shared_ptr@UNode@NetvarTree@@@std@@QAE@XZ 10002c50 f i EnginePrediction.obj
 0001:00001c70       ??0?$tuple@$$QAI@std@@QAE@$$QAV01@@Z 10002c70 f i Resolver.obj
 0001:00001c70       ??0?$tuple@$$QAV?$basic_string@DU?$char_traits@D@std@@V?$allocator@D@2@@std@@@std@@QAE@$$QAV01@@Z 10002c70 f i EnginePrediction.obj
 0001:00001ca0       ??0?$unordered_map@IIU?$hash@I@std@@U?$equal_to@I@2@V?$allocator@U?$pair@$$CBII@std@@@2@@std@@QAE@XZ 10002ca0 f i EnginePrediction.obj
 0001:00001ce0       ??0<lambda_1>@?1???R0?1???$_Floating_to_chars_general_precision@M@std@@YA?AUto_chars_result@1@PADQADMH@Z@QBE@XZ@QAE@ABI@Z 10002ce0 f i Hooks.obj
 0001:00001ce0       ??0CBaseHandle@@QAE@ABV0@@Z 10002ce0 f i EnginePrediction.obj
 0001:00001ce0       ??4_Iterator_base12@std@@QAEAAU01@ABU01@@Z 10002ce0 f i LagComp.obj
 0001:00001d00       ??0Vector2D@@QAE@MM@Z      10002d00 f i EnginePrediction.obj
 0001:00001d30       ??0_Bxty@?$_String_val@U?$_Simple_types@D@std@@@std@@QAE@XZ 10002d30 f i EnginePrediction.obj
 0001:00001d50       ??0_Fake_proxy_ptr_impl@std@@QAE@ABU_Fake_allocator@1@ABU_Container_base0@1@@Z 10002d50 f i EnginePrediction.obj
 0001:00001d60       ??0_Range_eraser@?$_Hash@V?$_Umap_traits@IIV?$_Uhash_compare@IU?$hash@I@std@@U?$equal_to@I@2@@std@@V?$allocator@U?$pair@$$CBII@std@@@2@$0A@@std@@@std@@QAE@AAV?$list@U?$pair@$$CBII@std@@V?$allocator@U?$pair@$$CBII@std@@@2@@2@QAU?$_List_node@U?$pair@$$CBII@std@@PAX@2@@Z 10002d60 f i Resolver.obj
 0001:00001d60       ??0_Range_eraser@?$_Hash@V?$_Umap_traits@V?$basic_string@DU?$char_traits@D@std@@V?$allocator@D@2@@std@@V?$shared_ptr@UNode@NetvarTree@@@2@V?$_Uhash_compare@V?$basic_string@DU?$char_traits@D@std@@V?$allocator@D@2@@std@@U?$hash@V?$basic_string@DU?$char_traits@D@std@@V?$allocator@D@2@@std@@@2@U?$equal_to@V?$basic_string@DU?$char_traits@D@std@@V?$allocator@D@2@@std@@@2@@2@V?$allocator@U?$pair@$$CBV?$basic_string@DU?$char_traits@D@std@@V?$allocator@D@2@@std@@V?$shared_ptr@UNode@NetvarTree@@@2@@std@@@2@$0A@@std@@@std@@QAE@AAV?$list@U?$pair@$$CBV?$basic_string@DU?$char_traits@D@std@@V?$allocator@D@2@@std@@V?$shared_ptr@UNode@NetvarTree@@@2@@std@@V?$allocator@U?$pair@$$CBV?$basic_string@DU?$char_traits@D@std@@V?$allocator@D@2@@std@@V?$shared_ptr@UNode@NetvarTree@@@2@@std@@@2@@2@QAU?$_List_node@U?$pair@$$CBV?$basic_string@DU?$char_traits@D@std@@V?$allocator@D@2@@std@@V?$shared_ptr@UNode@NetvarTree@@@2@@std@@PAX@2@@Z 10002d60 f i EnginePrediction.obj
 0001:00001d90       ??0bad_alloc@std@@AAE@QBD@Z 10002d90 f i EnginePrediction.obj
 0001:00001dc0       ??0bad_alloc@std@@QAE@ABV01@@Z 10002dc0 f i EnginePrediction.obj
 0001:00001df0       ??0bad_array_new_length@std@@QAE@ABV01@@Z 10002df0 f i EnginePrediction.obj
 0001:00001e20       ??0bad_array_new_length@std@@QAE@XZ 10002e20 f i EnginePrediction.obj
 0001:00001e50       ??0exception@std@@QAE@ABV01@@Z 10002e50 f i EnginePrediction.obj
 0001:00001e90       ??0exception@std@@QAE@QBDH@Z 10002e90 f i EnginePrediction.obj
 0001:00001ec0       ??1?$_Alloc_construct_ptr@V?$allocator@U?$_List_node@U?$pair@$$CBV?$basic_string@DU?$char_traits@D@std@@V?$allocator@D@2@@std@@V?$shared_ptr@UNode@NetvarTree@@@2@@std@@PAX@std@@@std@@@std@@QAE@XZ 10002ec0 f i EnginePrediction.obj
 0001:00001ef0       ??1?$_Compressed_pair@V?$allocator@D@std@@V?$_String_val@U?$_Simple_types@D@std@@@2@$00@std@@QAE@XZ 10002ef0 f i EnginePrediction.obj
 0001:00001f10       ??1?$_Hash@V?$_Umap_traits@IIV?$_Uhash_compare@IU?$hash@I@std@@U?$equal_to@I@2@@std@@V?$allocator@U?$pair@$$CBII@std@@@2@$0A@@std@@@std@@QAE@XZ 10002f10 f i EnginePrediction.obj
 0001:00001f40       ??1?$_Hash_vec@V?$allocator@V?$_List_unchecked_iterator@V?$_List_val@U?$_List_simple_types@U?$pair@$$CBII@std@@@std@@@std@@@std@@@std@@@std@@QAE@XZ 10002f40 f i EnginePrediction.obj
 0001:00001f40       ??1?$_Hash_vec@V?$allocator@V?$_List_unchecked_iterator@V?$_List_val@U?$_List_simple_types@U?$pair@$$CBV?$basic_string@DU?$char_traits@D@std@@V?$allocator@D@2@@std@@V?$shared_ptr@UNode@NetvarTree@@@2@@std@@@std@@@std@@@std@@@std@@@std@@QAE@XZ 10002f40 f i Hooks.obj
 0001:00001f60       ??1?$_List_node_emplace_op2@V?$allocator@U?$_List_node@U?$pair@$$CBV?$basic_string@DU?$char_traits@D@std@@V?$allocator@D@2@@std@@V?$shared_ptr@UNode@NetvarTree@@@2@@std@@PAX@std@@@std@@@std@@QAE@XZ 10002f60 f i EnginePrediction.obj
 0001:00001fe0       ??1?$_String_val@U?$_Simple_types@D@std@@@std@@QAE@XZ 10002fe0 f i EnginePrediction.obj
 0001:00002000       ??1?$_Uninitialized_backout@PAPAULegitPlayerRecords@@@std@@QAE@XZ 10003000 f i Legitbot.obj
 0001:00002000       ??1?$_Uninitialized_backout@PAPAUPlayerRecords@@@std@@QAE@XZ 10003000 f i LagComp.obj
 0001:00002000       ??1?$_Uninitialized_backout@PAV?$_List_unchecked_iterator@V?$_List_val@U?$_List_simple_types@U?$pair@$$CBII@std@@@std@@@std@@@std@@@std@@QAE@XZ 10003000 f i EnginePrediction.obj
 0001:00002000       ??1?$_Uninitialized_backout@PAV?$_List_unchecked_iterator@V?$_List_val@U?$_List_simple_types@U?$pair@$$CBV?$basic_string@DU?$char_traits@D@std@@V?$allocator@D@2@@std@@V?$shared_ptr@UNode@NetvarTree@@@2@@std@@@std@@@std@@@std@@@std@@QAE@XZ 10003000 f i EnginePrediction.obj
 0001:00002020       ??1?$basic_string@DU?$char_traits@D@std@@V?$allocator@D@2@@std@@QAE@XZ 10003020 f i EnginePrediction.obj
 0001:00002040       ??1?$list@U?$pair@$$CBII@std@@V?$allocator@U?$pair@$$CBII@std@@@2@@std@@QAE@XZ 10003040 f i EnginePrediction.obj
 0001:00002060       ??1?$pair@$$CBV?$basic_string@DU?$char_traits@D@std@@V?$allocator@D@2@@std@@V?$shared_ptr@UNode@NetvarTree@@@2@@std@@QAE@XZ 10003060 f i EnginePrediction.obj
 0001:00002080       ??1?$shared_ptr@UNode@NetvarTree@@@std@@QAE@XZ 10003080 f i EnginePrediction.obj
 0001:000020a0       ??1?$unordered_map@IIU?$hash@I@std@@U?$equal_to@I@2@V?$allocator@U?$pair@$$CBII@std@@@2@@std@@QAE@XZ 100030a0 f i EnginePrediction.obj
 0001:000020c0       ??1_Bxty@?$_String_val@U?$_Simple_types@D@std@@@std@@QAE@XZ 100030c0 f i EnginePrediction.obj
 0001:000020c0       ??1_Ref_count_base@std@@UAE@XZ 100030c0 f i NetvarManager.obj
 0001:000020c0       ?_Orphan_all@_Container_base0@std@@QAEXXZ 100030c0 f i EnginePrediction.obj
 0001:000020c0       ?_Orphan_all@_Container_base12@std@@QAEXXZ 100030c0 f i LagComp.obj
 0001:000020c0       ?_Orphan_non_end@?$_List_val@U?$_List_simple_types@U?$pair@$$CBII@std@@@std@@@std@@QAEXXZ 100030c0 f i Resolver.obj
 0001:000020c0       ?_Orphan_non_end@?$_List_val@U?$_List_simple_types@U?$pair@$$CBV?$basic_string@DU?$char_traits@D@std@@V?$allocator@D@2@@std@@V?$shared_ptr@UNode@NetvarTree@@@2@@std@@@std@@@std@@QAEXXZ 100030c0 f i EnginePrediction.obj
 0001:000020c0       ?_Release@_Fake_proxy_ptr_impl@std@@QAEXXZ 100030c0 f i EnginePrediction.obj
 0001:000020d0       ??1_Clear_guard@?$_Hash@V?$_Umap_traits@V?$basic_string@DU?$char_traits@D@std@@V?$allocator@D@2@@std@@V?$shared_ptr@UNode@NetvarTree@@@2@V?$_Uhash_compare@V?$basic_string@DU?$char_traits@D@std@@V?$allocator@D@2@@std@@U?$hash@V?$basic_string@DU?$char_traits@D@std@@V?$allocator@D@2@@std@@@2@U?$equal_to@V?$basic_string@DU?$char_traits@D@std@@V?$allocator@D@2@@std@@@2@@2@V?$allocator@U?$pair@$$CBV?$basic_string@DU?$char_traits@D@std@@V?$allocator@D@2@@std@@V?$shared_ptr@UNode@NetvarTree@@@2@@std@@@2@$0A@@std@@@std@@QAE@XZ 100030d0 f i EnginePrediction.obj
 0001:000020f0       ??1_Range_eraser@?$_Hash@V?$_Umap_traits@IIV?$_Uhash_compare@IU?$hash@I@std@@U?$equal_to@I@2@@std@@V?$allocator@U?$pair@$$CBII@std@@@2@$0A@@std@@@std@@QAE@XZ 100030f0 f i Resolver.obj
 0001:000020f0       ??1_Range_eraser@?$_Hash@V?$_Umap_traits@V?$basic_string@DU?$char_traits@D@std@@V?$allocator@D@2@@std@@V?$shared_ptr@UNode@NetvarTree@@@2@V?$_Uhash_compare@V?$basic_string@DU?$char_traits@D@std@@V?$allocator@D@2@@std@@U?$hash@V?$basic_string@DU?$char_traits@D@std@@V?$allocator@D@2@@std@@@2@U?$equal_to@V?$basic_string@DU?$char_traits@D@std@@V?$allocator@D@2@@std@@@2@@2@V?$allocator@U?$pair@$$CBV?$basic_string@DU?$char_traits@D@std@@V?$allocator@D@2@@std@@V?$shared_ptr@UNode@NetvarTree@@@2@@std@@@2@$0A@@std@@@std@@QAE@XZ 100030f0 f i EnginePrediction.obj
 0001:00002120       ??1bad_alloc@std@@UAE@XZ   10003120 f i EnginePrediction.obj
 0001:00002120       ??1bad_cast@std@@UAE@XZ    10003120 f i Hooks.obj
 0001:00002120       ??1runtime_error@std@@UAE@XZ 10003120 f i Hooks.obj
 0001:00002140       ??1bad_array_new_length@std@@UAE@XZ 10003140 f i EnginePrediction.obj
 0001:00002140       ??1format_error@std@@UAE@XZ 10003140 f i Hooks.obj
 0001:00002160       ??1exception@std@@UAE@XZ   10003160 f i EnginePrediction.obj
 0001:00002190       ??2@YAPAXIPAX@Z            10003190 f i EnginePrediction.obj
 0001:000021a0       ??8?$_List_unchecked_const_iterator@V?$_List_val@U?$_List_simple_types@U?$pair@$$CBII@std@@@std@@@std@@U_Iterator_base0@2@@std@@QBE_NABV01@@Z 100031a0 f i Resolver.obj
 0001:000021a0       ??8?$_List_unchecked_const_iterator@V?$_List_val@U?$_List_simple_types@U?$pair@$$CBV?$basic_string@DU?$char_traits@D@std@@V?$allocator@D@2@@std@@V?$shared_ptr@UNode@NetvarTree@@@2@@std@@@std@@@std@@U_Iterator_base0@2@@std@@QBE_NABV01@@Z 100031a0 f i EnginePrediction.obj
 0001:000021a0       ??8?$_String_view_iterator@U?$char_traits@D@std@@@std@@QBE_NABV01@@Z 100031a0 f i Hooks.obj
 0001:000021d0       ??A?$unordered_map@V?$basic_string@DU?$char_traits@D@std@@V?$allocator@D@2@@std@@V?$shared_ptr@UNode@NetvarTree@@@2@U?$hash@V?$basic_string@DU?$char_traits@D@std@@V?$allocator@D@2@@std@@@2@U?$equal_to@V?$basic_string@DU?$char_traits@D@std@@V?$allocator@D@2@@std@@@2@V?$allocator@U?$pair@$$CBV?$basic_string@DU?$char_traits@D@std@@V?$allocator@D@2@@std@@V?$shared_ptr@UNode@NetvarTree@@@2@@std@@@2@@std@@QAEAAV?$shared_ptr@UNode@NetvarTree@@@1@$$QAV?$basic_string@DU?$char_traits@D@std@@V?$allocator@D@2@@1@@Z 100031d0 f i EnginePrediction.obj
 0001:00002200       ??C?$unique_ptr@VNetvarTree@@U?$default_delete@VNetvarTree@@@std@@@std@@QBEPAVNetvarTree@@XZ 10003200 f i EnginePrediction.obj
 0001:00002200       ??C?$unique_ptr@VVMTHook@@U?$default_delete@VVMTHook@@@std@@@std@@QBEPAVVMTHook@@XZ 10003200 f i Hooks.obj
 0001:00002200       ??D?$_String_view_iterator@U?$char_traits@D@std@@@std@@QBEABDXZ 10003200 f i Hooks.obj
 0001:00002200       ?GetName@RecvProp@@QBEPBDXZ 10003200 f i NetvarManager.obj
 0001:00002200       ?_Unchecked_begin@?$basic_string_view@DU?$char_traits@D@std@@@std@@QBEPBDXZ 10003200 f i Hooks.obj
 0001:00002200       ?_Unwrapped@?$_Array_const_iterator@M$0BI@@std@@QBEPBMXZ 10003200 f i Hooks.obj
 0001:00002200       ?_Unwrapped@?$_Array_const_iterator@VAnimationLayer@@$0N@@std@@QBEPBVAnimationLayer@@XZ 10003200 f i Hooks.obj
 0001:00002200       ?_Unwrapped@?$_String_view_iterator@U?$char_traits@D@std@@@std@@QBEPBDXZ 10003200 f i Hooks.obj
 0001:00002200       ?begin@?$initializer_list@V?$basic_string@DU?$char_traits@D@std@@V?$allocator@D@2@@std@@@std@@QBEPBV?$basic_string@DU?$char_traits@D@std@@V?$allocator@D@2@@2@XZ 10003200 f i Menu.obj
 0001:00002200       ?data@?$basic_string_view@DU?$char_traits@D@std@@@std@@QBEPBDXZ 10003200 f i Hooks.obj
 0001:00002200       ?get@?$_Ptr_base@UNode@NetvarTree@@@std@@IBEPAUNode@NetvarTree@@XZ 10003200 f i EnginePrediction.obj
 0001:00002200       ?get@?$unique_ptr@$$BY0A@IU?$default_delete@$$BY0A@I@std@@@std@@QBEPAIXZ 10003200 f i Hooks.obj
 0001:00002210       ??D?$_List_unchecked_const_iterator@V?$_List_val@U?$_List_simple_types@U?$pair@$$CBII@std@@@std@@@std@@U_Iterator_base0@2@@std@@QBEABU?$pair@$$CBII@1@XZ 10003210 f i Resolver.obj
 0001:00002210       ??D?$_List_unchecked_const_iterator@V?$_List_val@U?$_List_simple_types@U?$pair@$$CBV?$basic_string@DU?$char_traits@D@std@@V?$allocator@D@2@@std@@V?$shared_ptr@UNode@NetvarTree@@@2@@std@@@std@@@std@@U_Iterator_base0@2@@std@@QBEABU?$pair@$$CBV?$basic_string@DU?$char_traits@D@std@@V?$allocator@D@2@@std@@V?$shared_ptr@UNode@NetvarTree@@@2@@1@XZ 10003210 f i EnginePrediction.obj
 0001:00002230       ??D?$_List_unchecked_iterator@V?$_List_val@U?$_List_simple_types@U?$pair@$$CBII@std@@@std@@@std@@@std@@QBEAAU?$pair@$$CBII@1@XZ 10003230 f i Resolver.obj
 0001:00002230       ??D?$_List_unchecked_iterator@V?$_List_val@U?$_List_simple_types@U?$pair@$$CBV?$basic_string@DU?$char_traits@D@std@@V?$allocator@D@2@@std@@V?$shared_ptr@UNode@NetvarTree@@@2@@std@@@std@@@std@@@std@@QBEAAU?$pair@$$CBV?$basic_string@DU?$char_traits@D@std@@V?$allocator@D@2@@std@@V?$shared_ptr@UNode@NetvarTree@@@2@@1@XZ 10003230 f i EnginePrediction.obj
 0001:00002250       ??E?$_List_unchecked_const_iterator@V?$_List_val@U?$_List_simple_types@U?$pair@$$CBII@std@@@std@@@std@@U_Iterator_base0@2@@std@@QAEAAV01@XZ 10003250 f i Resolver.obj
 0001:00002250       ??E?$_List_unchecked_const_iterator@V?$_List_val@U?$_List_simple_types@U?$pair@$$CBV?$basic_string@DU?$char_traits@D@std@@V?$allocator@D@2@@std@@V?$shared_ptr@UNode@NetvarTree@@@2@@std@@@std@@@std@@U_Iterator_base0@2@@std@@QAEAAV01@XZ 10003250 f i EnginePrediction.obj
 0001:00002270       ??E?$_List_unchecked_iterator@V?$_List_val@U?$_List_simple_types@U?$pair@$$CBII@std@@@std@@@std@@@std@@QAEAAV01@XZ 10003270 f i Resolver.obj
 0001:00002270       ??E?$_List_unchecked_iterator@V?$_List_val@U?$_List_simple_types@U?$pair@$$CBV?$basic_string@DU?$char_traits@D@std@@V?$allocator@D@2@@std@@V?$shared_ptr@UNode@NetvarTree@@@2@@std@@@std@@@std@@@std@@QAEAAV01@XZ 10003270 f i EnginePrediction.obj
 0001:00002290       ??F?$_List_unchecked_const_iterator@V?$_List_val@U?$_List_simple_types@U?$pair@$$CBII@std@@@std@@@std@@U_Iterator_base0@2@@std@@QAEAAV01@XZ 10003290 f i Resolver.obj
 0001:00002290       ??F?$_List_unchecked_const_iterator@V?$_List_val@U?$_List_simple_types@U?$pair@$$CBV?$basic_string@DU?$char_traits@D@std@@V?$allocator@D@2@@std@@V?$shared_ptr@UNode@NetvarTree@@@2@@std@@@std@@@std@@U_Iterator_base0@2@@std@@QAEAAV01@XZ 10003290 f i EnginePrediction.obj
 0001:000022b0       ??R?$_Conditionally_enabled_hash@V?$basic_string@DU?$char_traits@D@std@@V?$allocator@D@2@@std@@$00@std@@SAIABV?$basic_string@DU?$char_traits@D@std@@V?$allocator@D@2@@1@@Z 100032b0 f i EnginePrediction.obj
 0001:000022d0       ??R?$equal_to@V?$basic_string@DU?$char_traits@D@std@@V?$allocator@D@2@@std@@@std@@QBE_NABV?$basic_string@DU?$char_traits@D@std@@V?$allocator@D@2@@1@0@Z 100032d0 f i EnginePrediction.obj
 0001:000022f0       ??_G?$pair@$$CBV?$basic_string@DU?$char_traits@D@std@@V?$allocator@D@2@@std@@V?$shared_ptr@UNode@NetvarTree@@@2@@std@@QAEPAXI@Z 100032f0 f i EnginePrediction.obj
 0001:00002320       ??_Ebad_alloc@std@@UAEPAXI@Z 10003320 f i EnginePrediction.obj
 0001:00002320       ??_Ebad_cast@std@@UAEPAXI@Z 10003320 f i Hooks.obj
 0001:00002320       ??_Eruntime_error@std@@UAEPAXI@Z 10003320 f i Hooks.obj
 0001:00002320       ??_Gbad_alloc@std@@UAEPAXI@Z 10003320 f i EnginePrediction.obj
 0001:00002320       ??_Gbad_cast@std@@UAEPAXI@Z 10003320 f i Hooks.obj
 0001:00002320       ??_Gruntime_error@std@@UAEPAXI@Z 10003320 f i Hooks.obj
 0001:00002350       ??_Ebad_array_new_length@std@@UAEPAXI@Z 10003350 f i EnginePrediction.obj
 0001:00002350       ??_Eformat_error@std@@UAEPAXI@Z 10003350 f i Hooks.obj
 0001:00002350       ??_Gbad_array_new_length@std@@UAEPAXI@Z 10003350 f i EnginePrediction.obj
 0001:00002350       ??_Gformat_error@std@@UAEPAXI@Z 10003350 f i Hooks.obj
 0001:00002380       ??_Eexception@std@@UAEPAXI@Z 10003380 f i EnginePrediction.obj
 0001:00002380       ??_Gexception@std@@UAEPAXI@Z 10003380 f i EnginePrediction.obj
 0001:000023b0       ??_H@YGXPAXIIP6EPAX0@Z@Z   100033b0 f i EnginePrediction.obj
 0001:000023f0       ?AccuracyPenalty@C_BaseCombatWeapon@@QAEXXZ 100033f0 f i EnginePrediction.obj
 0001:00002420       ?EndEnginePred@engine_prediction@@YAXXZ 10003420 f   EnginePrediction.obj
 0001:000024f0       ?FindSignature@Utils@@SAIPBD0@Z 100034f0 f i EnginePrediction.obj
 0001:00002730       ?GetActiveWeapon@C_BaseEntity@@QAEPAVC_BaseCombatWeapon@@XZ 10003730 f i EnginePrediction.obj
 0001:00002820       ?GetHealth@C_BaseEntity@@QAEHXZ 10003820 f i EnginePrediction.obj
 0001:000028e0       ?GetLifeState@C_BaseEntity@@QAE_NXZ 100038e0 f i EnginePrediction.obj
 0001:000029a0       ?GetOffsetRecursive@NetvarTree@@CAHAAV?$unordered_map@V?$basic_string@DU?$char_traits@D@std@@V?$allocator@D@2@@std@@V?$shared_ptr@UNode@NetvarTree@@@2@U?$hash@V?$basic_string@DU?$char_traits@D@std@@V?$allocator@D@2@@std@@@2@U?$equal_to@V?$basic_string@DU?$char_traits@D@std@@V?$allocator@D@2@@std@@@2@V?$allocator@U?$pair@$$CBV?$basic_string@DU?$char_traits@D@std@@V?$allocator@D@2@@std@@V?$shared_ptr@UNode@NetvarTree@@@2@@std@@@2@@std@@HPBD@Z 100039a0 f i EnginePrediction.obj
 0001:00002a30       ?GetTickBase@C_BaseEntity@@QAEHXZ 10003a30 f i EnginePrediction.obj
 0001:00002af0       ?IsAlive@C_BaseEntity@@QAE_NXZ 10003af0 f i EnginePrediction.obj
 0001:00002b30       ?RunEnginePred@engine_prediction@@YAXXZ 10003b30 f   EnginePrediction.obj
 0001:00002d70       ?SetCurrentCommand@C_BaseEntity@@QAEXPAVCUserCmd@@@Z 10003d70 f i EnginePrediction.obj
 0001:00002e30       ?SetHost@IMoveHelper@@QAEXPAVC_BaseEntity@@@Z 10003e30 f i EnginePrediction.obj
 0001:00002e50       ?_Activate_SSO_buffer@?$_String_val@U?$_Simple_types@D@std@@@std@@QAEXXZ 10003e50 f i EnginePrediction.obj
 0001:00002e90       ?_Adjust_manually_vector_aligned@std@@YAXAAPAXAAI@Z 10003e90 f i EnginePrediction.obj
 0001:00002f00       ?_Adopt@_Iterator_base0@std@@QAEXPBX@Z 10003f00 f i EnginePrediction.obj
 0001:00002f00       ?_Alloc_proxy@_Container_base0@std@@QAEXABU_Fake_allocator@2@@Z 10003f00 f i EnginePrediction.obj
 0001:00002f00       ?_Compat@?$_Deque_const_iterator@V?$_Deque_val@U?$_Deque_simple_types@ULegitPlayerRecords@@@std@@@std@@@std@@QBEXABV12@@Z 10003f00 f i Legitbot.obj
 0001:00002f00       ?_Compat@?$_Deque_const_iterator@V?$_Deque_val@U?$_Deque_simple_types@UPlayerRecords@@@std@@@std@@@std@@QBEXABV12@@Z 10003f00 f i LagComp.obj
 0001:00002f00       ?_Swap_proxy_and_iterators@_Container_base0@std@@QAEXAAU12@@Z 10003f00 f i EnginePrediction.obj
 0001:00002f10       ?_Alloc_sentinel_and_proxy@?$list@U?$pair@$$CBII@std@@V?$allocator@U?$pair@$$CBII@std@@@2@@std@@AAEXXZ 10003f10 f i EnginePrediction.obj
 0001:00002f90       ?_Allocate@?$_Alloc_construct_ptr@V?$allocator@U?$_List_node@U?$pair@$$CBV?$basic_string@DU?$char_traits@D@std@@V?$allocator@D@2@@std@@V?$shared_ptr@UNode@NetvarTree@@@2@@std@@PAX@std@@@std@@@std@@QAEXXZ 10003f90 f i EnginePrediction.obj
 0001:00002fc0       ?_Allocate@_Default_allocate_traits@std@@SAPAXI@Z 10003fc0 f i EnginePrediction.obj
 0001:00002fe0       ?_Assign_grow@?$_Hash_vec@V?$allocator@V?$_List_unchecked_iterator@V?$_List_val@U?$_List_simple_types@U?$pair@$$CBII@std@@@std@@@std@@@std@@@std@@@std@@QAEXIV?$_List_unchecked_iterator@V?$_List_val@U?$_List_simple_types@U?$pair@$$CBII@std@@@std@@@std@@@2@@Z 10003fe0 f i EnginePrediction.obj
 0001:00002fe0       ?_Assign_grow@?$_Hash_vec@V?$allocator@V?$_List_unchecked_iterator@V?$_List_val@U?$_List_simple_types@U?$pair@$$CBV?$basic_string@DU?$char_traits@D@std@@V?$allocator@D@2@@std@@V?$shared_ptr@UNode@NetvarTree@@@2@@std@@@std@@@std@@@std@@@std@@@std@@QAEXIV?$_List_unchecked_iterator@V?$_List_val@U?$_List_simple_types@U?$pair@$$CBV?$basic_string@DU?$char_traits@D@std@@V?$allocator@D@2@@std@@V?$shared_ptr@UNode@NetvarTree@@@2@@std@@@std@@@std@@@2@@Z 10003fe0 f i EnginePrediction.obj
 0001:000030b0       ?_Bump_erased@_Range_eraser@?$_Hash@V?$_Umap_traits@V?$basic_string@DU?$char_traits@D@std@@V?$allocator@D@2@@std@@V?$shared_ptr@UNode@NetvarTree@@@2@V?$_Uhash_compare@V?$basic_string@DU?$char_traits@D@std@@V?$allocator@D@2@@std@@U?$hash@V?$basic_string@DU?$char_traits@D@std@@V?$allocator@D@2@@std@@@2@U?$equal_to@V?$basic_string@DU?$char_traits@D@std@@V?$allocator@D@2@@std@@@2@@2@V?$allocator@U?$pair@$$CBV?$basic_string@DU?$char_traits@D@std@@V?$allocator@D@2@@std@@V?$shared_ptr@UNode@NetvarTree@@@2@@std@@@2@$0A@@std@@@std@@QAEXXZ 100040b0 f i EnginePrediction.obj
 0001:00003100       ?_Calculate_growth@?$basic_string@DU?$char_traits@D@std@@V?$allocator@D@2@@std@@CAIIII@Z 10004100 f i EnginePrediction.obj
 0001:00003160       ?_Ceiling_of_log_2@std@@YAKI@Z 10004160 f i EnginePrediction.obj
 0001:00003180       ?_Check_max_size@?$_Hash@V?$_Umap_traits@V?$basic_string@DU?$char_traits@D@std@@V?$allocator@D@2@@std@@V?$shared_ptr@UNode@NetvarTree@@@2@V?$_Uhash_compare@V?$basic_string@DU?$char_traits@D@std@@V?$allocator@D@2@@std@@U?$hash@V?$basic_string@DU?$char_traits@D@std@@V?$allocator@D@2@@std@@@2@U?$equal_to@V?$basic_string@DU?$char_traits@D@std@@V?$allocator@D@2@@std@@@2@@2@V?$allocator@U?$pair@$$CBV?$basic_string@DU?$char_traits@D@std@@V?$allocator@D@2@@std@@V?$shared_ptr@UNode@NetvarTree@@@2@@std@@@2@$0A@@std@@@std@@IBEXXZ 10004180 f i EnginePrediction.obj
 0001:000031c0       ?_Check_rehash_required_1@?$_Hash@V?$_Umap_traits@IIV?$_Uhash_compare@IU?$hash@I@std@@U?$equal_to@I@2@@std@@V?$allocator@U?$pair@$$CBII@std@@@2@$0A@@std@@@std@@IBE_NXZ 100041c0 f i Resolver.obj
 0001:000031c0       ?_Check_rehash_required_1@?$_Hash@V?$_Umap_traits@V?$basic_string@DU?$char_traits@D@std@@V?$allocator@D@2@@std@@V?$shared_ptr@UNode@NetvarTree@@@2@V?$_Uhash_compare@V?$basic_string@DU?$char_traits@D@std@@V?$allocator@D@2@@std@@U?$hash@V?$basic_string@DU?$char_traits@D@std@@V?$allocator@D@2@@std@@@2@U?$equal_to@V?$basic_string@DU?$char_traits@D@std@@V?$allocator@D@2@@std@@@2@@2@V?$allocator@U?$pair@$$CBV?$basic_string@DU?$char_traits@D@std@@V?$allocator@D@2@@std@@V?$shared_ptr@UNode@NetvarTree@@@2@@std@@@2@$0A@@std@@@std@@IBE_NXZ 100041c0 f i EnginePrediction.obj
 0001:00003270       ?_Deallocate_for_capacity@?$basic_string@DU?$char_traits@D@std@@V?$allocator@D@2@@std@@CAXAAV?$allocator@D@2@QADI@Z 10004270 f i EnginePrediction.obj
 0001:00003290       ?_Decref@?$_Ptr_base@UNode@NetvarTree@@@std@@IAEXXZ 10004290 f i EnginePrediction.obj
 0001:000032b0       ?_Decref@_Ref_count_base@std@@QAEXXZ 100042b0 f i EnginePrediction.obj
 0001:000032e0       ?_Decwref@_Ref_count_base@std@@QAEXXZ 100042e0 f i EnginePrediction.obj
 0001:00003310       ?_Desired_grow_bucket_count@?$_Hash@V?$_Umap_traits@V?$basic_string@DU?$char_traits@D@std@@V?$allocator@D@2@@std@@V?$shared_ptr@UNode@NetvarTree@@@2@V?$_Uhash_compare@V?$basic_string@DU?$char_traits@D@std@@V?$allocator@D@2@@std@@U?$hash@V?$basic_string@DU?$char_traits@D@std@@V?$allocator@D@2@@std@@@2@U?$equal_to@V?$basic_string@DU?$char_traits@D@std@@V?$allocator@D@2@@std@@@2@@2@V?$allocator@U?$pair@$$CBV?$basic_string@DU?$char_traits@D@std@@V?$allocator@D@2@@std@@V?$shared_ptr@UNode@NetvarTree@@@2@@std@@@2@$0A@@std@@@std@@IBEII@Z 10004310 f i EnginePrediction.obj
 0001:00003380       ?_Do_hash@?$hash@V?$basic_string@DU?$char_traits@D@std@@V?$allocator@D@2@@std@@@std@@SAIABV?$basic_string@DU?$char_traits@D@std@@V?$allocator@D@2@@2@@Z 10004380 f i EnginePrediction.obj
 0001:000033b0       ?_Equal@?$basic_string@DU?$char_traits@D@std@@V?$allocator@D@2@@std@@QBE_NABV12@@Z 100043b0 f i EnginePrediction.obj
 0001:00003400       ?_Floor_of_log_2@std@@YAKI@Z 10004400 f i EnginePrediction.obj
 0001:00003420       ?_Fnv1a_append_bytes@std@@YAIIQBEI@Z 10004420 f i EnginePrediction.obj
 0001:00003460       ?_Forced_rehash@?$_Hash@V?$_Umap_traits@V?$basic_string@DU?$char_traits@D@std@@V?$allocator@D@2@@std@@V?$shared_ptr@UNode@NetvarTree@@@2@V?$_Uhash_compare@V?$basic_string@DU?$char_traits@D@std@@V?$allocator@D@2@@std@@U?$hash@V?$basic_string@DU?$char_traits@D@std@@V?$allocator@D@2@@std@@@2@U?$equal_to@V?$basic_string@DU?$char_traits@D@std@@V?$allocator@D@2@@std@@@2@@2@V?$allocator@U?$pair@$$CBV?$basic_string@DU?$char_traits@D@std@@V?$allocator@D@2@@std@@V?$shared_ptr@UNode@NetvarTree@@@2@@std@@@2@$0A@@std@@@std@@IAEXI@Z 10004460 f i EnginePrediction.obj
 0001:000036c0       ?_Getal@?$basic_string@DU?$char_traits@D@std@@V?$allocator@D@2@@std@@AAEAAV?$allocator@D@2@XZ 100046c0 f i EnginePrediction.obj
 0001:000036c0       ?_Getal@?$basic_string@DU?$char_traits@D@std@@V?$allocator@D@2@@std@@ABEABV?$allocator@D@2@XZ 100046c0 f i EnginePrediction.obj
 0001:000036c0       ?_Getal@?$deque@ULegitPlayerRecords@@V?$allocator@ULegitPlayerRecords@@@std@@@std@@AAEAAV?$allocator@ULegitPlayerRecords@@@2@XZ 100046c0 f i Legitbot.obj
 0001:000036c0       ?_Getal@?$deque@ULegitPlayerRecords@@V?$allocator@ULegitPlayerRecords@@@std@@@std@@ABEABV?$allocator@ULegitPlayerRecords@@@2@XZ 100046c0 f i Legitbot.obj
 0001:000036c0       ?_Getal@?$deque@UPlayerRecords@@V?$allocator@UPlayerRecords@@@std@@@std@@AAEAAV?$allocator@UPlayerRecords@@@2@XZ 100046c0 f i LagComp.obj
 0001:000036c0       ?_Getal@?$deque@UPlayerRecords@@V?$allocator@UPlayerRecords@@@std@@@std@@ABEABV?$allocator@UPlayerRecords@@@2@XZ 100046c0 f i LagComp.obj
 0001:000036c0       ?_Getal@?$list@U?$pair@$$CBII@std@@V?$allocator@U?$pair@$$CBII@std@@@2@@std@@AAEAAV?$allocator@U?$_List_node@U?$pair@$$CBII@std@@PAX@std@@@2@XZ 100046c0 f i EnginePrediction.obj
 0001:000036c0       ?_Getal@?$list@U?$pair@$$CBII@std@@V?$allocator@U?$pair@$$CBII@std@@@2@@std@@ABEABV?$allocator@U?$_List_node@U?$pair@$$CBII@std@@PAX@std@@@2@XZ 100046c0 f i Resolver.obj
 0001:000036c0       ?_Getal@?$list@U?$pair@$$CBV?$basic_string@DU?$char_traits@D@std@@V?$allocator@D@2@@std@@V?$shared_ptr@UNode@NetvarTree@@@2@@std@@V?$allocator@U?$pair@$$CBV?$basic_string@DU?$char_traits@D@std@@V?$allocator@D@2@@std@@V?$shared_ptr@UNode@NetvarTree@@@2@@std@@@2@@std@@AAEAAV?$allocator@U?$_List_node@U?$pair@$$CBV?$basic_string@DU?$char_traits@D@std@@V?$allocator@D@2@@std@@V?$shared_ptr@UNode@NetvarTree@@@2@@std@@PAX@std@@@2@XZ 100046c0 f i EnginePrediction.obj
 0001:000036c0       ?_Getal@?$list@U?$pair@$$CBV?$basic_string@DU?$char_traits@D@std@@V?$allocator@D@2@@std@@V?$shared_ptr@UNode@NetvarTree@@@2@@std@@V?$allocator@U?$pair@$$CBV?$basic_string@DU?$char_traits@D@std@@V?$allocator@D@2@@std@@V?$shared_ptr@UNode@NetvarTree@@@2@@std@@@2@@std@@ABEABV?$allocator@U?$_List_node@U?$pair@$$CBV?$basic_string@DU?$char_traits@D@std@@V?$allocator@D@2@@std@@V?$shared_ptr@UNode@NetvarTree@@@2@@std@@PAX@std@@@2@XZ 100046c0 f i EnginePrediction.obj
 0001:000036c0       ?_Getal@?$vector@HV?$allocator@H@std@@@std@@AAEAAV?$allocator@H@2@XZ 100046c0 f i Aimbot.obj
 0001:000036c0       ?_Getal@?$vector@HV?$allocator@H@std@@@std@@ABEABV?$allocator@H@2@XZ 100046c0 f i Aimbot.obj
 0001:000036c0       ?_Getal@?$vector@PAV?$ConfigValue@H@@V?$allocator@PAV?$ConfigValue@H@@@std@@@std@@AAEAAV?$allocator@PAV?$ConfigValue@H@@@2@XZ 100046c0 f i TGFCfg.obj
 0001:000036c0       ?_Getal@?$vector@PAV?$ConfigValue@H@@V?$allocator@PAV?$ConfigValue@H@@@std@@@std@@ABEABV?$allocator@PAV?$ConfigValue@H@@@2@XZ 100046c0 f i TGFCfg.obj
 0001:000036c0       ?_Getal@?$vector@PAV?$ConfigValue@M@@V?$allocator@PAV?$ConfigValue@M@@@std@@@std@@AAEAAV?$allocator@PAV?$ConfigValue@M@@@2@XZ 100046c0 f i TGFCfg.obj
 0001:000036c0       ?_Getal@?$vector@PAV?$ConfigValue@M@@V?$allocator@PAV?$ConfigValue@M@@@std@@@std@@ABEABV?$allocator@PAV?$ConfigValue@M@@@2@XZ 100046c0 f i TGFCfg.obj
 0001:000036c0       ?_Getal@?$vector@PAV?$ConfigValue@_N@@V?$allocator@PAV?$ConfigValue@_N@@@std@@@std@@AAEAAV?$allocator@PAV?$ConfigValue@_N@@@2@XZ 100046c0 f i TGFCfg.obj
 0001:000036c0       ?_Getal@?$vector@PAV?$ConfigValue@_N@@V?$allocator@PAV?$ConfigValue@_N@@@std@@@std@@ABEABV?$allocator@PAV?$ConfigValue@_N@@@2@XZ 100046c0 f i TGFCfg.obj
 0001:000036c0       ?_Getal@?$vector@V?$basic_string@DU?$char_traits@D@std@@V?$allocator@D@2@@std@@V?$allocator@V?$basic_string@DU?$char_traits@D@std@@V?$allocator@D@2@@std@@@2@@std@@AAEAAV?$allocator@V?$basic_string@DU?$char_traits@D@std@@V?$allocator@D@2@@std@@@2@XZ 100046c0 f i Menu.obj
 0001:000036c0       ?_Getal@?$vector@V?$basic_string@DU?$char_traits@D@std@@V?$allocator@D@2@@std@@V?$allocator@V?$basic_string@DU?$char_traits@D@std@@V?$allocator@D@2@@std@@@2@@std@@ABEABV?$allocator@V?$basic_string@DU?$char_traits@D@std@@V?$allocator@D@2@@std@@@2@XZ 100046c0 f i Menu.obj
 0001:000036c0       ?_Max_bucket_size@?$_Hash@V?$_Umap_traits@IIV?$_Uhash_compare@IU?$hash@I@std@@U?$equal_to@I@2@@std@@V?$allocator@U?$pair@$$CBII@std@@@2@$0A@@std@@@std@@IAEAAMXZ 100046c0 f i EnginePrediction.obj
 0001:000036c0       ?_Max_bucket_size@?$_Hash@V?$_Umap_traits@IIV?$_Uhash_compare@IU?$hash@I@std@@U?$equal_to@I@2@@std@@V?$allocator@U?$pair@$$CBII@std@@@2@$0A@@std@@@std@@IBEABMXZ 100046c0 f i Resolver.obj
 0001:000036c0       ?_Max_bucket_size@?$_Hash@V?$_Umap_traits@V?$basic_string@DU?$char_traits@D@std@@V?$allocator@D@2@@std@@V?$shared_ptr@UNode@NetvarTree@@@2@V?$_Uhash_compare@V?$basic_string@DU?$char_traits@D@std@@V?$allocator@D@2@@std@@U?$hash@V?$basic_string@DU?$char_traits@D@std@@V?$allocator@D@2@@std@@@2@U?$equal_to@V?$basic_string@DU?$char_traits@D@std@@V?$allocator@D@2@@std@@@2@@2@V?$allocator@U?$pair@$$CBV?$basic_string@DU?$char_traits@D@std@@V?$allocator@D@2@@std@@V?$shared_ptr@UNode@NetvarTree@@@2@@std@@@2@$0A@@std@@@std@@IAEAAMXZ 100046c0 f i NetvarManager.obj
 0001:000036c0       ?_Max_bucket_size@?$_Hash@V?$_Umap_traits@V?$basic_string@DU?$char_traits@D@std@@V?$allocator@D@2@@std@@V?$shared_ptr@UNode@NetvarTree@@@2@V?$_Uhash_compare@V?$basic_string@DU?$char_traits@D@std@@V?$allocator@D@2@@std@@U?$hash@V?$basic_string@DU?$char_traits@D@std@@V?$allocator@D@2@@std@@@2@U?$equal_to@V?$basic_string@DU?$char_traits@D@std@@V?$allocator@D@2@@std@@@2@@2@V?$allocator@U?$pair@$$CBV?$basic_string@DU?$char_traits@D@std@@V?$allocator@D@2@@std@@V?$shared_ptr@UNode@NetvarTree@@@2@@std@@@2@$0A@@std@@@std@@IBEABMXZ 100046c0 f i EnginePrediction.obj
 0001:000036e0       ?_Insert_new_node_before@?$_Hash@V?$_Umap_traits@IIV?$_Uhash_compare@IU?$hash@I@std@@U?$equal_to@I@2@@std@@V?$allocator@U?$pair@$$CBII@std@@@2@$0A@@std@@@std@@IAEPAU?$_List_node@U?$pair@$$CBII@std@@PAX@2@IQAU32@0@Z 100046e0 f i Resolver.obj
 0001:000036e0       ?_Insert_new_node_before@?$_Hash@V?$_Umap_traits@V?$basic_string@DU?$char_traits@D@std@@V?$allocator@D@2@@std@@V?$shared_ptr@UNode@NetvarTree@@@2@V?$_Uhash_compare@V?$basic_string@DU?$char_traits@D@std@@V?$allocator@D@2@@std@@U?$hash@V?$basic_string@DU?$char_traits@D@std@@V?$allocator@D@2@@std@@@2@U?$equal_to@V?$basic_string@DU?$char_traits@D@std@@V?$allocator@D@2@@std@@@2@@2@V?$allocator@U?$pair@$$CBV?$basic_string@DU?$char_traits@D@std@@V?$allocator@D@2@@std@@V?$shared_ptr@UNode@NetvarTree@@@2@@std@@@2@$0A@@std@@@std@@IAEPAU?$_List_node@U?$pair@$$CBV?$basic_string@DU?$char_traits@D@std@@V?$allocator@D@2@@std@@V?$shared_ptr@UNode@NetvarTree@@@2@@std@@PAX@2@IQAU32@0@Z 100046e0 f i EnginePrediction.obj
 0001:000037c0       ?_Large_mode_engaged@?$_String_val@U?$_Simple_types@D@std@@@std@@QBE_NXZ 100047c0 f i EnginePrediction.obj
 0001:000037f0       ?_Min_load_factor_buckets@?$_Hash@V?$_Umap_traits@IIV?$_Uhash_compare@IU?$hash@I@std@@U?$equal_to@I@2@@std@@V?$allocator@U?$pair@$$CBII@std@@@2@$0A@@std@@@std@@IBEII@Z 100047f0 f i Resolver.obj
 0001:000037f0       ?_Min_load_factor_buckets@?$_Hash@V?$_Umap_traits@V?$basic_string@DU?$char_traits@D@std@@V?$allocator@D@2@@std@@V?$shared_ptr@UNode@NetvarTree@@@2@V?$_Uhash_compare@V?$basic_string@DU?$char_traits@D@std@@V?$allocator@D@2@@std@@U?$hash@V?$basic_string@DU?$char_traits@D@std@@V?$allocator@D@2@@std@@@2@U?$equal_to@V?$basic_string@DU?$char_traits@D@std@@V?$allocator@D@2@@std@@@2@@2@V?$allocator@U?$pair@$$CBV?$basic_string@DU?$char_traits@D@std@@V?$allocator@D@2@@std@@V?$shared_ptr@UNode@NetvarTree@@@2@@std@@@2@$0A@@std@@@std@@IBEII@Z 100047f0 f i EnginePrediction.obj
 0001:00003860       ?_Myptr@?$_String_val@U?$_Simple_types@D@std@@@std@@QAEPADXZ 10004860 f i Hooks.obj
 0001:00003860       ?_Myptr@?$_String_val@U?$_Simple_types@D@std@@@std@@QBEPBDXZ 10004860 f i EnginePrediction.obj
 0001:000038a0       ?_Rehash_for_1@?$_Hash@V?$_Umap_traits@V?$basic_string@DU?$char_traits@D@std@@V?$allocator@D@2@@std@@V?$shared_ptr@UNode@NetvarTree@@@2@V?$_Uhash_compare@V?$basic_string@DU?$char_traits@D@std@@V?$allocator@D@2@@std@@U?$hash@V?$basic_string@DU?$char_traits@D@std@@V?$allocator@D@2@@std@@@2@U?$equal_to@V?$basic_string@DU?$char_traits@D@std@@V?$allocator@D@2@@std@@@2@@2@V?$allocator@U?$pair@$$CBV?$basic_string@DU?$char_traits@D@std@@V?$allocator@D@2@@std@@V?$shared_ptr@UNode@NetvarTree@@@2@@std@@@2@$0A@@std@@@std@@IAEXXZ 100048a0 f i EnginePrediction.obj
 0001:000038e0       ?_Release@?$_Alloc_construct_ptr@V?$allocator@U?$_List_node@U?$pair@$$CBII@std@@PAX@std@@@std@@@std@@QAEPAU?$_List_node@U?$pair@$$CBII@std@@PAX@2@XZ 100048e0 f i Resolver.obj
 0001:000038e0       ?_Release@?$_Alloc_construct_ptr@V?$allocator@U?$_List_node@U?$pair@$$CBV?$basic_string@DU?$char_traits@D@std@@V?$allocator@D@2@@std@@V?$shared_ptr@UNode@NetvarTree@@@2@@std@@PAX@std@@@std@@@std@@QAEPAU?$_List_node@U?$pair@$$CBV?$basic_string@DU?$char_traits@D@std@@V?$allocator@D@2@@std@@V?$shared_ptr@UNode@NetvarTree@@@2@@std@@PAX@2@XZ 100048e0 f i EnginePrediction.obj
 0001:00003910       ?_Release@?$_Uninitialized_backout@PAPAULegitPlayerRecords@@@std@@QAEPAPAULegitPlayerRecords@@XZ 10004910 f i Legitbot.obj
 0001:00003910       ?_Release@?$_Uninitialized_backout@PAPAUPlayerRecords@@@std@@QAEPAPAUPlayerRecords@@XZ 10004910 f i LagComp.obj
 0001:00003910       ?_Release@?$_Uninitialized_backout@PAV?$_List_unchecked_iterator@V?$_List_val@U?$_List_simple_types@U?$pair@$$CBII@std@@@std@@@std@@@std@@@std@@QAEPAV?$_List_unchecked_iterator@V?$_List_val@U?$_List_simple_types@U?$pair@$$CBII@std@@@std@@@std@@@2@XZ 10004910 f i EnginePrediction.obj
 0001:00003910       ?_Release@?$_Uninitialized_backout@PAV?$_List_unchecked_iterator@V?$_List_val@U?$_List_simple_types@U?$pair@$$CBV?$basic_string@DU?$char_traits@D@std@@V?$allocator@D@2@@std@@V?$shared_ptr@UNode@NetvarTree@@@2@@std@@@std@@@std@@@std@@@std@@QAEPAV?$_List_unchecked_iterator@V?$_List_val@U?$_List_simple_types@U?$pair@$$CBV?$basic_string@DU?$char_traits@D@std@@V?$allocator@D@2@@std@@V?$shared_ptr@UNode@NetvarTree@@@2@@std@@@std@@@std@@@2@XZ 10004910 f i EnginePrediction.obj
 0001:00003910       ?_Release@?$_Uninitialized_backout_al@V?$allocator@H@std@@@std@@QAEPAHXZ 10004910 f i Aimbot.obj
 0001:00003910       ?_Release@?$_Uninitialized_backout_al@V?$allocator@PAV?$ConfigValue@H@@@std@@@std@@QAEPAPAV?$ConfigValue@H@@XZ 10004910 f i TGFCfg.obj
 0001:00003910       ?_Release@?$_Uninitialized_backout_al@V?$allocator@PAV?$ConfigValue@M@@@std@@@std@@QAEPAPAV?$ConfigValue@M@@XZ 10004910 f i TGFCfg.obj
 0001:00003910       ?_Release@?$_Uninitialized_backout_al@V?$allocator@PAV?$ConfigValue@_N@@@std@@@std@@QAEPAPAV?$ConfigValue@_N@@XZ 10004910 f i TGFCfg.obj
 0001:00003910       ?_Release@?$_Uninitialized_backout_al@V?$allocator@V?$basic_string@DU?$char_traits@D@std@@V?$allocator@D@2@@std@@@std@@@std@@QAEPAV?$basic_string@DU?$char_traits@D@std@@V?$allocator@D@2@@2@XZ 10004910 f i Menu.obj
 0001:00003930       ?_Swap_proxy_and_iterators@?$basic_string@DU?$char_traits@D@std@@V?$allocator@D@2@@std@@AAEXAAV12@@Z 10004930 f i EnginePrediction.obj
 0001:00003960       ?_Switch_to_buf@_Bxty@?$_String_val@U?$_Simple_types@D@std@@@std@@QAEXXZ 10004960 f i EnginePrediction.obj
 0001:000039b0       ?_Take_contents@?$basic_string@DU?$char_traits@D@std@@V?$allocator@D@2@@std@@AAEXAAV12@@Z 100049b0 f i EnginePrediction.obj
 0001:00003b10       ?_Throw_bad_array_new_length@std@@YAXXZ 10004b10 f i EnginePrediction.obj
 0001:00003b40       ?_Tidy@?$_Hash_vec@V?$allocator@V?$_List_unchecked_iterator@V?$_List_val@U?$_List_simple_types@U?$pair@$$CBII@std@@@std@@@std@@@std@@@std@@@std@@QAEXXZ 10004b40 f i EnginePrediction.obj
 0001:00003b40       ?_Tidy@?$_Hash_vec@V?$allocator@V?$_List_unchecked_iterator@V?$_List_val@U?$_List_simple_types@U?$pair@$$CBV?$basic_string@DU?$char_traits@D@std@@V?$allocator@D@2@@std@@V?$shared_ptr@UNode@NetvarTree@@@2@@std@@@std@@@std@@@std@@@std@@@std@@QAEXXZ 10004b40 f i Hooks.obj
 0001:00003bc0       ?_Tidy@?$list@U?$pair@$$CBII@std@@V?$allocator@U?$pair@$$CBII@std@@@2@@std@@AAEXXZ 10004bc0 f i EnginePrediction.obj
 0001:00003c10       ?_Tidy_deallocate@?$basic_string@DU?$char_traits@D@std@@V?$allocator@D@2@@std@@AAEXXZ 10004c10 f i EnginePrediction.obj
 0001:00003ca0       ?_Unchecked_begin@?$_Hash@V?$_Umap_traits@IIV?$_Uhash_compare@IU?$hash@I@std@@U?$equal_to@I@2@@std@@V?$allocator@U?$pair@$$CBII@std@@@2@$0A@@std@@@std@@QAE?AV?$_List_unchecked_iterator@V?$_List_val@U?$_List_simple_types@U?$pair@$$CBII@std@@@std@@@std@@@2@XZ 10004ca0 f i Resolver.obj
 0001:00003ca0       ?_Unchecked_begin@?$_Hash@V?$_Umap_traits@V?$basic_string@DU?$char_traits@D@std@@V?$allocator@D@2@@std@@V?$shared_ptr@UNode@NetvarTree@@@2@V?$_Uhash_compare@V?$basic_string@DU?$char_traits@D@std@@V?$allocator@D@2@@std@@U?$hash@V?$basic_string@DU?$char_traits@D@std@@V?$allocator@D@2@@std@@@2@U?$equal_to@V?$basic_string@DU?$char_traits@D@std@@V?$allocator@D@2@@std@@@2@@2@V?$allocator@U?$pair@$$CBV?$basic_string@DU?$char_traits@D@std@@V?$allocator@D@2@@std@@V?$shared_ptr@UNode@NetvarTree@@@2@@std@@@2@$0A@@std@@@std@@QAE?AV?$_List_unchecked_iterator@V?$_List_val@U?$_List_simple_types@U?$pair@$$CBV?$basic_string@DU?$char_traits@D@std@@V?$allocator@D@2@@std@@V?$shared_ptr@UNode@NetvarTree@@@2@@std@@@std@@@std@@@2@XZ 10004ca0 f i EnginePrediction.obj
 0001:00003cd0       ?_Unchecked_begin@?$list@U?$pair@$$CBII@std@@V?$allocator@U?$pair@$$CBII@std@@@2@@std@@QAE?AV?$_List_unchecked_iterator@V?$_List_val@U?$_List_simple_types@U?$pair@$$CBII@std@@@std@@@std@@@2@XZ 10004cd0 f i Resolver.obj
 0001:00003cd0       ?_Unchecked_begin@?$list@U?$pair@$$CBV?$basic_string@DU?$char_traits@D@std@@V?$allocator@D@2@@std@@V?$shared_ptr@UNode@NetvarTree@@@2@@std@@V?$allocator@U?$pair@$$CBV?$basic_string@DU?$char_traits@D@std@@V?$allocator@D@2@@std@@V?$shared_ptr@UNode@NetvarTree@@@2@@std@@@2@@std@@QAE?AV?$_List_unchecked_iterator@V?$_List_val@U?$_List_simple_types@U?$pair@$$CBV?$basic_string@DU?$char_traits@D@std@@V?$allocator@D@2@@std@@V?$shared_ptr@UNode@NetvarTree@@@2@@std@@@std@@@std@@@2@XZ 10004cd0 f i EnginePrediction.obj
 0001:00003d00       ?_Unchecked_end@?$_Hash@V?$_Umap_traits@IIV?$_Uhash_compare@IU?$hash@I@std@@U?$equal_to@I@2@@std@@V?$allocator@U?$pair@$$CBII@std@@@2@$0A@@std@@@std@@QAE?AV?$_List_unchecked_iterator@V?$_List_val@U?$_List_simple_types@U?$pair@$$CBII@std@@@std@@@std@@@2@XZ 10004d00 f i Resolver.obj
 0001:00003d00       ?_Unchecked_end@?$_Hash@V?$_Umap_traits@V?$basic_string@DU?$char_traits@D@std@@V?$allocator@D@2@@std@@V?$shared_ptr@UNode@NetvarTree@@@2@V?$_Uhash_compare@V?$basic_string@DU?$char_traits@D@std@@V?$allocator@D@2@@std@@U?$hash@V?$basic_string@DU?$char_traits@D@std@@V?$allocator@D@2@@std@@@2@U?$equal_to@V?$basic_string@DU?$char_traits@D@std@@V?$allocator@D@2@@std@@@2@@2@V?$allocator@U?$pair@$$CBV?$basic_string@DU?$char_traits@D@std@@V?$allocator@D@2@@std@@V?$shared_ptr@UNode@NetvarTree@@@2@@std@@@2@$0A@@std@@@std@@QAE?AV?$_List_unchecked_iterator@V?$_List_val@U?$_List_simple_types@U?$pair@$$CBV?$basic_string@DU?$char_traits@D@std@@V?$allocator@D@2@@std@@V?$shared_ptr@UNode@NetvarTree@@@2@@std@@@std@@@std@@@2@XZ 10004d00 f i EnginePrediction.obj
 0001:00003d30       ?_Unchecked_end@?$list@U?$pair@$$CBII@std@@V?$allocator@U?$pair@$$CBII@std@@@2@@std@@QAE?AV?$_List_unchecked_iterator@V?$_List_val@U?$_List_simple_types@U?$pair@$$CBII@std@@@std@@@std@@@2@XZ 10004d30 f i EnginePrediction.obj
 0001:00003d30       ?_Unchecked_end@?$list@U?$pair@$$CBV?$basic_string@DU?$char_traits@D@std@@V?$allocator@D@2@@std@@V?$shared_ptr@UNode@NetvarTree@@@2@@std@@V?$allocator@U?$pair@$$CBV?$basic_string@DU?$char_traits@D@std@@V?$allocator@D@2@@std@@V?$shared_ptr@UNode@NetvarTree@@@2@@std@@@2@@std@@QAE?AV?$_List_unchecked_iterator@V?$_List_val@U?$_List_simple_types@U?$pair@$$CBV?$basic_string@DU?$char_traits@D@std@@V?$allocator@D@2@@std@@V?$shared_ptr@UNode@NetvarTree@@@2@@std@@@std@@@std@@@2@XZ 10004d30 f i EnginePrediction.obj
 0001:00003d50       ?_Unchecked_erase@?$_Hash@V?$_Umap_traits@V?$basic_string@DU?$char_traits@D@std@@V?$allocator@D@2@@std@@V?$shared_ptr@UNode@NetvarTree@@@2@V?$_Uhash_compare@V?$basic_string@DU?$char_traits@D@std@@V?$allocator@D@2@@std@@U?$hash@V?$basic_string@DU?$char_traits@D@std@@V?$allocator@D@2@@std@@@2@U?$equal_to@V?$basic_string@DU?$char_traits@D@std@@V?$allocator@D@2@@std@@@2@@2@V?$allocator@U?$pair@$$CBV?$basic_string@DU?$char_traits@D@std@@V?$allocator@D@2@@std@@V?$shared_ptr@UNode@NetvarTree@@@2@@std@@@2@$0A@@std@@@std@@AAEPAU?$_List_node@U?$pair@$$CBV?$basic_string@DU?$char_traits@D@std@@V?$allocator@D@2@@std@@V?$shared_ptr@UNode@NetvarTree@@@2@@std@@PAX@2@PAU32@QAU32@@Z 10004d50 f i EnginePrediction.obj
 0001:00003f40       ?_Unchecked_splice@?$_List_val@U?$_List_simple_types@U?$pair@$$CBII@std@@@std@@@std@@SAPAU?$_List_node@U?$pair@$$CBII@std@@PAX@2@QAU32@00@Z 10004f40 f i Resolver.obj
 0001:00003f40       ?_Unchecked_splice@?$_List_val@U?$_List_simple_types@U?$pair@$$CBV?$basic_string@DU?$char_traits@D@std@@V?$allocator@D@2@@std@@V?$shared_ptr@UNode@NetvarTree@@@2@@std@@@std@@@std@@SAPAU?$_List_node@U?$pair@$$CBV?$basic_string@DU?$char_traits@D@std@@V?$allocator@D@2@@std@@V?$shared_ptr@UNode@NetvarTree@@@2@@std@@PAX@2@QAU32@00@Z 10004f40 f i EnginePrediction.obj
 0001:00003fa0       ?_Xlen_string@std@@YAXXZ   10004fa0 f i EnginePrediction.obj
 0001:00003fb0       ?allocate@?$allocator@D@std@@QAEPADI@Z 10004fb0 f i EnginePrediction.obj
 0001:00003fe0       ?allocate@?$allocator@U?$_List_node@U?$pair@$$CBII@std@@PAX@std@@@std@@QAEPAU?$_List_node@U?$pair@$$CBII@std@@PAX@2@I@Z 10004fe0 f i EnginePrediction.obj
 0001:00004010       ?allocate@?$allocator@U?$_List_node@U?$pair@$$CBV?$basic_string@DU?$char_traits@D@std@@V?$allocator@D@2@@std@@V?$shared_ptr@UNode@NetvarTree@@@2@@std@@PAX@std@@@std@@QAEPAU?$_List_node@U?$pair@$$CBV?$basic_string@DU?$char_traits@D@std@@V?$allocator@D@2@@std@@V?$shared_ptr@UNode@NetvarTree@@@2@@std@@PAX@2@I@Z 10005010 f i EnginePrediction.obj
 0001:00004040       ?allocate@?$allocator@H@std@@QAEPAHI@Z 10005040 f i Aimbot.obj
 0001:00004040       ?allocate@?$allocator@PAULegitPlayerRecords@@@std@@QAEPAPAULegitPlayerRecords@@I@Z 10005040 f i Legitbot.obj
 0001:00004040       ?allocate@?$allocator@PAUPlayerRecords@@@std@@QAEPAPAUPlayerRecords@@I@Z 10005040 f i LagComp.obj
 0001:00004040       ?allocate@?$allocator@PAV?$ConfigValue@H@@@std@@QAEPAPAV?$ConfigValue@H@@I@Z 10005040 f i TGFCfg.obj
 0001:00004040       ?allocate@?$allocator@PAV?$ConfigValue@M@@@std@@QAEPAPAV?$ConfigValue@M@@I@Z 10005040 f i TGFCfg.obj
 0001:00004040       ?allocate@?$allocator@PAV?$ConfigValue@_N@@@std@@QAEPAPAV?$ConfigValue@_N@@I@Z 10005040 f i TGFCfg.obj
 0001:00004040       ?allocate@?$allocator@V?$_List_unchecked_iterator@V?$_List_val@U?$_List_simple_types@U?$pair@$$CBII@std@@@std@@@std@@@std@@@std@@QAEPAV?$_List_unchecked_iterator@V?$_List_val@U?$_List_simple_types@U?$pair@$$CBII@std@@@std@@@std@@@2@I@Z 10005040 f i EnginePrediction.obj
 0001:00004040       ?allocate@?$allocator@V?$_List_unchecked_iterator@V?$_List_val@U?$_List_simple_types@U?$pair@$$CBV?$basic_string@DU?$char_traits@D@std@@V?$allocator@D@2@@std@@V?$shared_ptr@UNode@NetvarTree@@@2@@std@@@std@@@std@@@std@@@std@@QAEPAV?$_List_unchecked_iterator@V?$_List_val@U?$_List_simple_types@U?$pair@$$CBV?$basic_string@DU?$char_traits@D@std@@V?$allocator@D@2@@std@@V?$shared_ptr@UNode@NetvarTree@@@2@@std@@@std@@@std@@@2@I@Z 10005040 f i EnginePrediction.obj
 0001:00004070       ?assign@?$_Char_traits@DH@std@@SAXAADABD@Z 10005070 f i EnginePrediction.obj
 0001:00004080       ?assign@?$_Narrow_char_traits@DH@std@@SAXAADABD@Z 10005080 f i EnginePrediction.obj
 0001:000040b0       ?bucket@?$_Hash@V?$_Umap_traits@V?$basic_string@DU?$char_traits@D@std@@V?$allocator@D@2@@std@@V?$shared_ptr@UNode@NetvarTree@@@2@V?$_Uhash_compare@V?$basic_string@DU?$char_traits@D@std@@V?$allocator@D@2@@std@@U?$hash@V?$basic_string@DU?$char_traits@D@std@@V?$allocator@D@2@@std@@@2@U?$equal_to@V?$basic_string@DU?$char_traits@D@std@@V?$allocator@D@2@@std@@@2@@2@V?$allocator@U?$pair@$$CBV?$basic_string@DU?$char_traits@D@std@@V?$allocator@D@2@@std@@V?$shared_ptr@UNode@NetvarTree@@@2@@std@@@2@$0A@@std@@@std@@QBEIABV?$basic_string@DU?$char_traits@D@std@@V?$allocator@D@2@@2@@Z 100050b0 f i EnginePrediction.obj
 0001:000040f0       ?bucket_count@?$_Hash@V?$_Umap_traits@IIV?$_Uhash_compare@IU?$hash@I@std@@U?$equal_to@I@2@@std@@V?$allocator@U?$pair@$$CBII@std@@@2@$0A@@std@@@std@@QBEIXZ 100050f0 f i Resolver.obj
 0001:000040f0       ?bucket_count@?$_Hash@V?$_Umap_traits@V?$basic_string@DU?$char_traits@D@std@@V?$allocator@D@2@@std@@V?$shared_ptr@UNode@NetvarTree@@@2@V?$_Uhash_compare@V?$basic_string@DU?$char_traits@D@std@@V?$allocator@D@2@@std@@U?$hash@V?$basic_string@DU?$char_traits@D@std@@V?$allocator@D@2@@std@@@2@U?$equal_to@V?$basic_string@DU?$char_traits@D@std@@V?$allocator@D@2@@std@@@2@@2@V?$allocator@U?$pair@$$CBV?$basic_string@DU?$char_traits@D@std@@V?$allocator@D@2@@std@@V?$shared_ptr@UNode@NetvarTree@@@2@@std@@@2@$0A@@std@@@std@@QBEIXZ 100050f0 f i EnginePrediction.obj
 0001:00004110       ?c_str@?$basic_string@DU?$char_traits@D@std@@V?$allocator@D@2@@std@@QBEPBDXZ 10005110 f i EnginePrediction.obj
 0001:00004110       ?data@?$basic_string@DU?$char_traits@D@std@@V?$allocator@D@2@@std@@QAEPADXZ 10005110 f i Hooks.obj
 0001:00004130       ?capacity@?$_Hash_vec@V?$allocator@V?$_List_unchecked_iterator@V?$_List_val@U?$_List_simple_types@U?$pair@$$CBII@std@@@std@@@std@@@std@@@std@@@std@@QBEIXZ 10005130 f i EnginePrediction.obj
 0001:00004130       ?capacity@?$_Hash_vec@V?$allocator@V?$_List_unchecked_iterator@V?$_List_val@U?$_List_simple_types@U?$pair@$$CBV?$basic_string@DU?$char_traits@D@std@@V?$allocator@D@2@@std@@V?$shared_ptr@UNode@NetvarTree@@@2@@std@@@std@@@std@@@std@@@std@@@std@@QBEIXZ 10005130 f i EnginePrediction.obj
 0001:00004150       ?clear@?$_Hash@V?$_Umap_traits@V?$basic_string@DU?$char_traits@D@std@@V?$allocator@D@2@@std@@V?$shared_ptr@UNode@NetvarTree@@@2@V?$_Uhash_compare@V?$basic_string@DU?$char_traits@D@std@@V?$allocator@D@2@@std@@U?$hash@V?$basic_string@DU?$char_traits@D@std@@V?$allocator@D@2@@std@@@2@U?$equal_to@V?$basic_string@DU?$char_traits@D@std@@V?$allocator@D@2@@std@@@2@@2@V?$allocator@U?$pair@$$CBV?$basic_string@DU?$char_traits@D@std@@V?$allocator@D@2@@std@@V?$shared_ptr@UNode@NetvarTree@@@2@@std@@@2@$0A@@std@@@std@@QAEXXZ 10005150 f i EnginePrediction.obj
 0001:00004210       ?clear@?$list@U?$pair@$$CBV?$basic_string@DU?$char_traits@D@std@@V?$allocator@D@2@@std@@V?$shared_ptr@UNode@NetvarTree@@@2@@std@@V?$allocator@U?$pair@$$CBV?$basic_string@DU?$char_traits@D@std@@V?$allocator@D@2@@std@@V?$shared_ptr@UNode@NetvarTree@@@2@@std@@@2@@std@@QAEXXZ 10005210 f i EnginePrediction.obj
 0001:00004280       ?compare@?$_Narrow_char_traits@DH@std@@SAHQBD0I@Z 10005280 f i EnginePrediction.obj
 0001:000042b0       ?copy@?$_Char_traits@DH@std@@SAPADQADQBDI@Z 100052b0 f i EnginePrediction.obj
 0001:00004310       ?deallocate@?$_Default_allocator_traits@V?$allocator@U?$_List_node@U?$pair@$$CBII@std@@PAX@std@@@std@@@std@@SAXAAV?$allocator@U?$_List_node@U?$pair@$$CBII@std@@PAX@std@@@2@QAU?$_List_node@U?$pair@$$CBII@std@@PAX@2@I@Z 10005310 f i EnginePrediction.obj
 0001:00004350       ?deallocate@?$_Default_allocator_traits@V?$allocator@U?$_List_node@U?$pair@$$CBV?$basic_string@DU?$char_traits@D@std@@V?$allocator@D@2@@std@@V?$shared_ptr@UNode@NetvarTree@@@2@@std@@PAX@std@@@std@@@std@@SAXAAV?$allocator@U?$_List_node@U?$pair@$$CBV?$basic_string@DU?$char_traits@D@std@@V?$allocator@D@2@@std@@V?$shared_ptr@UNode@NetvarTree@@@2@@std@@PAX@std@@@2@QAU?$_List_node@U?$pair@$$CBV?$basic_string@DU?$char_traits@D@std@@V?$allocator@D@2@@std@@V?$shared_ptr@UNode@NetvarTree@@@2@@std@@PAX@2@I@Z 10005350 f i EnginePrediction.obj
 0001:00004390       ?deallocate@?$allocator@D@std@@QAEXQADI@Z 10005390 f i EnginePrediction.obj
 0001:000043b0       ?deallocate@?$allocator@U?$_List_node@U?$pair@$$CBII@std@@PAX@std@@@std@@QAEXQAU?$_List_node@U?$pair@$$CBII@std@@PAX@2@I@Z 100053b0 f i EnginePrediction.obj
 0001:000043d0       ?deallocate@?$allocator@U?$_List_node@U?$pair@$$CBV?$basic_string@DU?$char_traits@D@std@@V?$allocator@D@2@@std@@V?$shared_ptr@UNode@NetvarTree@@@2@@std@@PAX@std@@@std@@QAEXQAU?$_List_node@U?$pair@$$CBV?$basic_string@DU?$char_traits@D@std@@V?$allocator@D@2@@std@@V?$shared_ptr@UNode@NetvarTree@@@2@@std@@PAX@2@I@Z 100053d0 f i EnginePrediction.obj
 0001:000043f0       ?deallocate@?$allocator@H@std@@QAEXQAHI@Z 100053f0 f i Aimbot.obj
 0001:000043f0       ?deallocate@?$allocator@PAULegitPlayerRecords@@@std@@QAEXQAPAULegitPlayerRecords@@I@Z 100053f0 f i Legitbot.obj
 0001:000043f0       ?deallocate@?$allocator@PAUPlayerRecords@@@std@@QAEXQAPAUPlayerRecords@@I@Z 100053f0 f i LagComp.obj
 0001:000043f0       ?deallocate@?$allocator@PAV?$ConfigValue@H@@@std@@QAEXQAPAV?$ConfigValue@H@@I@Z 100053f0 f i TGFCfg.obj
 0001:000043f0       ?deallocate@?$allocator@PAV?$ConfigValue@M@@@std@@QAEXQAPAV?$ConfigValue@M@@I@Z 100053f0 f i TGFCfg.obj
 0001:000043f0       ?deallocate@?$allocator@PAV?$ConfigValue@_N@@@std@@QAEXQAPAV?$ConfigValue@_N@@I@Z 100053f0 f i TGFCfg.obj
 0001:000043f0       ?deallocate@?$allocator@V?$_List_unchecked_iterator@V?$_List_val@U?$_List_simple_types@U?$pair@$$CBII@std@@@std@@@std@@@std@@@std@@QAEXQAV?$_List_unchecked_iterator@V?$_List_val@U?$_List_simple_types@U?$pair@$$CBII@std@@@std@@@std@@@2@I@Z 100053f0 f i EnginePrediction.obj
 0001:000043f0       ?deallocate@?$allocator@V?$_List_unchecked_iterator@V?$_List_val@U?$_List_simple_types@U?$pair@$$CBV?$basic_string@DU?$char_traits@D@std@@V?$allocator@D@2@@std@@V?$shared_ptr@UNode@NetvarTree@@@2@@std@@@std@@@std@@@std@@@std@@QAEXQAV?$_List_unchecked_iterator@V?$_List_val@U?$_List_simple_types@U?$pair@$$CBV?$basic_string@DU?$char_traits@D@std@@V?$allocator@D@2@@std@@V?$shared_ptr@UNode@NetvarTree@@@2@@std@@@std@@@std@@@2@I@Z 100053f0 f i EnginePrediction.obj
 0001:00004410       ?is_constant_evaluated@std@@YA_NXZ 10005410 f i EnginePrediction.obj
 0001:00004420       ?length@?$_Narrow_char_traits@DH@std@@SAIQBD@Z 10005420 f i EnginePrediction.obj
 0001:00004460       ?max_load_factor@?$_Hash@V?$_Umap_traits@IIV?$_Uhash_compare@IU?$hash@I@std@@U?$equal_to@I@2@@std@@V?$allocator@U?$pair@$$CBII@std@@@2@$0A@@std@@@std@@QBEMXZ 10005460 f i Resolver.obj
 0001:00004460       ?max_load_factor@?$_Hash@V?$_Umap_traits@V?$basic_string@DU?$char_traits@D@std@@V?$allocator@D@2@@std@@V?$shared_ptr@UNode@NetvarTree@@@2@V?$_Uhash_compare@V?$basic_string@DU?$char_traits@D@std@@V?$allocator@D@2@@std@@U?$hash@V?$basic_string@DU?$char_traits@D@std@@V?$allocator@D@2@@std@@@2@U?$equal_to@V?$basic_string@DU?$char_traits@D@std@@V?$allocator@D@2@@std@@@2@@2@V?$allocator@U?$pair@$$CBV?$basic_string@DU?$char_traits@D@std@@V?$allocator@D@2@@std@@V?$shared_ptr@UNode@NetvarTree@@@2@@std@@@2@$0A@@std@@@std@@QBEMXZ 10005460 f i EnginePrediction.obj
 0001:00004480       ?eof@?$_Narrow_char_traits@DH@std@@SAHXZ 10005480 f i Interfaces.obj
 0001:00004480       ?max_size@?$_Default_allocator_traits@V?$allocator@D@std@@@std@@SAIABV?$allocator@D@2@@Z 10005480 f i EnginePrediction.obj
 0001:00004490       ?max_size@?$_Default_allocator_traits@V?$allocator@U?$_List_node@U?$pair@$$CBV?$basic_string@DU?$char_traits@D@std@@V?$allocator@D@2@@std@@V?$shared_ptr@UNode@NetvarTree@@@2@@std@@PAX@std@@@std@@@std@@SAIABV?$allocator@U?$_List_node@U?$pair@$$CBV?$basic_string@DU?$char_traits@D@std@@V?$allocator@D@2@@std@@V?$shared_ptr@UNode@NetvarTree@@@2@@std@@PAX@std@@@2@@Z 10005490 f i EnginePrediction.obj
 0001:000044a0       ?max_size@?$_Default_allocator_traits@V?$allocator@H@std@@@std@@SAIABV?$allocator@H@2@@Z 100054a0 f i Aimbot.obj
 0001:000044a0       ?max_size@?$_Default_allocator_traits@V?$allocator@PAV?$ConfigValue@H@@@std@@@std@@SAIABV?$allocator@PAV?$ConfigValue@H@@@2@@Z 100054a0 f i TGFCfg.obj
 0001:000044a0       ?max_size@?$_Default_allocator_traits@V?$allocator@PAV?$ConfigValue@M@@@std@@@std@@SAIABV?$allocator@PAV?$ConfigValue@M@@@2@@Z 100054a0 f i TGFCfg.obj
 0001:000044a0       ?max_size@?$_Default_allocator_traits@V?$allocator@PAV?$ConfigValue@_N@@@std@@@std@@SAIABV?$allocator@PAV?$ConfigValue@_N@@@2@@Z 100054a0 f i TGFCfg.obj
 0001:000044a0       ?max_size@?$_Default_allocator_traits@V?$allocator@V?$_List_unchecked_iterator@V?$_List_val@U?$_List_simple_types@U?$pair@$$CBII@std@@@std@@@std@@@std@@@std@@@std@@SAIABV?$allocator@V?$_List_unchecked_iterator@V?$_List_val@U?$_List_simple_types@U?$pair@$$CBII@std@@@std@@@std@@@std@@@2@@Z 100054a0 f i Resolver.obj
 0001:000044a0       ?max_size@?$_Default_allocator_traits@V?$allocator@V?$_List_unchecked_iterator@V?$_List_val@U?$_List_simple_types@U?$pair@$$CBV?$basic_string@DU?$char_traits@D@std@@V?$allocator@D@2@@std@@V?$shared_ptr@UNode@NetvarTree@@@2@@std@@@std@@@std@@@std@@@std@@@std@@SAIABV?$allocator@V?$_List_unchecked_iterator@V?$_List_val@U?$_List_simple_types@U?$pair@$$CBV?$basic_string@DU?$char_traits@D@std@@V?$allocator@D@2@@std@@V?$shared_ptr@UNode@NetvarTree@@@2@@std@@@std@@@std@@@std@@@2@@Z 100054a0 f i EnginePrediction.obj
 0001:000044b0       ?max_size@?$_Hash_vec@V?$allocator@V?$_List_unchecked_iterator@V?$_List_val@U?$_List_simple_types@U?$pair@$$CBII@std@@@std@@@std@@@std@@@std@@@std@@QBEIXZ 100054b0 f i Resolver.obj
 0001:000044b0       ?max_size@?$_Hash_vec@V?$allocator@V?$_List_unchecked_iterator@V?$_List_val@U?$_List_simple_types@U?$pair@$$CBV?$basic_string@DU?$char_traits@D@std@@V?$allocator@D@2@@std@@V?$shared_ptr@UNode@NetvarTree@@@2@@std@@@std@@@std@@@std@@@std@@@std@@QBEIXZ 100054b0 f i EnginePrediction.obj
 0001:000044f0       ?max_size@?$basic_string@DU?$char_traits@D@std@@V?$allocator@D@2@@std@@QBEIXZ 100054f0 f i EnginePrediction.obj
 0001:00004550       ?max_size@?$list@U?$pair@$$CBV?$basic_string@DU?$char_traits@D@std@@V?$allocator@D@2@@std@@V?$shared_ptr@UNode@NetvarTree@@@2@@std@@V?$allocator@U?$pair@$$CBV?$basic_string@DU?$char_traits@D@std@@V?$allocator@D@2@@std@@V?$shared_ptr@UNode@NetvarTree@@@2@@std@@@2@@std@@QBEIXZ 10005550 f i EnginePrediction.obj
 0001:00004590       ?size@?$_Hash_vec@V?$allocator@V?$_List_unchecked_iterator@V?$_List_val@U?$_List_simple_types@U?$pair@$$CBII@std@@@std@@@std@@@std@@@std@@@std@@QBEIXZ 10005590 f i EnginePrediction.obj
 0001:00004590       ?size@?$_Hash_vec@V?$allocator@V?$_List_unchecked_iterator@V?$_List_val@U?$_List_simple_types@U?$pair@$$CBV?$basic_string@DU?$char_traits@D@std@@V?$allocator@D@2@@std@@V?$shared_ptr@UNode@NetvarTree@@@2@@std@@@std@@@std@@@std@@@std@@@std@@QBEIXZ 10005590 f i EnginePrediction.obj
 0001:000045b0       ?size@?$basic_string@DU?$char_traits@D@std@@V?$allocator@D@2@@std@@QBEIXZ 100055b0 f i EnginePrediction.obj
 0001:000045d0       ?what@exception@std@@UBEPBDXZ 100055d0 f i EnginePrediction.obj
 0001:00004600       _ceilf                     10005600 f i EnginePrediction.obj
 0001:00004640       ??$?0$$V@?$_Compressed_pair@V?$allocator@H@std@@V?$_Vector_val@U?$_Simple_types@H@std@@@2@$00@std@@QAE@U_Zero_then_variadic_args_t@1@@Z 10005640 f i Aimbot.obj
 0001:00004640       ??$?0$$V@?$_Compressed_pair@V?$allocator@PAV?$ConfigValue@H@@@std@@V?$_Vector_val@U?$_Simple_types@PAV?$ConfigValue@H@@@std@@@2@$00@std@@QAE@U_Zero_then_variadic_args_t@1@@Z 10005640 f i TGFCfg.obj
 0001:00004640       ??$?0$$V@?$_Compressed_pair@V?$allocator@PAV?$ConfigValue@M@@@std@@V?$_Vector_val@U?$_Simple_types@PAV?$ConfigValue@M@@@std@@@2@$00@std@@QAE@U_Zero_then_variadic_args_t@1@@Z 10005640 f i TGFCfg.obj
 0001:00004640       ??$?0$$V@?$_Compressed_pair@V?$allocator@PAV?$ConfigValue@_N@@@std@@V?$_Vector_val@U?$_Simple_types@PAV?$ConfigValue@_N@@@std@@@2@$00@std@@QAE@U_Zero_then_variadic_args_t@1@@Z 10005640 f i TGFCfg.obj
 0001:00004670       ??$CallVFunc@$0BMN@PAVWeaponInfo_t@@$$V@Utils@@SAPAVWeaponInfo_t@@PAX@Z 10005670 f i Aimbot.obj
 0001:000046a0       ??$GetValue@M@C_BaseCombatWeapon@@AAEMH@Z 100056a0 f i Aimbot.obj
 0001:000046a0       ??$GetValue@M@C_BaseEntity@@AAEMH@Z 100056a0 f i Aimbot.obj
 0001:000046c0       ??$GetValue@VVector@@@C_BaseEntity@@AAE?AVVector@@H@Z 100056c0 f i Aimbot.obj
 0001:000046f0       ??$_Allocate_at_least_helper@V?$allocator@H@std@@@std@@YAPAHAAV?$allocator@H@0@AAI@Z 100056f0 f i Aimbot.obj
 0001:000046f0       ??$_Allocate_at_least_helper@V?$allocator@PAULegitPlayerRecords@@@std@@@std@@YAPAPAULegitPlayerRecords@@AAV?$allocator@PAULegitPlayerRecords@@@0@AAI@Z 100056f0 f i Legitbot.obj
 0001:000046f0       ??$_Allocate_at_least_helper@V?$allocator@PAUPlayerRecords@@@std@@@std@@YAPAPAUPlayerRecords@@AAV?$allocator@PAUPlayerRecords@@@0@AAI@Z 100056f0 f i LagComp.obj
 0001:000046f0       ??$_Allocate_at_least_helper@V?$allocator@PAV?$ConfigValue@H@@@std@@@std@@YAPAPAV?$ConfigValue@H@@AAV?$allocator@PAV?$ConfigValue@H@@@0@AAI@Z 100056f0 f i TGFCfg.obj
 0001:000046f0       ??$_Allocate_at_least_helper@V?$allocator@PAV?$ConfigValue@M@@@std@@@std@@YAPAPAV?$ConfigValue@M@@AAV?$allocator@PAV?$ConfigValue@M@@@0@AAI@Z 100056f0 f i TGFCfg.obj
 0001:000046f0       ??$_Allocate_at_least_helper@V?$allocator@PAV?$ConfigValue@_N@@@std@@@std@@YAPAPAV?$ConfigValue@_N@@AAV?$allocator@PAV?$ConfigValue@_N@@@0@AAI@Z 100056f0 f i TGFCfg.obj
 0001:00004710       ??$_Copy_memmove@PAHPAH@std@@YAPAHPAH00@Z 10005710 f i Aimbot.obj
 0001:00004710       ??$_Copy_memmove@PAMPAM@std@@YAPAMPAM00@Z 10005710 f i Hooks.obj
 0001:00004710       ??$_Copy_memmove@PAPAULegitPlayerRecords@@PAPAU1@@std@@YAPAPAULegitPlayerRecords@@PAPAU1@00@Z 10005710 f i Legitbot.obj
 0001:00004710       ??$_Copy_memmove@PAPAUPlayerRecords@@PAPAU1@@std@@YAPAPAUPlayerRecords@@PAPAU1@00@Z 10005710 f i LagComp.obj
 0001:00004710       ??$_Copy_memmove@PAPAV?$ConfigValue@H@@PAPAV1@@std@@YAPAPAV?$ConfigValue@H@@PAPAV1@00@Z 10005710 f i TGFCfg.obj
 0001:00004710       ??$_Copy_memmove@PAPAV?$ConfigValue@M@@PAPAV1@@std@@YAPAPAV?$ConfigValue@M@@PAPAV1@00@Z 10005710 f i TGFCfg.obj
 0001:00004710       ??$_Copy_memmove@PAPAV?$ConfigValue@_N@@PAPAV1@@std@@YAPAPAV?$ConfigValue@_N@@PAPAV1@00@Z 10005710 f i TGFCfg.obj
 0001:00004780       ??$_Copy_memmove_tail@PAD@std@@YAPADQBDQADII@Z 10005780 f i Hooks.obj
 0001:00004780       ??$_Copy_memmove_tail@PAH@std@@YAPAHQBDQAHII@Z 10005780 f i Aimbot.obj
 0001:00004780       ??$_Copy_memmove_tail@PAM@std@@YAPAMQBDQAMII@Z 10005780 f i Hooks.obj
 0001:00004780       ??$_Copy_memmove_tail@PAPAULegitPlayerRecords@@@std@@YAPAPAULegitPlayerRecords@@QBDQAPAU1@II@Z 10005780 f i Legitbot.obj
 0001:00004780       ??$_Copy_memmove_tail@PAPAUPlayerRecords@@@std@@YAPAPAUPlayerRecords@@QBDQAPAU1@II@Z 10005780 f i LagComp.obj
 0001:00004780       ??$_Copy_memmove_tail@PAPAV?$ConfigValue@H@@@std@@YAPAPAV?$ConfigValue@H@@QBDQAPAV1@II@Z 10005780 f i TGFCfg.obj
 0001:00004780       ??$_Copy_memmove_tail@PAPAV?$ConfigValue@M@@@std@@YAPAPAV?$ConfigValue@M@@QBDQAPAV1@II@Z 10005780 f i TGFCfg.obj
 0001:00004780       ??$_Copy_memmove_tail@PAPAV?$ConfigValue@_N@@@std@@YAPAPAV?$ConfigValue@_N@@QBDQAPAV1@II@Z 10005780 f i TGFCfg.obj
 0001:00004780       ??$_Copy_memmove_tail@PAVAnimationLayer@@@std@@YAPAVAnimationLayer@@QBDQAV1@II@Z 10005780 f i Hooks.obj
 0001:000047c0       ??$_Emplace_back@H@?$_Uninitialized_backout_al@V?$allocator@H@std@@@std@@QAEX$$QAH@Z 100057c0 f i Aimbot.obj
 0001:000047c0       ??$_Emplace_back@PAV?$ConfigValue@H@@@?$_Uninitialized_backout_al@V?$allocator@PAV?$ConfigValue@H@@@std@@@std@@QAEX$$QAPAV?$ConfigValue@H@@@Z 100057c0 f i TGFCfg.obj
 0001:000047c0       ??$_Emplace_back@PAV?$ConfigValue@M@@@?$_Uninitialized_backout_al@V?$allocator@PAV?$ConfigValue@M@@@std@@@std@@QAEX$$QAPAV?$ConfigValue@M@@@Z 100057c0 f i TGFCfg.obj
 0001:000047c0       ??$_Emplace_back@PAV?$ConfigValue@_N@@@?$_Uninitialized_backout_al@V?$allocator@PAV?$ConfigValue@_N@@@std@@@std@@QAEX$$QAPAV?$ConfigValue@_N@@@Z 100057c0 f i TGFCfg.obj
 0001:00004810       ??$_Emplace_back_with_unused_capacity@H@?$vector@HV?$allocator@H@std@@@std@@AAEAAH$$QAH@Z 10005810 f i Aimbot.obj
 0001:00004810       ??$_Emplace_back_with_unused_capacity@PAV?$ConfigValue@H@@@?$vector@PAV?$ConfigValue@H@@V?$allocator@PAV?$ConfigValue@H@@@std@@@std@@AAEAAPAV?$ConfigValue@H@@$$QAPAV2@@Z 10005810 f i TGFCfg.obj
 0001:00004810       ??$_Emplace_back_with_unused_capacity@PAV?$ConfigValue@M@@@?$vector@PAV?$ConfigValue@M@@V?$allocator@PAV?$ConfigValue@M@@@std@@@std@@AAEAAPAV?$ConfigValue@M@@$$QAPAV2@@Z 10005810 f i TGFCfg.obj
 0001:00004810       ??$_Emplace_back_with_unused_capacity@PAV?$ConfigValue@_N@@@?$vector@PAV?$ConfigValue@_N@@V?$allocator@PAV?$ConfigValue@_N@@@std@@@std@@AAEAAPAV?$ConfigValue@_N@@$$QAPAV2@@Z 10005810 f i TGFCfg.obj
 0001:00004870       ??$_Emplace_one_at_back@H@?$vector@HV?$allocator@H@std@@@std@@AAEAAH$$QAH@Z 10005870 f i Aimbot.obj
 0001:00004870       ??$_Emplace_one_at_back@PAV?$ConfigValue@H@@@?$vector@PAV?$ConfigValue@H@@V?$allocator@PAV?$ConfigValue@H@@@std@@@std@@AAEAAPAV?$ConfigValue@H@@$$QAPAV2@@Z 10005870 f i TGFCfg.obj
 0001:00004870       ??$_Emplace_one_at_back@PAV?$ConfigValue@M@@@?$vector@PAV?$ConfigValue@M@@V?$allocator@PAV?$ConfigValue@M@@@std@@@std@@AAEAAPAV?$ConfigValue@M@@$$QAPAV2@@Z 10005870 f i TGFCfg.obj
 0001:00004870       ??$_Emplace_one_at_back@PAV?$ConfigValue@_N@@@?$vector@PAV?$ConfigValue@_N@@V?$allocator@PAV?$ConfigValue@_N@@@std@@@std@@AAEAAPAV?$ConfigValue@_N@@$$QAPAV2@@Z 10005870 f i TGFCfg.obj
 0001:000048c0       ??$_Emplace_reallocate@H@?$vector@HV?$allocator@H@std@@@std@@AAEPAHQAH$$QAH@Z 100058c0 f i Aimbot.obj
 0001:000048c0       ??$_Emplace_reallocate@PAV?$ConfigValue@H@@@?$vector@PAV?$ConfigValue@H@@V?$allocator@PAV?$ConfigValue@H@@@std@@@std@@AAEPAPAV?$ConfigValue@H@@QAPAV2@$$QAPAV2@@Z 100058c0 f i TGFCfg.obj
 0001:000048c0       ??$_Emplace_reallocate@PAV?$ConfigValue@M@@@?$vector@PAV?$ConfigValue@M@@V?$allocator@PAV?$ConfigValue@M@@@std@@@std@@AAEPAPAV?$ConfigValue@M@@QAPAV2@$$QAPAV2@@Z 100058c0 f i TGFCfg.obj
 0001:000048c0       ??$_Emplace_reallocate@PAV?$ConfigValue@_N@@@?$vector@PAV?$ConfigValue@_N@@V?$allocator@PAV?$ConfigValue@_N@@@std@@@std@@AAEPAPAV?$ConfigValue@_N@@QAPAV2@$$QAPAV2@@Z 100058c0 f i TGFCfg.obj
 0001:00004a90       ??$_To_address@PAD@std@@YA?A_PABQAD@Z 10005a90 f i Hooks.obj
 0001:00004a90       ??$_To_address@PAH@std@@YA?A_PABQAH@Z 10005a90 f i Aimbot.obj
 0001:00004a90       ??$_To_address@PAM@std@@YA?A_PABQAM@Z 10005a90 f i Hooks.obj
 0001:00004a90       ??$_To_address@PAPAULegitPlayerRecords@@@std@@YA?A_PABQAPAULegitPlayerRecords@@@Z 10005a90 f i Legitbot.obj
 0001:00004a90       ??$_To_address@PAPAUPlayerRecords@@@std@@YA?A_PABQAPAUPlayerRecords@@@Z 10005a90 f i LagComp.obj
 0001:00004a90       ??$_To_address@PAPAV?$ConfigValue@H@@@std@@YA?A_PABQAPAV?$ConfigValue@H@@@Z 10005a90 f i TGFCfg.obj
 0001:00004a90       ??$_To_address@PAPAV?$ConfigValue@M@@@std@@YA?A_PABQAPAV?$ConfigValue@M@@@Z 10005a90 f i TGFCfg.obj
 0001:00004a90       ??$_To_address@PAPAV?$ConfigValue@_N@@@std@@YA?A_PABQAPAV?$ConfigValue@_N@@@Z 10005a90 f i TGFCfg.obj
 0001:00004a90       ??$_To_address@PAVAnimationLayer@@@std@@YA?A_PABQAVAnimationLayer@@@Z 10005a90 f i Hooks.obj
 0001:00004a90       ??$_To_address@PBD@std@@YA?A_PABQBD@Z 10005a90 f i Hooks.obj
 0001:00004ab0       ??$_Uninitialized_move@PAHV?$allocator@H@std@@@std@@YAPAHQAH0PAHAAV?$allocator@H@0@@Z 10005ab0 f i Aimbot.obj
 0001:00004ab0       ??$_Uninitialized_move@PAPAV?$ConfigValue@H@@V?$allocator@PAV?$ConfigValue@H@@@std@@@std@@YAPAPAV?$ConfigValue@H@@QAPAV1@0PAPAV1@AAV?$allocator@PAV?$ConfigValue@H@@@0@@Z 10005ab0 f i TGFCfg.obj
 0001:00004ab0       ??$_Uninitialized_move@PAPAV?$ConfigValue@M@@V?$allocator@PAV?$ConfigValue@M@@@std@@@std@@YAPAPAV?$ConfigValue@M@@QAPAV1@0PAPAV1@AAV?$allocator@PAV?$ConfigValue@M@@@0@@Z 10005ab0 f i TGFCfg.obj
 0001:00004ab0       ??$_Uninitialized_move@PAPAV?$ConfigValue@_N@@V?$allocator@PAV?$ConfigValue@_N@@@std@@@std@@YAPAPAV?$ConfigValue@_N@@QAPAV1@0PAPAV1@AAV?$allocator@PAV?$ConfigValue@_N@@@0@@Z 10005ab0 f i TGFCfg.obj
 0001:00004ba0       ??$construct@HH@?$_Default_allocator_traits@V?$allocator@H@std@@@std@@SAXAAV?$allocator@H@1@QAH$$QAH@Z 10005ba0 f i Aimbot.obj
 0001:00004ba0       ??$construct@PAV?$ConfigValue@H@@PAV1@@?$_Default_allocator_traits@V?$allocator@PAV?$ConfigValue@H@@@std@@@std@@SAXAAV?$allocator@PAV?$ConfigValue@H@@@1@QAPAV?$ConfigValue@H@@$$QAPAV3@@Z 10005ba0 f i TGFCfg.obj
 0001:00004ba0       ??$construct@PAV?$ConfigValue@M@@PAV1@@?$_Default_allocator_traits@V?$allocator@PAV?$ConfigValue@M@@@std@@@std@@SAXAAV?$allocator@PAV?$ConfigValue@M@@@1@QAPAV?$ConfigValue@M@@$$QAPAV3@@Z 10005ba0 f i TGFCfg.obj
 0001:00004ba0       ??$construct@PAV?$ConfigValue@_N@@PAV1@@?$_Default_allocator_traits@V?$allocator@PAV?$ConfigValue@_N@@@std@@@std@@SAXAAV?$allocator@PAV?$ConfigValue@_N@@@1@QAPAV?$ConfigValue@_N@@$$QAPAV3@@Z 10005ba0 f i TGFCfg.obj
 0001:00004bc0       ??0?$_Uninitialized_backout_al@V?$allocator@H@std@@@std@@QAE@PAHAAV?$allocator@H@1@@Z 10005bc0 f i Aimbot.obj
 0001:00004bc0       ??0?$_Uninitialized_backout_al@V?$allocator@PAV?$ConfigValue@H@@@std@@@std@@QAE@PAPAV?$ConfigValue@H@@AAV?$allocator@PAV?$ConfigValue@H@@@1@@Z 10005bc0 f i TGFCfg.obj
 0001:00004bc0       ??0?$_Uninitialized_backout_al@V?$allocator@PAV?$ConfigValue@M@@@std@@@std@@QAE@PAPAV?$ConfigValue@M@@AAV?$allocator@PAV?$ConfigValue@M@@@1@@Z 10005bc0 f i TGFCfg.obj
 0001:00004bc0       ??0?$_Uninitialized_backout_al@V?$allocator@PAV?$ConfigValue@_N@@@std@@@std@@QAE@PAPAV?$ConfigValue@_N@@AAV?$allocator@PAV?$ConfigValue@_N@@@1@@Z 10005bc0 f i TGFCfg.obj
 0001:00004bc0       ??0?$_Uninitialized_backout_al@V?$allocator@V?$basic_string@DU?$char_traits@D@std@@V?$allocator@D@2@@std@@@std@@@std@@QAE@PAV?$basic_string@DU?$char_traits@D@std@@V?$allocator@D@2@@1@AAV?$allocator@V?$basic_string@DU?$char_traits@D@std@@V?$allocator@D@2@@std@@@1@@Z 10005bc0 f i Menu.obj
 0001:00004bf0       ??0?$vector@HV?$allocator@H@std@@@std@@QAE@XZ 10005bf0 f i Aimbot.obj
 0001:00004bf0       ??0?$vector@PAV?$ConfigValue@H@@V?$allocator@PAV?$ConfigValue@H@@@std@@@std@@QAE@XZ 10005bf0 f i TGFCfg.obj
 0001:00004bf0       ??0?$vector@PAV?$ConfigValue@M@@V?$allocator@PAV?$ConfigValue@M@@@std@@@std@@QAE@XZ 10005bf0 f i TGFCfg.obj
 0001:00004bf0       ??0?$vector@PAV?$ConfigValue@_N@@V?$allocator@PAV?$ConfigValue@_N@@@std@@@std@@QAE@XZ 10005bf0 f i TGFCfg.obj
 0001:00004c30       ??0Aimbot@@QAE@XZ          10005c30 f i Aimbot.obj
 0001:00004c60       ??0C_Ray@@QAE@VVector@@0@Z 10005c60 f i Aimbot.obj
 0001:00004cb0       ??0C_Trace@@QAE@XZ         10005cb0 f i Aimbot.obj
 0001:00004ce0       ??0Vector@@QAE@MMM@Z       10005ce0 f i Aimbot.obj
 0001:00004d20       ??0VectorAligned@@QAE@XZ   10005d20 f i Aimbot.obj
 0001:00004d20       ??0cplane_t@@QAE@XZ        10005d20 f i Aimbot.obj
 0001:00004d40       ??1?$_Uninitialized_backout_al@V?$allocator@H@std@@@std@@QAE@XZ 10005d40 f i Aimbot.obj
 0001:00004d40       ??1?$_Uninitialized_backout_al@V?$allocator@PAV?$ConfigValue@H@@@std@@@std@@QAE@XZ 10005d40 f i TGFCfg.obj
 0001:00004d40       ??1?$_Uninitialized_backout_al@V?$allocator@PAV?$ConfigValue@M@@@std@@@std@@QAE@XZ 10005d40 f i TGFCfg.obj
 0001:00004d40       ??1?$_Uninitialized_backout_al@V?$allocator@PAV?$ConfigValue@_N@@@std@@@std@@QAE@XZ 10005d40 f i TGFCfg.obj
 0001:00004d70       ??1?$vector@HV?$allocator@H@std@@@std@@QAE@XZ 10005d70 f i Aimbot.obj
 0001:00004d70       ??1?$vector@PAV?$ConfigValue@H@@V?$allocator@PAV?$ConfigValue@H@@@std@@@std@@QAE@XZ 10005d70 f i TGFCfg.obj
 0001:00004d70       ??1?$vector@PAV?$ConfigValue@M@@V?$allocator@PAV?$ConfigValue@M@@@std@@@std@@QAE@XZ 10005d70 f i TGFCfg.obj
 0001:00004d70       ??1?$vector@PAV?$ConfigValue@_N@@V?$allocator@PAV?$ConfigValue@_N@@@std@@@std@@QAE@XZ 10005d70 f i TGFCfg.obj
 0001:00004d90       ??1_Reallocation_guard@?$vector@HV?$allocator@H@std@@@std@@QAE@XZ 10005d90 f i Aimbot.obj
 0001:00004d90       ??1_Reallocation_guard@?$vector@PAV?$ConfigValue@H@@V?$allocator@PAV?$ConfigValue@H@@@std@@@std@@QAE@XZ 10005d90 f i TGFCfg.obj
 0001:00004d90       ??1_Reallocation_guard@?$vector@PAV?$ConfigValue@M@@V?$allocator@PAV?$ConfigValue@M@@@std@@@std@@QAE@XZ 10005d90 f i TGFCfg.obj
 0001:00004d90       ??1_Reallocation_guard@?$vector@PAV?$ConfigValue@_N@@V?$allocator@PAV?$ConfigValue@_N@@@std@@@std@@QAE@XZ 10005d90 f i TGFCfg.obj
 0001:00004df0       ??4Vector@@QAEAAV0@ABV0@@Z 10005df0 f i Aimbot.obj
 0001:00004e30       ??4VectorAligned@@QAEAAV0@ABVVector@@@Z 10005e30 f i Aimbot.obj
 0001:00004e80       ??9Vector@@QBE_NABV0@@Z    10005e80 f i Aimbot.obj
 0001:00004ee0       ??DVector@@QBE?AV0@M@Z     10005ee0 f i Aimbot.obj
 0001:00004f40       ??GVector@@QBE?AV0@ABV0@@Z 10005f40 f i Aimbot.obj
 0001:00004fa0       ??HVector@@QBE?AV0@ABV0@@Z 10005fa0 f i Aimbot.obj
 0001:00005000       ??YVector@@QAEAAV0@ABV0@@Z 10006000 f i Aimbot.obj
 0001:00005060       ??ZVector@@QAEAAV0@ABV0@@Z 10006060 f i Aimbot.obj
 0001:000050c0       ?Autostop@Aimbot@@AAEXXZ   100060c0 f   Aimbot.obj
 0001:000051a0       ?GetAccuracyPenalty@C_BaseCombatWeapon@@QAEMXZ 100061a0 f i Aimbot.obj
 0001:00005260       ?GetAimPunchAngle@C_BaseEntity@@QAE?AVVector@@XZ 10006260 f i Aimbot.obj
 0001:00005290       ?GetCSWpnData@C_BaseCombatWeapon@@QAEPAVWeaponInfo_t@@XZ 10006290 f i Aimbot.obj
 0001:000052b0       ?GetEyeAngles@C_BaseEntity@@QAE?AVVector@@XZ 100062b0 f i Aimbot.obj
 0001:00005370       ?GetEyePosition@C_BaseEntity@@QAE?AVVector@@XZ 10006370 f i Aimbot.obj
 0001:000053b0       ?GetFlags@C_BaseEntity@@QAE?AW4EntityFlags@@XZ 100063b0 f i Aimbot.obj
 0001:00005470       ?GetFloat@ConVar@@QAEMXZ   10006470 f i Aimbot.obj
 0001:000054a0       ?GetInaccuracy@C_BaseCombatWeapon@@QAEMXZ 100064a0 f i Aimbot.obj
 0001:000054d0       ?GetLastShotTime@C_BaseCombatWeapon@@QAEMXZ 100064d0 f i Aimbot.obj
 0001:00005590       ?GetNextPrimaryAttack@C_BaseCombatWeapon@@QAEMXZ 10006590 f i Aimbot.obj
 0001:00005650       ?GetOrigin@C_BaseEntity@@QAE?AVVector@@XZ 10006650 f i Aimbot.obj
 0001:00005710       ?GetSimulationTime@C_BaseEntity@@QAEMXZ 10006710 f i Aimbot.obj
 0001:000057d0       ?GetSpread@C_BaseCombatWeapon@@QAEMXZ 100067d0 f i Aimbot.obj
 0001:00005800       ?GetTeam@C_BaseEntity@@QAEHXZ 10006800 f i Aimbot.obj
 0001:000058c0       ?GetVelocity@C_BaseEntity@@QAE?AVVector@@XZ 100068c0 f i Aimbot.obj
 0001:00005990       ?HitChance@Aimbot@@AAE_NPAVC_BaseEntity@@PAVC_BaseCombatWeapon@@VVector@@2H@Z 10006990 f   Aimbot.obj
 0001:00006200       ?Hitscan@Aimbot@@AAE?AVVector@@PAVC_BaseEntity@@@Z 10007200 f   Aimbot.obj
 0001:00007420       ?Init@C_Ray@@QAEXABVVector@@0@Z 10008420 f i Aimbot.obj
 0001:000074e0       ?Init@Vector@@QAEXMMM@Z    100084e0 f i Aimbot.obj
 0001:00007520       ?Length2D@Vector@@QBEMXZ   10008520 f i Aimbot.obj
 0001:00007580       ?Length@Vector@@QBEMXZ     10008580 f i Aimbot.obj
 0001:000075f0       ?LengthSqr@Vector@@QBEMXZ  100085f0 f i Aimbot.obj
 0001:00007640       ?Normalize@Vector@@QAE?AV1@XZ 10008640 f i Aimbot.obj
 0001:000076e0       ?NormalizeInPlace@Vector@@QAEMXZ 100086e0 f i Aimbot.obj
 0001:000077a0       ?OnCreateMove@Aimbot@@QAEXXZ 100087a0 f   Aimbot.obj
 0001:00007e40       ?ShouldBaim@@YA_NPAVC_BaseEntity@@@Z 10008e40 f   Aimbot.obj
 0001:00008160       ?_Calculate_growth@?$vector@HV?$allocator@H@std@@@std@@ABEII@Z 10009160 f i Aimbot.obj
 0001:00008160       ?_Calculate_growth@?$vector@PAV?$ConfigValue@H@@V?$allocator@PAV?$ConfigValue@H@@@std@@@std@@ABEII@Z 10009160 f i TGFCfg.obj
 0001:00008160       ?_Calculate_growth@?$vector@PAV?$ConfigValue@M@@V?$allocator@PAV?$ConfigValue@M@@@std@@@std@@ABEII@Z 10009160 f i TGFCfg.obj
 0001:00008160       ?_Calculate_growth@?$vector@PAV?$ConfigValue@_N@@V?$allocator@PAV?$ConfigValue@_N@@@std@@@std@@ABEII@Z 10009160 f i TGFCfg.obj
 0001:000081c0       ?_Change_array@?$vector@HV?$allocator@H@std@@@std@@AAEXQAHII@Z 100091c0 f i Aimbot.obj
 0001:000081c0       ?_Change_array@?$vector@PAV?$ConfigValue@H@@V?$allocator@PAV?$ConfigValue@H@@@std@@@std@@AAEXQAPAV?$ConfigValue@H@@II@Z 100091c0 f i TGFCfg.obj
 0001:000081c0       ?_Change_array@?$vector@PAV?$ConfigValue@M@@V?$allocator@PAV?$ConfigValue@M@@@std@@@std@@AAEXQAPAV?$ConfigValue@M@@II@Z 100091c0 f i TGFCfg.obj
 0001:000081c0       ?_Change_array@?$vector@PAV?$ConfigValue@_N@@V?$allocator@PAV?$ConfigValue@_N@@@std@@@std@@AAEXQAPAV?$ConfigValue@_N@@II@Z 100091c0 f i TGFCfg.obj
 0001:00008270       ?_Getblock@?$_Deque_val@U?$_Deque_simple_types@ULegitPlayerRecords@@@std@@@std@@QBEHI@Z 10009270 f i Legitbot.obj
 0001:00008270       ?_Getblock@?$_Deque_val@U?$_Deque_simple_types@UPlayerRecords@@@std@@@std@@QBEHI@Z 10009270 f i Aimbot.obj
 0001:00008290       ?_Myoff@?$deque@ULegitPlayerRecords@@V?$allocator@ULegitPlayerRecords@@@std@@@std@@AAEAAIXZ 10009290 f i Legitbot.obj
 0001:00008290       ?_Myoff@?$deque@UPlayerRecords@@V?$allocator@UPlayerRecords@@@std@@@std@@AAEAAIXZ 10009290 f i Aimbot.obj
 0001:000082b0       ?_Mysize@?$deque@ULegitPlayerRecords@@V?$allocator@ULegitPlayerRecords@@@std@@@std@@AAEAAIXZ 100092b0 f i Legitbot.obj
 0001:000082b0       ?_Mysize@?$deque@ULegitPlayerRecords@@V?$allocator@ULegitPlayerRecords@@@std@@@std@@ABEABIXZ 100092b0 f i Legitbot.obj
 0001:000082b0       ?_Mysize@?$deque@UPlayerRecords@@V?$allocator@UPlayerRecords@@@std@@@std@@AAEAAIXZ 100092b0 f i Aimbot.obj
 0001:000082b0       ?_Mysize@?$deque@UPlayerRecords@@V?$allocator@UPlayerRecords@@@std@@@std@@ABEABIXZ 100092b0 f i Aimbot.obj
 0001:000082d0       ?_Orphan_range@?$vector@HV?$allocator@H@std@@@std@@ABEXPAH0@Z 100092d0 f i Aimbot.obj
 0001:000082d0       ?_Orphan_range@?$vector@PAV?$ConfigValue@H@@V?$allocator@PAV?$ConfigValue@H@@@std@@@std@@ABEXPAPAV?$ConfigValue@H@@0@Z 100092d0 f i TGFCfg.obj
 0001:000082d0       ?_Orphan_range@?$vector@PAV?$ConfigValue@M@@V?$allocator@PAV?$ConfigValue@M@@@std@@@std@@ABEXPAPAV?$ConfigValue@M@@0@Z 100092d0 f i TGFCfg.obj
 0001:000082d0       ?_Orphan_range@?$vector@PAV?$ConfigValue@_N@@V?$allocator@PAV?$ConfigValue@_N@@@std@@@std@@ABEXPAPAV?$ConfigValue@_N@@0@Z 100092d0 f i TGFCfg.obj
 0001:000082e0       ?_Subscript@?$_Deque_val@U?$_Deque_simple_types@UPlayerRecords@@@std@@@std@@QAEAAUPlayerRecords@@I@Z 100092e0 f i Aimbot.obj
 0001:000082e0       ?_Subscript@?$_Deque_val@U?$_Deque_simple_types@UPlayerRecords@@@std@@@std@@QBEABUPlayerRecords@@I@Z 100092e0 f i LagComp.obj
 0001:00008330       ?_Subscript@?$deque@UPlayerRecords@@V?$allocator@UPlayerRecords@@@std@@@std@@AAEAAUPlayerRecords@@I@Z 10009330 f i Aimbot.obj
 0001:00008370       ?_Tidy@?$vector@HV?$allocator@H@std@@@std@@AAEXXZ 10009370 f i Aimbot.obj
 0001:00008370       ?_Tidy@?$vector@PAV?$ConfigValue@H@@V?$allocator@PAV?$ConfigValue@H@@@std@@@std@@AAEXXZ 10009370 f i TGFCfg.obj
 0001:00008370       ?_Tidy@?$vector@PAV?$ConfigValue@M@@V?$allocator@PAV?$ConfigValue@M@@@std@@@std@@AAEXXZ 10009370 f i TGFCfg.obj
 0001:00008370       ?_Tidy@?$vector@PAV?$ConfigValue@_N@@V?$allocator@PAV?$ConfigValue@_N@@@std@@@std@@AAEXXZ 10009370 f i TGFCfg.obj
 0001:00008410       ?_Unchecked_begin@?$vector@HV?$allocator@H@std@@@std@@QAEPAHXZ 10009410 f i Aimbot.obj
 0001:00008410       ?_Unchecked_begin@?$vector@PAV?$ConfigValue@H@@V?$allocator@PAV?$ConfigValue@H@@@std@@@std@@QAEPAPAV?$ConfigValue@H@@XZ 10009410 f i TGFCfg.obj
 0001:00008410       ?_Unchecked_begin@?$vector@PAV?$ConfigValue@M@@V?$allocator@PAV?$ConfigValue@M@@@std@@@std@@QAEPAPAV?$ConfigValue@M@@XZ 10009410 f i TGFCfg.obj
 0001:00008410       ?_Unchecked_begin@?$vector@PAV?$ConfigValue@_N@@V?$allocator@PAV?$ConfigValue@_N@@@std@@@std@@QAEPAPAV?$ConfigValue@_N@@XZ 10009410 f i TGFCfg.obj
 0001:00008430       ?_Unchecked_end@?$vector@HV?$allocator@H@std@@@std@@QAEPAHXZ 10009430 f i Aimbot.obj
 0001:00008430       ?_Unchecked_end@?$vector@PAV?$ConfigValue@H@@V?$allocator@PAV?$ConfigValue@H@@@std@@@std@@QAEPAPAV?$ConfigValue@H@@XZ 10009430 f i TGFCfg.obj
 0001:00008430       ?_Unchecked_end@?$vector@PAV?$ConfigValue@M@@V?$allocator@PAV?$ConfigValue@M@@@std@@@std@@QAEPAPAV?$ConfigValue@M@@XZ 10009430 f i TGFCfg.obj
 0001:00008430       ?_Unchecked_end@?$vector@PAV?$ConfigValue@_N@@V?$allocator@PAV?$ConfigValue@_N@@@std@@@std@@QAEPAPAV?$ConfigValue@_N@@XZ 10009430 f i TGFCfg.obj
 0001:00008450       ?_Xlength@?$vector@HV?$allocator@H@std@@@std@@CAXXZ 10009450 f i Aimbot.obj
 0001:00008450       ?_Xlength@?$vector@PAV?$ConfigValue@H@@V?$allocator@PAV?$ConfigValue@H@@@std@@@std@@CAXXZ 10009450 f i TGFCfg.obj
 0001:00008450       ?_Xlength@?$vector@PAV?$ConfigValue@M@@V?$allocator@PAV?$ConfigValue@M@@@std@@@std@@CAXXZ 10009450 f i TGFCfg.obj
 0001:00008450       ?_Xlength@?$vector@PAV?$ConfigValue@_N@@V?$allocator@PAV?$ConfigValue@_N@@@std@@@std@@CAXXZ 10009450 f i TGFCfg.obj
 0001:00008450       ?_Xlength@?$vector@V?$basic_string@DU?$char_traits@D@std@@V?$allocator@D@2@@std@@V?$allocator@V?$basic_string@DU?$char_traits@D@std@@V?$allocator@D@2@@std@@@2@@std@@CAXXZ 10009450 f i Menu.obj
 0001:00008460       ?_Xran@?$deque@ULegitPlayerRecords@@V?$allocator@ULegitPlayerRecords@@@std@@@std@@CAXXZ 10009460 f i Legitbot.obj
 0001:00008460       ?_Xran@?$deque@UPlayerRecords@@V?$allocator@UPlayerRecords@@@std@@@std@@CAXXZ 10009460 f i Aimbot.obj
 0001:00008470       ?abs@@YAMM@Z               10009470 f i Aimbot.obj
 0001:00008470       ?fabs@@YAMM@Z              10009470 f i Aimbot.obj
 0001:00008490       ?at@?$deque@UPlayerRecords@@V?$allocator@UPlayerRecords@@@std@@@std@@QAEAAUPlayerRecords@@I@Z 10009490 f i Aimbot.obj
 0001:000084c0       ?capacity@?$vector@HV?$allocator@H@std@@@std@@QBEIXZ 100094c0 f i Aimbot.obj
 0001:000084c0       ?capacity@?$vector@PAV?$ConfigValue@H@@V?$allocator@PAV?$ConfigValue@H@@@std@@@std@@QBEIXZ 100094c0 f i TGFCfg.obj
 0001:000084c0       ?capacity@?$vector@PAV?$ConfigValue@M@@V?$allocator@PAV?$ConfigValue@M@@@std@@@std@@QBEIXZ 100094c0 f i TGFCfg.obj
 0001:000084c0       ?capacity@?$vector@PAV?$ConfigValue@_N@@V?$allocator@PAV?$ConfigValue@_N@@@std@@@std@@QBEIXZ 100094c0 f i TGFCfg.obj
 0001:000084f0       ?cos@@YAMM@Z               100094f0 f i Aimbot.obj
 0001:00008510       ?fmax@@YAMMM@Z             10009510 f i Aimbot.obj
 0001:00008540       ?max_size@?$vector@HV?$allocator@H@std@@@std@@QBEIXZ 10009540 f i Aimbot.obj
 0001:00008540       ?max_size@?$vector@PAV?$ConfigValue@H@@V?$allocator@PAV?$ConfigValue@H@@@std@@@std@@QBEIXZ 10009540 f i TGFCfg.obj
 0001:00008540       ?max_size@?$vector@PAV?$ConfigValue@M@@V?$allocator@PAV?$ConfigValue@M@@@std@@@std@@QBEIXZ 10009540 f i TGFCfg.obj
 0001:00008540       ?max_size@?$vector@PAV?$ConfigValue@_N@@V?$allocator@PAV?$ConfigValue@_N@@@std@@@std@@QBEIXZ 10009540 f i TGFCfg.obj
 0001:00008580       ?push_back@?$vector@HV?$allocator@H@std@@@std@@QAEX$$QAH@Z 10009580 f i Aimbot.obj
 0001:00008580       ?push_back@?$vector@PAV?$ConfigValue@H@@V?$allocator@PAV?$ConfigValue@H@@@std@@@std@@QAEX$$QAPAV?$ConfigValue@H@@@Z 10009580 f i TGFCfg.obj
 0001:00008580       ?push_back@?$vector@PAV?$ConfigValue@M@@V?$allocator@PAV?$ConfigValue@M@@@std@@@std@@QAEX$$QAPAV?$ConfigValue@M@@@Z 10009580 f i TGFCfg.obj
 0001:00008580       ?push_back@?$vector@PAV?$ConfigValue@_N@@V?$allocator@PAV?$ConfigValue@_N@@@std@@@std@@QAEX$$QAPAV?$ConfigValue@_N@@@Z 10009580 f i TGFCfg.obj
 0001:000085a0       ?sin@@YAMM@Z               100095a0 f i Aimbot.obj
 0001:000085c0       ?size@?$deque@ULegitPlayerRecords@@V?$allocator@ULegitPlayerRecords@@@std@@@std@@QBEIXZ 100095c0 f i Legitbot.obj
 0001:000085c0       ?size@?$deque@UPlayerRecords@@V?$allocator@UPlayerRecords@@@std@@@std@@QBEIXZ 100095c0 f i Aimbot.obj
 0001:000085e0       ?sqrt@@YAMM@Z              100095e0 f i Aimbot.obj
 0001:00008600       _cosf                      10009600 f i Aimbot.obj
 0001:00008620       _fabsf                     10009620 f i Aimbot.obj
 0001:00008640       _sinf                      10009640 f i Aimbot.obj
 0001:00008660       _sqrtf                     10009660 f i Aimbot.obj
 0001:00008680       ??$pow@MN$0A@@@YANMN@Z     10009680 f i Autowall.obj
 0001:000086b0       ??0C_TraceFilter@@QAE@PAVC_BaseEntity@@W4TraceType_t@@@Z 100096b0 f i Autowall.obj
 0001:000086e0       ??0FireBulletData@@QAE@ABVVector@@PAVC_BaseEntity@@@Z 100096e0 f i Autowall.obj
 0001:00008740       ??0ITraceFilter@@QAE@XZ    10009740 f i Autowall.obj
 0001:00008760       ??4C_Trace@@QAEAAU0@ABU0@@Z 10009760 f i Autowall.obj
 0001:00008830       ??4cplane_t@@QAEAAU0@ABU0@@Z 10009830 f i Autowall.obj
 0001:000088a0       ??_0Vector@@QAEAAV0@M@Z    100098a0 f i Autowall.obj
 0001:00008910       ?ArmorValue@C_BaseEntity@@QAEHXZ 10009910 f i Autowall.obj
 0001:000089d0       ?CanHitFloatingPoint@Autowall@@QAE_NABVVector@@0@Z 100099d0 f   Autowall.obj
 0001:00008bb0       ?Damage@Autowall@@QAEMABVVector@@@Z 10009bb0 f   Autowall.obj
 0001:00008cc0       ?Dot@Vector@@QBEMABV1@@Z   10009cc0 f i Autowall.obj
 0001:00008d20       ?GetHitgroupDamageMult@@YAMH@Z 10009d20 f   Autowall.obj
 0001:00008d80       ?GetTraceType@C_TraceFilter@@UBE?AW4TraceType_t@@XZ 10009d80 f i Autowall.obj
 0001:00008d90       ?HandleBulletPenetration@@YA_NPAVWeaponInfo_t@@AAUFireBulletData@@_NVVector@@@Z 10009d90 f   Autowall.obj
 0001:000091e0       ?HasHelmet@C_BaseEntity@@QAE_NXZ 1000a1e0 f i Autowall.obj
 0001:000092a0       ?ScaleDamage@@YAXHPAVC_BaseEntity@@MAAM@Z 1000a2a0 f   Autowall.obj
 0001:00009390       ?ShouldHitEntity@C_TraceFilter@@UAE_NPAXH@Z 1000a390 f i Autowall.obj
 0001:000093c0       ?SimulateFireBullet@@YA_NPAVC_BaseEntity@@PAVC_BaseCombatWeapon@@AAUFireBulletData@@@Z 1000a3c0 f   Autowall.obj
 0001:00009630       ?TraceLine@@YAXAAVVector@@0IPAVC_BaseEntity@@PAUC_Trace@@@Z 1000a630 f   Autowall.obj
 0001:000096d0       ?TraceToExitalt@@YA_NAAVVector@@PAUC_Trace@@V1@21@Z 1000a6d0 f   Autowall.obj
 0001:000099e0       ?UTIL_ClipTraceToPlayers@@YAXABVVector@@0IPAVITraceFilter@@PAUC_Trace@@@Z 1000a9e0 f   Autowall.obj
 0001:00009d60       ?VectorLength@@YAMABVVector@@@Z 1000ad60 f i Autowall.obj
 0001:00009db0       ?VectorNormalize@@YAMAAVVector@@@Z 1000adb0 f i Autowall.obj
 0001:00009e20       ?VectortoVectorVisible@@YA_NVVector@@0@Z 1000ae20 f   Autowall.obj
 0001:00009ec0       ??$?0$$V@?$_Compressed_pair@V?$allocator@ULegitPlayerRecords@@@std@@V?$_Deque_val@U?$_Deque_simple_types@ULegitPlayerRecords@@@std@@@2@$00@std@@QAE@U_Zero_then_variadic_args_t@1@@Z 1000aec0 f i Legitbot.obj
 0001:00009ec0       ??$?0$$V@?$_Compressed_pair@V?$allocator@UPlayerRecords@@@std@@V?$_Deque_val@U?$_Deque_simple_types@UPlayerRecords@@@std@@@2@$00@std@@QAE@U_Zero_then_variadic_args_t@1@@Z 1000aec0 f i LagComp.obj
 0001:00009ef0       ??$_Alloc_proxy@V?$allocator@U_Container_proxy@std@@@std@@@_Container_base12@std@@QAEX$$QAV?$allocator@U_Container_proxy@std@@@1@@Z 1000aef0 f i LagComp.obj
 0001:00009f40       ??$_Construct_in_place@U_Container_proxy@std@@PAU_Container_base12@2@@std@@YAXAAU_Container_proxy@0@$$QAPAU_Container_base12@0@@Z 1000af40 f i LagComp.obj
 0001:00009fa0       ??$_Construct_in_place_by_deref@PAULegitPlayerRecords@@PAPAU1@@std@@YAXAAPAULegitPlayerRecords@@AAPAPAU1@@Z 1000afa0 f i Legitbot.obj
 0001:00009fa0       ??$_Construct_in_place_by_deref@PAUPlayerRecords@@PAPAU1@@std@@YAXAAPAUPlayerRecords@@AAPAPAU1@@Z 1000afa0 f i LagComp.obj
 0001:00009fd0       ??$_Deallocate_plain@V?$allocator@U_Container_proxy@std@@@std@@@std@@YAXAAV?$allocator@U_Container_proxy@std@@@0@QAU_Container_proxy@0@@Z 1000afd0 f i LagComp.obj
 0001:00009ff0       ??$_Delete_plain_internal@V?$allocator@U_Container_proxy@std@@@std@@@std@@YAXAAV?$allocator@U_Container_proxy@std@@@0@QAU_Container_proxy@0@@Z 1000aff0 f i LagComp.obj
 0001:0000a010       ??$_Emplace_back_deref@PAPAULegitPlayerRecords@@@?$_Uninitialized_backout@PAPAULegitPlayerRecords@@@std@@QAEXAAPAPAULegitPlayerRecords@@@Z 1000b010 f i Legitbot.obj
 0001:0000a010       ??$_Emplace_back_deref@PAPAUPlayerRecords@@@?$_Uninitialized_backout@PAPAUPlayerRecords@@@std@@QAEXAAPAPAUPlayerRecords@@@Z 1000b010 f i LagComp.obj
 0001:0000a040       ??$_Emplace_back_internal@ABUPlayerRecords@@@?$deque@UPlayerRecords@@V?$allocator@UPlayerRecords@@@std@@@std@@AAEXABUPlayerRecords@@@Z 1000b040 f i LagComp.obj
 0001:0000a190       ??$_Get_size_of_n@$07@std@@YAII@Z 1000b190 f i LagComp.obj
 0001:0000a1c0       ??$_Get_size_of_n@$0BIAM@@std@@YAII@Z 1000b1c0 f i LagComp.obj
 0001:0000a1f0       ??$_Idl_distance@PAPAULegitPlayerRecords@@PAPAU1@@std@@YA?A_PABQAPAULegitPlayerRecords@@0@Z 1000b1f0 f i Legitbot.obj
 0001:0000a1f0       ??$_Idl_distance@PAPAUPlayerRecords@@PAPAU1@@std@@YA?A_PABQAPAUPlayerRecords@@0@Z 1000b1f0 f i LagComp.obj
 0001:0000a1f0       ??$_Idl_distance@V?$_Array_iterator@M$0BI@@std@@PAM@std@@YA?A_PABQAM0@Z 1000b1f0 f i Hooks.obj
 0001:0000a210       ??$_Idl_distance@V?$_Deque_unchecked_iterator@V?$_Deque_val@U?$_Deque_simple_types@ULegitPlayerRecords@@@std@@@std@@@std@@V12@@std@@YA?A_PABV?$_Deque_unchecked_iterator@V?$_Deque_val@U?$_Deque_simple_types@ULegitPlayerRecords@@@std@@@std@@@0@0@Z 1000b210 f i Legitbot.obj
 0001:0000a210       ??$_Idl_distance@V?$_Deque_unchecked_iterator@V?$_Deque_val@U?$_Deque_simple_types@UPlayerRecords@@@std@@@std@@@std@@V12@@std@@YA?A_PABV?$_Deque_unchecked_iterator@V?$_Deque_val@U?$_Deque_simple_types@UPlayerRecords@@@std@@@std@@@0@0@Z 1000b210 f i LagComp.obj
 0001:0000a230       ??$_Move_backward_unchecked@V?$_Deque_unchecked_iterator@V?$_Deque_val@U?$_Deque_simple_types@UPlayerRecords@@@std@@@std@@@std@@V12@@std@@YA?AV?$_Deque_unchecked_iterator@V?$_Deque_val@U?$_Deque_simple_types@UPlayerRecords@@@std@@@std@@@0@V10@00@Z 1000b230 f i LagComp.obj
 0001:0000a2a0       ??$_Move_unchecked@V?$_Deque_unchecked_iterator@V?$_Deque_val@U?$_Deque_simple_types@UPlayerRecords@@@std@@@std@@@std@@V12@@std@@YA?AV?$_Deque_unchecked_iterator@V?$_Deque_val@U?$_Deque_simple_types@UPlayerRecords@@@std@@@std@@@0@V10@00@Z 1000b2a0 f i LagComp.obj
 0001:0000a310       ??$_Next_iter@V?$_Deque_const_iterator@V?$_Deque_val@U?$_Deque_simple_types@ULegitPlayerRecords@@@std@@@std@@@std@@@std@@YA?AV?$_Deque_const_iterator@V?$_Deque_val@U?$_Deque_simple_types@ULegitPlayerRecords@@@std@@@std@@@0@V10@@Z 1000b310 f i Legitbot.obj
 0001:0000a310       ??$_Next_iter@V?$_Deque_const_iterator@V?$_Deque_val@U?$_Deque_simple_types@UPlayerRecords@@@std@@@std@@@std@@@std@@YA?AV?$_Deque_const_iterator@V?$_Deque_val@U?$_Deque_simple_types@UPlayerRecords@@@std@@@std@@@0@V10@@Z 1000b310 f i LagComp.obj
 0001:0000a330       ??$_Seek_wrapped@PADAAPAD@std@@YAXAAPAD0@Z 1000b330 f i Hooks.obj
 0001:0000a330       ??$_Seek_wrapped@PADPAD@std@@YAXAAPAD$$QAPAD@Z 1000b330 f i Hooks.obj
 0001:0000a330       ??$_Seek_wrapped@PAPAULegitPlayerRecords@@PAPAU1@@std@@YAXAAPAPAULegitPlayerRecords@@$$QAPAPAU1@@Z 1000b330 f i Legitbot.obj
 0001:0000a330       ??$_Seek_wrapped@PAPAUPlayerRecords@@PAPAU1@@std@@YAXAAPAPAUPlayerRecords@@$$QAPAPAU1@@Z 1000b330 f i LagComp.obj
 0001:0000a330       ??$_Seek_wrapped@PAVAnimationLayer@@PAV1@@std@@YAXAAPAVAnimationLayer@@$$QAPAV1@@Z 1000b330 f i Hooks.obj
 0001:0000a330       ??$_Seek_wrapped@PBIAAPBI@std@@YAXAAPBI0@Z 1000b330 f i Hooks.obj
 0001:0000a330       ??$_Seek_wrapped@PB_KAAPB_K@std@@YAXAAPB_K0@Z 1000b330 f i Hooks.obj
 0001:0000a340       ??$_Seek_wrapped@V?$_Deque_unchecked_iterator@V?$_Deque_val@U?$_Deque_simple_types@ULegitPlayerRecords@@@std@@@std@@@std@@V12@@std@@YAXAAV?$_Deque_unchecked_iterator@V?$_Deque_val@U?$_Deque_simple_types@ULegitPlayerRecords@@@std@@@std@@@0@$$QAV10@@Z 1000b340 f i Legitbot.obj
 0001:0000a340       ??$_Seek_wrapped@V?$_Deque_unchecked_iterator@V?$_Deque_val@U?$_Deque_simple_types@UPlayerRecords@@@std@@@std@@@std@@V12@@std@@YAXAAV?$_Deque_unchecked_iterator@V?$_Deque_val@U?$_Deque_simple_types@UPlayerRecords@@@std@@@std@@@0@$$QAV10@@Z 1000b340 f i LagComp.obj
 0001:0000a360       ??$_Uninitialized_copy_unchecked@PAPAULegitPlayerRecords@@PAPAU1@@std@@YAPAPAULegitPlayerRecords@@PAPAU1@QAPAU1@0@Z 1000b360 f i Legitbot.obj
 0001:0000a360       ??$_Uninitialized_copy_unchecked@PAPAUPlayerRecords@@PAPAU1@@std@@YAPAPAUPlayerRecords@@PAPAU1@QAPAU1@0@Z 1000b360 f i LagComp.obj
 0001:0000a400       ??$_Uninitialized_value_construct_n_unchecked1@PAPAULegitPlayerRecords@@I@std@@YAPAPAULegitPlayerRecords@@PAPAU1@I@Z 1000b400 f i Legitbot.obj
 0001:0000a400       ??$_Uninitialized_value_construct_n_unchecked1@PAPAUPlayerRecords@@I@std@@YAPAPAUPlayerRecords@@PAPAU1@I@Z 1000b400 f i LagComp.obj
 0001:0000a420       ??$_Zero_range@PAPAULegitPlayerRecords@@@std@@YAPAPAULegitPlayerRecords@@QAPAU1@0@Z 1000b420 f i Legitbot.obj
 0001:0000a420       ??$_Zero_range@PAPAUPlayerRecords@@@std@@YAPAPAUPlayerRecords@@QAPAU1@0@Z 1000b420 f i LagComp.obj
 0001:0000a460       ??$__builtin_array_init_helper_eh@V?$deque@UPlayerRecords@@V?$allocator@UPlayerRecords@@@std@@@std@@@@YAXPAV?$deque@UPlayerRecords@@V?$allocator@UPlayerRecords@@@std@@@std@@IP6EXPAX@Z@Z 1000b460 f i LagComp.obj
 0001:0000a520       ??$__call_empty_init_list_helper@V?$deque@UPlayerRecords@@V?$allocator@UPlayerRecords@@@std@@@std@@@@YAXPAV?$deque@UPlayerRecords@@V?$allocator@UPlayerRecords@@@std@@@std@@@Z 1000b520 f i LagComp.obj
 0001:0000a530       ??$clamp@MM@LagComp@@QAEMMMM@Z 1000b530 f i LagComp.obj
 0001:0000a560       ??$construct@UPlayerRecords@@ABU1@@?$_Default_allocator_traits@V?$allocator@UPlayerRecords@@@std@@@std@@SAXAAV?$allocator@UPlayerRecords@@@1@QAUPlayerRecords@@ABU3@@Z 1000b560 f i LagComp.obj
 0001:0000a580       ??$construct_at@UPlayerRecords@@ABU1@@std@@YAPAUPlayerRecords@@QAU1@ABU1@@Z 1000b580 f i LagComp.obj
 0001:0000a5c0       ??$construct_at@U_Container_proxy@std@@PAU_Container_base12@2@@std@@YAPAU_Container_proxy@0@QAU10@$$QAPAU_Container_base12@0@@Z 1000b5c0 f i LagComp.obj
 0001:0000a5f0       ??$move@V?$_Deque_unchecked_iterator@V?$_Deque_val@U?$_Deque_simple_types@UPlayerRecords@@@std@@@std@@@std@@V12@@std@@YA?AV?$_Deque_unchecked_iterator@V?$_Deque_val@U?$_Deque_simple_types@UPlayerRecords@@@std@@@std@@@0@V10@00@Z 1000b5f0 f i LagComp.obj
 0001:0000a6b0       ??$move_backward@V?$_Deque_unchecked_iterator@V?$_Deque_val@U?$_Deque_simple_types@UPlayerRecords@@@std@@@std@@@std@@V12@@std@@YA?AV?$_Deque_unchecked_iterator@V?$_Deque_val@U?$_Deque_simple_types@UPlayerRecords@@@std@@@std@@@0@V10@00@Z 1000b6b0 f i LagComp.obj
 0001:0000a770       ??$uninitialized_copy@PAPAULegitPlayerRecords@@PAPAU1@@std@@YAPAPAULegitPlayerRecords@@QAPAU1@0PAPAU1@@Z 1000b770 f i Legitbot.obj
 0001:0000a770       ??$uninitialized_copy@PAPAUPlayerRecords@@PAPAU1@@std@@YAPAPAUPlayerRecords@@QAPAU1@0PAPAU1@@Z 1000b770 f i LagComp.obj
 0001:0000a800       ??0?$_Deque_const_iterator@V?$_Deque_val@U?$_Deque_simple_types@ULegitPlayerRecords@@@std@@@std@@@std@@QAE@$$QAV01@@Z 1000b800 f i Legitbot.obj
 0001:0000a800       ??0?$_Deque_const_iterator@V?$_Deque_val@U?$_Deque_simple_types@ULegitPlayerRecords@@@std@@@std@@@std@@QAE@ABV01@@Z 1000b800 f i Legitbot.obj
 0001:0000a800       ??0?$_Deque_const_iterator@V?$_Deque_val@U?$_Deque_simple_types@UPlayerRecords@@@std@@@std@@@std@@QAE@$$QAV01@@Z 1000b800 f i LagComp.obj
 0001:0000a800       ??0?$_Deque_const_iterator@V?$_Deque_val@U?$_Deque_simple_types@UPlayerRecords@@@std@@@std@@@std@@QAE@ABV01@@Z 1000b800 f i LagComp.obj
 0001:0000a830       ??0?$_Deque_const_iterator@V?$_Deque_val@U?$_Deque_simple_types@ULegitPlayerRecords@@@std@@@std@@@std@@QAE@IPBU_Container_base12@1@@Z 1000b830 f i Legitbot.obj
 0001:0000a830       ??0?$_Deque_const_iterator@V?$_Deque_val@U?$_Deque_simple_types@UPlayerRecords@@@std@@@std@@@std@@QAE@IPBU_Container_base12@1@@Z 1000b830 f i LagComp.obj
 0001:0000a860       ??0?$_Deque_iterator@V?$_Deque_val@U?$_Deque_simple_types@ULegitPlayerRecords@@@std@@@std@@@std@@QAE@$$QAV01@@Z 1000b860 f i Legitbot.obj
 0001:0000a860       ??0?$_Deque_iterator@V?$_Deque_val@U?$_Deque_simple_types@ULegitPlayerRecords@@@std@@@std@@@std@@QAE@ABV01@@Z 1000b860 f i Legitbot.obj
 0001:0000a860       ??0?$_Deque_iterator@V?$_Deque_val@U?$_Deque_simple_types@UPlayerRecords@@@std@@@std@@@std@@QAE@$$QAV01@@Z 1000b860 f i LagComp.obj
 0001:0000a860       ??0?$_Deque_iterator@V?$_Deque_val@U?$_Deque_simple_types@UPlayerRecords@@@std@@@std@@@std@@QAE@ABV01@@Z 1000b860 f i LagComp.obj
 0001:0000a880       ??0?$_Deque_iterator@V?$_Deque_val@U?$_Deque_simple_types@ULegitPlayerRecords@@@std@@@std@@@std@@QAE@IPBU_Container_base12@1@@Z 1000b880 f i Legitbot.obj
 0001:0000a880       ??0?$_Deque_iterator@V?$_Deque_val@U?$_Deque_simple_types@UPlayerRecords@@@std@@@std@@@std@@QAE@IPBU_Container_base12@1@@Z 1000b880 f i LagComp.obj
 0001:0000a8b0       ??0?$_Deque_unchecked_const_iterator@V?$_Deque_val@U?$_Deque_simple_types@ULegitPlayerRecords@@@std@@@std@@@std@@QAE@IPBU_Container_base12@1@@Z 1000b8b0 f i Legitbot.obj
 0001:0000a8b0       ??0?$_Deque_unchecked_const_iterator@V?$_Deque_val@U?$_Deque_simple_types@UPlayerRecords@@@std@@@std@@@std@@QAE@IPBU_Container_base12@1@@Z 1000b8b0 f i LagComp.obj
 0001:0000a8e0       ??0?$_Deque_unchecked_iterator@V?$_Deque_val@U?$_Deque_simple_types@ULegitPlayerRecords@@@std@@@std@@@std@@QAE@IPBU_Container_base12@1@@Z 1000b8e0 f i Legitbot.obj
 0001:0000a8e0       ??0?$_Deque_unchecked_iterator@V?$_Deque_val@U?$_Deque_simple_types@UPlayerRecords@@@std@@@std@@@std@@QAE@IPBU_Container_base12@1@@Z 1000b8e0 f i LagComp.obj
 0001:0000a910       ??0?$_Deque_val@U?$_Deque_simple_types@ULegitPlayerRecords@@@std@@@std@@QAE@XZ 1000b910 f i Legitbot.obj
 0001:0000a910       ??0?$_Deque_val@U?$_Deque_simple_types@UPlayerRecords@@@std@@@std@@QAE@XZ 1000b910 f i LagComp.obj
 0001:0000a950       ??0?$deque@ULegitPlayerRecords@@V?$allocator@ULegitPlayerRecords@@@std@@@std@@QAE@XZ 1000b950 f i Legitbot.obj
 0001:0000a950       ??0?$deque@UPlayerRecords@@V?$allocator@UPlayerRecords@@@std@@@std@@QAE@XZ 1000b950 f i LagComp.obj
 0001:0000a9a0       ??0LagComp@@QAE@XZ         1000b9a0 f i LagComp.obj
 0001:0000a9d0       ??0PlayerRecords@@QAE@XZ   1000b9d0 f i LagComp.obj
 0001:0000aa00       ??0_Container_base12@std@@QAE@XZ 1000ba00 f i LagComp.obj
 0001:0000aa00       ??0_Lazy_locale@std@@QAE@XZ 1000ba00 f i Hooks.obj
 0001:0000aa20       ??0_Iterator_base12@std@@QAE@ABU01@@Z 1000ba20 f i LagComp.obj
 0001:0000aa50       ??1?$deque@UPlayerRecords@@V?$allocator@UPlayerRecords@@@std@@@std@@QAE@XZ 1000ba50 f i LagComp.obj
 0001:0000aaa0       ??1LagComp@@QAE@XZ         1000baa0 f i LagComp.obj
 0001:0000ab00       ??8?$_Deque_unchecked_const_iterator@V?$_Deque_val@U?$_Deque_simple_types@ULegitPlayerRecords@@@std@@@std@@@std@@QBE_NABV01@@Z 1000bb00 f i Legitbot.obj
 0001:0000ab00       ??8?$_Deque_unchecked_const_iterator@V?$_Deque_val@U?$_Deque_simple_types@UPlayerRecords@@@std@@@std@@@std@@QBE_NABV01@@Z 1000bb00 f i LagComp.obj
 0001:0000ab40       ??D?$_Deque_unchecked_const_iterator@V?$_Deque_val@U?$_Deque_simple_types@UPlayerRecords@@@std@@@std@@@std@@QBEABUPlayerRecords@@XZ 1000bb40 f i LagComp.obj
 0001:0000ab70       ??D?$_Deque_unchecked_iterator@V?$_Deque_val@U?$_Deque_simple_types@UPlayerRecords@@@std@@@std@@@std@@QBEAAUPlayerRecords@@XZ 1000bb70 f i LagComp.obj
 0001:0000ab90       ??E?$_Deque_const_iterator@V?$_Deque_val@U?$_Deque_simple_types@ULegitPlayerRecords@@@std@@@std@@@std@@QAEAAV01@XZ 1000bb90 f i Legitbot.obj
 0001:0000ab90       ??E?$_Deque_const_iterator@V?$_Deque_val@U?$_Deque_simple_types@UPlayerRecords@@@std@@@std@@@std@@QAEAAV01@XZ 1000bb90 f i LagComp.obj
 0001:0000abb0       ??E?$_Deque_unchecked_const_iterator@V?$_Deque_val@U?$_Deque_simple_types@ULegitPlayerRecords@@@std@@@std@@@std@@QAEAAV01@XZ 1000bbb0 f i Legitbot.obj
 0001:0000abb0       ??E?$_Deque_unchecked_const_iterator@V?$_Deque_val@U?$_Deque_simple_types@UPlayerRecords@@@std@@@std@@@std@@QAEAAV01@XZ 1000bbb0 f i LagComp.obj
 0001:0000abd0       ??E?$_Deque_unchecked_iterator@V?$_Deque_val@U?$_Deque_simple_types@ULegitPlayerRecords@@@std@@@std@@@std@@QAEAAV01@XZ 1000bbd0 f i Legitbot.obj
 0001:0000abd0       ??E?$_Deque_unchecked_iterator@V?$_Deque_val@U?$_Deque_simple_types@UPlayerRecords@@@std@@@std@@@std@@QAEAAV01@XZ 1000bbd0 f i LagComp.obj
 0001:0000abf0       ??F?$_Deque_unchecked_const_iterator@V?$_Deque_val@U?$_Deque_simple_types@ULegitPlayerRecords@@@std@@@std@@@std@@QAEAAV01@XZ 1000bbf0 f i Legitbot.obj
 0001:0000abf0       ??F?$_Deque_unchecked_const_iterator@V?$_Deque_val@U?$_Deque_simple_types@UPlayerRecords@@@std@@@std@@@std@@QAEAAV01@XZ 1000bbf0 f i LagComp.obj
 0001:0000ac10       ??F?$_Deque_unchecked_iterator@V?$_Deque_val@U?$_Deque_simple_types@ULegitPlayerRecords@@@std@@@std@@@std@@QAEAAV01@XZ 1000bc10 f i Legitbot.obj
 0001:0000ac10       ??F?$_Deque_unchecked_iterator@V?$_Deque_val@U?$_Deque_simple_types@UPlayerRecords@@@std@@@std@@@std@@QAEAAV01@XZ 1000bc10 f i LagComp.obj
 0001:0000ac30       ??G?$_Deque_const_iterator@V?$_Deque_val@U?$_Deque_simple_types@ULegitPlayerRecords@@@std@@@std@@@std@@QBEHABV01@@Z 1000bc30 f i Legitbot.obj
 0001:0000ac30       ??G?$_Deque_const_iterator@V?$_Deque_val@U?$_Deque_simple_types@UPlayerRecords@@@std@@@std@@@std@@QBEHABV01@@Z 1000bc30 f i LagComp.obj
 0001:0000ac60       ??G?$_Deque_unchecked_const_iterator@V?$_Deque_val@U?$_Deque_simple_types@ULegitPlayerRecords@@@std@@@std@@@std@@QBEHABV01@@Z 1000bc60 f i Legitbot.obj
 0001:0000ac60       ??G?$_Deque_unchecked_const_iterator@V?$_Deque_val@U?$_Deque_simple_types@UPlayerRecords@@@std@@@std@@@std@@QBEHABV01@@Z 1000bc60 f i LagComp.obj
 0001:0000ac80       ??G?$_Deque_unchecked_iterator@V?$_Deque_val@U?$_Deque_simple_types@ULegitPlayerRecords@@@std@@@std@@@std@@QBEHABV?$_Deque_unchecked_const_iterator@V?$_Deque_val@U?$_Deque_simple_types@ULegitPlayerRecords@@@std@@@std@@@1@@Z 1000bc80 f i Legitbot.obj
 0001:0000ac80       ??G?$_Deque_unchecked_iterator@V?$_Deque_val@U?$_Deque_simple_types@UPlayerRecords@@@std@@@std@@@std@@QBEHABV?$_Deque_unchecked_const_iterator@V?$_Deque_val@U?$_Deque_simple_types@UPlayerRecords@@@std@@@std@@@1@@Z 1000bc80 f i LagComp.obj
 0001:0000aca0       ??H?$_Deque_iterator@V?$_Deque_val@U?$_Deque_simple_types@ULegitPlayerRecords@@@std@@@std@@@std@@QBE?AV01@H@Z 1000bca0 f i Legitbot.obj
 0001:0000aca0       ??H?$_Deque_iterator@V?$_Deque_val@U?$_Deque_simple_types@UPlayerRecords@@@std@@@std@@@std@@QBE?AV01@H@Z 1000bca0 f i LagComp.obj
 0001:0000acd0       ??Y?$_Deque_const_iterator@V?$_Deque_val@U?$_Deque_simple_types@ULegitPlayerRecords@@@std@@@std@@@std@@QAEAAV01@H@Z 1000bcd0 f i Legitbot.obj
 0001:0000acd0       ??Y?$_Deque_const_iterator@V?$_Deque_val@U?$_Deque_simple_types@UPlayerRecords@@@std@@@std@@@std@@QAEAAV01@H@Z 1000bcd0 f i LagComp.obj
 0001:0000acf0       ??Y?$_Deque_iterator@V?$_Deque_val@U?$_Deque_simple_types@ULegitPlayerRecords@@@std@@@std@@@std@@QAEAAV01@H@Z 1000bcf0 f i Legitbot.obj
 0001:0000acf0       ??Y?$_Deque_iterator@V?$_Deque_val@U?$_Deque_simple_types@UPlayerRecords@@@std@@@std@@@std@@QAEAAV01@H@Z 1000bcf0 f i LagComp.obj
 0001:0000ad10       ?ClearRecords@LagComp@@QAEXH@Z 1000bd10 f   LagComp.obj
 0001:0000add0       ?GetInt@ConVar@@QBEHXZ     1000bdd0 f i LagComp.obj
 0001:0000adf0       ?LerpTime@LagComp@@QAEMXZ  1000bdf0 f   LagComp.obj
 0001:0000afc0       ?StoreRecord@LagComp@@QAEXPAVC_BaseEntity@@@Z 1000bfc0 f   LagComp.obj
 0001:0000b510       ?ValidTick@LagComp@@QAE_NH@Z 1000c510 f   LagComp.obj
 0001:0000b6d0       ?_Address_subscript@?$_Deque_val@U?$_Deque_simple_types@UPlayerRecords@@@std@@@std@@QAEPAUPlayerRecords@@I@Z 1000c6d0 f i LagComp.obj
 0001:0000b720       ?_Adopt@_Iterator_base12@std@@QAEXPBU_Container_base12@2@@Z 1000c720 f i LagComp.obj
 0001:0000b750       ?_Getblock@?$deque@ULegitPlayerRecords@@V?$allocator@ULegitPlayerRecords@@@std@@@std@@ABEHI@Z 1000c750 f i Legitbot.obj
 0001:0000b750       ?_Getblock@?$deque@UPlayerRecords@@V?$allocator@UPlayerRecords@@@std@@@std@@ABEHI@Z 1000c750 f i LagComp.obj
 0001:0000b780       ?_Getcont@_Iterator_base12@std@@QBEPBU_Container_base12@2@XZ 1000c780 f i LagComp.obj
 0001:0000b7b0       ?_Growmap@?$deque@UPlayerRecords@@V?$allocator@UPlayerRecords@@@std@@@std@@AAEXI@Z 1000c7b0 f i LagComp.obj
 0001:0000ba60       ?_Make_iter@?$deque@ULegitPlayerRecords@@V?$allocator@ULegitPlayerRecords@@@std@@@std@@QBE?AV?$_Deque_iterator@V?$_Deque_val@U?$_Deque_simple_types@ULegitPlayerRecords@@@std@@@std@@@2@V?$_Deque_const_iterator@V?$_Deque_val@U?$_Deque_simple_types@ULegitPlayerRecords@@@std@@@std@@@2@@Z 1000ca60 f i Legitbot.obj
 0001:0000ba60       ?_Make_iter@?$deque@UPlayerRecords@@V?$allocator@UPlayerRecords@@@std@@@std@@QBE?AV?$_Deque_iterator@V?$_Deque_val@U?$_Deque_simple_types@UPlayerRecords@@@std@@@std@@@2@V?$_Deque_const_iterator@V?$_Deque_val@U?$_Deque_simple_types@UPlayerRecords@@@std@@@std@@@2@@Z 1000ca60 f i LagComp.obj
 0001:0000ba90       ?_Map@?$deque@ULegitPlayerRecords@@V?$allocator@ULegitPlayerRecords@@@std@@@std@@AAEAAPAPAULegitPlayerRecords@@XZ 1000ca90 f i Legitbot.obj
 0001:0000ba90       ?_Map@?$deque@UPlayerRecords@@V?$allocator@UPlayerRecords@@@std@@@std@@AAEAAPAPAUPlayerRecords@@XZ 1000ca90 f i LagComp.obj
 0001:0000bab0       ?_Map_distance@?$deque@ULegitPlayerRecords@@V?$allocator@ULegitPlayerRecords@@@std@@@std@@ABEHXZ 1000cab0 f i Legitbot.obj
 0001:0000bab0       ?_Map_distance@?$deque@UPlayerRecords@@V?$allocator@UPlayerRecords@@@std@@@std@@ABEHXZ 1000cab0 f i LagComp.obj
 0001:0000bad0       ?_Mapsize@?$deque@ULegitPlayerRecords@@V?$allocator@ULegitPlayerRecords@@@std@@@std@@AAEAAIXZ 1000cad0 f i Legitbot.obj
 0001:0000bad0       ?_Mapsize@?$deque@UPlayerRecords@@V?$allocator@UPlayerRecords@@@std@@@std@@AAEAAIXZ 1000cad0 f i LagComp.obj
 0001:0000baf0       ?_Orphan_all@?$deque@ULegitPlayerRecords@@V?$allocator@ULegitPlayerRecords@@@std@@@std@@AAEXXZ 1000caf0 f i Legitbot.obj
 0001:0000baf0       ?_Orphan_all@?$deque@UPlayerRecords@@V?$allocator@UPlayerRecords@@@std@@@std@@AAEXXZ 1000caf0 f i LagComp.obj
 0001:0000bb10       ?_Reset_map@?$deque@UPlayerRecords@@V?$allocator@UPlayerRecords@@@std@@@std@@AAEXXZ 1000cb10 f i LagComp.obj
 0001:0000bbe0       ?_Setcont@?$_Deque_const_iterator@V?$_Deque_val@U?$_Deque_simple_types@ULegitPlayerRecords@@@std@@@std@@@std@@QAEXPBV?$_Deque_val@U?$_Deque_simple_types@ULegitPlayerRecords@@@std@@@2@@Z 1000cbe0 f i Legitbot.obj
 0001:0000bbe0       ?_Setcont@?$_Deque_const_iterator@V?$_Deque_val@U?$_Deque_simple_types@UPlayerRecords@@@std@@@std@@@std@@QAEXPBV?$_Deque_val@U?$_Deque_simple_types@UPlayerRecords@@@std@@@2@@Z 1000cbe0 f i LagComp.obj
 0001:0000bc00       ?_Tidy@?$deque@UPlayerRecords@@V?$allocator@UPlayerRecords@@@std@@@std@@AAEXXZ 1000cc00 f i LagComp.obj
 0001:0000bc50       ?_Unchecked_begin@?$deque@ULegitPlayerRecords@@V?$allocator@ULegitPlayerRecords@@@std@@@std@@QAE?AV?$_Deque_unchecked_iterator@V?$_Deque_val@U?$_Deque_simple_types@ULegitPlayerRecords@@@std@@@std@@@2@XZ 1000cc50 f i Legitbot.obj
 0001:0000bc50       ?_Unchecked_begin@?$deque@UPlayerRecords@@V?$allocator@UPlayerRecords@@@std@@@std@@QAE?AV?$_Deque_unchecked_iterator@V?$_Deque_val@U?$_Deque_simple_types@UPlayerRecords@@@std@@@std@@@2@XZ 1000cc50 f i LagComp.obj
 0001:0000bca0       ?_Unchecked_end@?$deque@ULegitPlayerRecords@@V?$allocator@ULegitPlayerRecords@@@std@@@std@@QAE?AV?$_Deque_unchecked_iterator@V?$_Deque_val@U?$_Deque_simple_types@ULegitPlayerRecords@@@std@@@std@@@2@XZ 1000cca0 f i Legitbot.obj
 0001:0000bca0       ?_Unchecked_end@?$deque@UPlayerRecords@@V?$allocator@UPlayerRecords@@@std@@@std@@QAE?AV?$_Deque_unchecked_iterator@V?$_Deque_val@U?$_Deque_simple_types@UPlayerRecords@@@std@@@std@@@2@XZ 1000cca0 f i LagComp.obj
 0001:0000bd00       ?_Unwrapped@?$_Deque_iterator@V?$_Deque_val@U?$_Deque_simple_types@ULegitPlayerRecords@@@std@@@std@@@std@@QBE?AV?$_Deque_unchecked_iterator@V?$_Deque_val@U?$_Deque_simple_types@ULegitPlayerRecords@@@std@@@std@@@2@XZ 1000cd00 f i Legitbot.obj
 0001:0000bd00       ?_Unwrapped@?$_Deque_iterator@V?$_Deque_val@U?$_Deque_simple_types@UPlayerRecords@@@std@@@std@@@std@@QBE?AV?$_Deque_unchecked_iterator@V?$_Deque_val@U?$_Deque_simple_types@UPlayerRecords@@@std@@@std@@@2@XZ 1000cd00 f i LagComp.obj
 0001:0000bd40       ?_Xlen@?$deque@ULegitPlayerRecords@@V?$allocator@ULegitPlayerRecords@@@std@@@std@@CAXXZ 1000cd40 f i Legitbot.obj
 0001:0000bd40       ?_Xlen@?$deque@UPlayerRecords@@V?$allocator@UPlayerRecords@@@std@@@std@@CAXXZ 1000cd40 f i LagComp.obj
 0001:0000bd50       ?allocate@?$allocator@UPlayerRecords@@@std@@QAEPAUPlayerRecords@@I@Z 1000cd50 f i LagComp.obj
 0001:0000bd80       ?allocate@?$allocator@U_Container_proxy@std@@@std@@QAEPAU_Container_proxy@2@I@Z 1000cd80 f i LagComp.obj
 0001:0000bdb0       ?begin@?$deque@ULegitPlayerRecords@@V?$allocator@ULegitPlayerRecords@@@std@@@std@@QAE?AV?$_Deque_iterator@V?$_Deque_val@U?$_Deque_simple_types@ULegitPlayerRecords@@@std@@@std@@@2@XZ 1000cdb0 f i Legitbot.obj
 0001:0000bdb0       ?begin@?$deque@UPlayerRecords@@V?$allocator@UPlayerRecords@@@std@@@std@@QAE?AV?$_Deque_iterator@V?$_Deque_val@U?$_Deque_simple_types@UPlayerRecords@@@std@@@std@@@2@XZ 1000cdb0 f i LagComp.obj
 0001:0000be00       ?deallocate@?$_Default_allocator_traits@V?$allocator@U_Container_proxy@std@@@std@@@std@@SAXAAV?$allocator@U_Container_proxy@std@@@2@QAU_Container_proxy@2@I@Z 1000ce00 f i LagComp.obj
 0001:0000be40       ?deallocate@?$allocator@UPlayerRecords@@@std@@QAEXQAUPlayerRecords@@I@Z 1000ce40 f i LagComp.obj
 0001:0000be70       ?deallocate@?$allocator@U_Container_proxy@std@@@std@@QAEXQAU_Container_proxy@2@I@Z 1000ce70 f i LagComp.obj
 0001:0000be90       ?empty@?$deque@ULegitPlayerRecords@@V?$allocator@ULegitPlayerRecords@@@std@@@std@@QBE_NXZ 1000ce90 f i Legitbot.obj
 0001:0000be90       ?empty@?$deque@UPlayerRecords@@V?$allocator@UPlayerRecords@@@std@@@std@@QBE_NXZ 1000ce90 f i LagComp.obj
 0001:0000bec0       ?erase@?$deque@UPlayerRecords@@V?$allocator@UPlayerRecords@@@std@@@std@@QAE?AV?$_Deque_iterator@V?$_Deque_val@U?$_Deque_simple_types@UPlayerRecords@@@std@@@std@@@2@V?$_Deque_const_iterator@V?$_Deque_val@U?$_Deque_simple_types@UPlayerRecords@@@std@@@std@@@2@0@Z 1000cec0 f i LagComp.obj
 0001:0000c130       ?erase@?$deque@UPlayerRecords@@V?$allocator@UPlayerRecords@@@std@@@std@@QAE?AV?$_Deque_iterator@V?$_Deque_val@U?$_Deque_simple_types@UPlayerRecords@@@std@@@std@@@2@V?$_Deque_const_iterator@V?$_Deque_val@U?$_Deque_simple_types@UPlayerRecords@@@std@@@std@@@2@@Z 1000d130 f i LagComp.obj
 0001:0000c1b0       ?max_size@?$_Default_allocator_traits@V?$allocator@UPlayerRecords@@@std@@@std@@SAIABV?$allocator@UPlayerRecords@@@2@@Z 1000d1b0 f i LagComp.obj
 0001:0000c1c0       ?max_size@?$deque@UPlayerRecords@@V?$allocator@UPlayerRecords@@@std@@@std@@QBEIXZ 1000d1c0 f i LagComp.obj
 0001:0000c200       ?pop_back@?$deque@UPlayerRecords@@V?$allocator@UPlayerRecords@@@std@@@std@@QAEXXZ 1000d200 f i LagComp.obj
 0001:0000c2c0       ?pop_front@?$deque@UPlayerRecords@@V?$allocator@UPlayerRecords@@@std@@@std@@QAEXXZ 1000d2c0 f i LagComp.obj
 0001:0000c390       ?push_back@?$deque@UPlayerRecords@@V?$allocator@UPlayerRecords@@@std@@@std@@QAEXABUPlayerRecords@@@Z 1000d390 f i LagComp.obj
 0001:0000c3c0       ?AnimState@C_BaseEntity@@QAEPAVC_AnimState@@XZ 1000d3c0 f i AntiAim.obj
 0001:0000c3e0       ?OnCreateMove@AntiAim@@QAEXXZ 1000d3e0 f   AntiAim.obj
 0001:0000c520       ?Real@@YAXXZ               1000d520 f   AntiAim.obj
 0001:0000c640       ??$_Emplace_back_internal@ABULegitPlayerRecords@@@?$deque@ULegitPlayerRecords@@V?$allocator@ULegitPlayerRecords@@@std@@@std@@AAEXABULegitPlayerRecords@@@Z 1000d640 f i Legitbot.obj
 0001:0000c790       ??$_Get_size_of_n@$0OI@@std@@YAII@Z 1000d790 f i Legitbot.obj
 0001:0000c7c0       ??$_Move_backward_unchecked@V?$_Deque_unchecked_iterator@V?$_Deque_val@U?$_Deque_simple_types@ULegitPlayerRecords@@@std@@@std@@@std@@V12@@std@@YA?AV?$_Deque_unchecked_iterator@V?$_Deque_val@U?$_Deque_simple_types@ULegitPlayerRecords@@@std@@@std@@@0@V10@00@Z 1000d7c0 f i Legitbot.obj
 0001:0000c820       ??$_Move_unchecked@V?$_Deque_unchecked_iterator@V?$_Deque_val@U?$_Deque_simple_types@ULegitPlayerRecords@@@std@@@std@@@std@@V12@@std@@YA?AV?$_Deque_unchecked_iterator@V?$_Deque_val@U?$_Deque_simple_types@ULegitPlayerRecords@@@std@@@std@@@0@V10@00@Z 1000d820 f i Legitbot.obj
 0001:0000c880       ??$construct@ULegitPlayerRecords@@ABU1@@?$_Default_allocator_traits@V?$allocator@ULegitPlayerRecords@@@std@@@std@@SAXAAV?$allocator@ULegitPlayerRecords@@@1@QAULegitPlayerRecords@@ABU3@@Z 1000d880 f i Legitbot.obj
 0001:0000c8a0       ??$construct_at@ULegitPlayerRecords@@ABU1@@std@@YAPAULegitPlayerRecords@@QAU1@ABU1@@Z 1000d8a0 f i Legitbot.obj
 0001:0000c8d0       ??$move@V?$_Deque_unchecked_iterator@V?$_Deque_val@U?$_Deque_simple_types@ULegitPlayerRecords@@@std@@@std@@@std@@V12@@std@@YA?AV?$_Deque_unchecked_iterator@V?$_Deque_val@U?$_Deque_simple_types@ULegitPlayerRecords@@@std@@@std@@@0@V10@00@Z 1000d8d0 f i Legitbot.obj
 0001:0000c990       ??$move_backward@V?$_Deque_unchecked_iterator@V?$_Deque_val@U?$_Deque_simple_types@ULegitPlayerRecords@@@std@@@std@@@std@@V12@@std@@YA?AV?$_Deque_unchecked_iterator@V?$_Deque_val@U?$_Deque_simple_types@ULegitPlayerRecords@@@std@@@std@@@0@V10@00@Z 1000d990 f i Legitbot.obj
 0001:0000ca50       ??0<lambda_1>@?1??WorldToScreen@Utils@@SA_NABVVector@@AAVVector2D@@@Z@QAE@01@Z 1000da50 f i Legitbot.obj
 0001:0000ca50       ??0?$basic_string_view@DU?$char_traits@D@std@@@std@@QAE@QBDI@Z 1000da50 f i Hooks.obj
 0001:0000ca50       ??0?$initializer_list@V?$basic_string@DU?$char_traits@D@std@@V?$allocator@D@2@@std@@@std@@QAE@PBV?$basic_string@DU?$char_traits@D@std@@V?$allocator@D@2@@1@0@Z 1000da50 f i Menu.obj
 0001:0000ca80       ??0LegitPlayerRecords@@QAE@XZ 1000da80 f i Legitbot.obj
 0001:0000cab0       ??0Legitbot@@QAE@XZ        1000dab0 f i Legitbot.obj
 0001:0000cae0       ??0Vector2D@@QAE@ABV0@@Z   1000dae0 f i Legitbot.obj
 0001:0000cb10       ??1?$deque@ULegitPlayerRecords@@V?$allocator@ULegitPlayerRecords@@@std@@@std@@QAE@XZ 1000db10 f i Legitbot.obj
 0001:0000cb60       ??1Legitbot@@QAE@XZ        1000db60 f i Legitbot.obj
 0001:0000cbb0       ??4LegitPlayerRecords@@QAEAAU0@$$QAU0@@Z 1000dbb0 f i Legitbot.obj
 0001:0000cc10       ??D?$_Deque_unchecked_const_iterator@V?$_Deque_val@U?$_Deque_simple_types@ULegitPlayerRecords@@@std@@@std@@@std@@QBEABULegitPlayerRecords@@XZ 1000dc10 f i Legitbot.obj
 0001:0000cc40       ??D?$_Deque_unchecked_iterator@V?$_Deque_val@U?$_Deque_simple_types@ULegitPlayerRecords@@@std@@@std@@@std@@QBEAAULegitPlayerRecords@@XZ 1000dc40 f i Legitbot.obj
 0001:0000cc60       ??R<lambda_1>@?1??WorldToScreen@Utils@@SA_NABVVector@@AAVVector2D@@@Z@QBE_NXZ 1000dc60 f i Legitbot.obj
 0001:0000cf00       ?OnCreateMove@Legitbot@@QAEXXZ 1000df00 f   Legitbot.obj
 0001:0000d6b0       ?WorldToScreen@Utils@@SA_NABVVector@@AAVVector2D@@@Z 1000e6b0 f i Legitbot.obj
 0001:0000d760       ?_Address_subscript@?$_Deque_val@U?$_Deque_simple_types@ULegitPlayerRecords@@@std@@@std@@QAEPAULegitPlayerRecords@@I@Z 1000e760 f i Legitbot.obj
 0001:0000d7b0       ?_Growmap@?$deque@ULegitPlayerRecords@@V?$allocator@ULegitPlayerRecords@@@std@@@std@@AAEXI@Z 1000e7b0 f i Legitbot.obj
 0001:0000da60       ?_Reset_map@?$deque@ULegitPlayerRecords@@V?$allocator@ULegitPlayerRecords@@@std@@@std@@AAEXXZ 1000ea60 f i Legitbot.obj
 0001:0000db30       ?_Subscript@?$_Deque_val@U?$_Deque_simple_types@ULegitPlayerRecords@@@std@@@std@@QAEAAULegitPlayerRecords@@I@Z 1000eb30 f i Legitbot.obj
 0001:0000db30       ?_Subscript@?$_Deque_val@U?$_Deque_simple_types@ULegitPlayerRecords@@@std@@@std@@QBEABULegitPlayerRecords@@I@Z 1000eb30 f i Legitbot.obj
 0001:0000db80       ?_Subscript@?$deque@ULegitPlayerRecords@@V?$allocator@ULegitPlayerRecords@@@std@@@std@@AAEAAULegitPlayerRecords@@I@Z 1000eb80 f i Legitbot.obj
 0001:0000dbc0       ?_Tidy@?$deque@ULegitPlayerRecords@@V?$allocator@ULegitPlayerRecords@@@std@@@std@@AAEXXZ 1000ebc0 f i Legitbot.obj
 0001:0000dc10       ?allocate@?$allocator@ULegitPlayerRecords@@@std@@QAEPAULegitPlayerRecords@@I@Z 1000ec10 f i Legitbot.obj
 0001:0000dc40       ?at@?$deque@ULegitPlayerRecords@@V?$allocator@ULegitPlayerRecords@@@std@@@std@@QAEAAULegitPlayerRecords@@I@Z 1000ec40 f i Legitbot.obj
 0001:0000dc70       ?deallocate@?$allocator@ULegitPlayerRecords@@@std@@QAEXQAULegitPlayerRecords@@I@Z 1000ec70 f i Legitbot.obj
 0001:0000dca0       ?erase@?$deque@ULegitPlayerRecords@@V?$allocator@ULegitPlayerRecords@@@std@@@std@@QAE?AV?$_Deque_iterator@V?$_Deque_val@U?$_Deque_simple_types@ULegitPlayerRecords@@@std@@@std@@@2@V?$_Deque_const_iterator@V?$_Deque_val@U?$_Deque_simple_types@ULegitPlayerRecords@@@std@@@std@@@2@0@Z 1000eca0 f i Legitbot.obj
 0001:0000deb0       ?erase@?$deque@ULegitPlayerRecords@@V?$allocator@ULegitPlayerRecords@@@std@@@std@@QAE?AV?$_Deque_iterator@V?$_Deque_val@U?$_Deque_simple_types@ULegitPlayerRecords@@@std@@@std@@@2@V?$_Deque_const_iterator@V?$_Deque_val@U?$_Deque_simple_types@ULegitPlayerRecords@@@std@@@std@@@2@@Z 1000eeb0 f i Legitbot.obj
 0001:0000df00       ?max_size@?$_Default_allocator_traits@V?$allocator@ULegitPlayerRecords@@@std@@@std@@SAIABV?$allocator@ULegitPlayerRecords@@@2@@Z 1000ef00 f i Legitbot.obj
 0001:0000df10       ?max_size@?$deque@ULegitPlayerRecords@@V?$allocator@ULegitPlayerRecords@@@std@@@std@@QBEIXZ 1000ef10 f i Legitbot.obj
 0001:0000df50       ?pop_back@?$deque@ULegitPlayerRecords@@V?$allocator@ULegitPlayerRecords@@@std@@@std@@QAEXXZ 1000ef50 f i Legitbot.obj
 0001:0000e010       ?pop_front@?$deque@ULegitPlayerRecords@@V?$allocator@ULegitPlayerRecords@@@std@@@std@@QAEXXZ 1000f010 f i Legitbot.obj
 0001:0000e0e0       ?push_back@?$deque@ULegitPlayerRecords@@V?$allocator@ULegitPlayerRecords@@@std@@@std@@QAEXABULegitPlayerRecords@@@Z 1000f0e0 f i Legitbot.obj
 0001:0000e110       ??$?0$$QAI$$Z$$V@?$pair@$$CBII@std@@QAE@Upiecewise_construct_t@1@V?$tuple@$$QAI@1@V?$tuple@$$V@1@@Z 1000f110 f i Resolver.obj
 0001:0000e150       ??$?0ABUpiecewise_construct_t@std@@V?$tuple@$$QAI@1@V?$tuple@$$V@1@@?$_List_node_emplace_op2@V?$allocator@U?$_List_node@U?$pair@$$CBII@std@@PAX@std@@@std@@@std@@QAE@AAV?$allocator@U?$_List_node@U?$pair@$$CBII@std@@PAX@std@@@1@ABUpiecewise_construct_t@1@$$QAV?$tuple@$$QAI@1@$$QAV?$tuple@$$V@1@@Z 1000f150 f i Resolver.obj
 0001:0000e1f0       ??$?0V?$tuple@$$QAI@std@@V?$tuple@$$V@1@$0A@$$Z$S@?$pair@$$CBII@std@@AAE@AAV?$tuple@$$QAI@1@AAV?$tuple@$$V@1@U?$integer_sequence@I$0A@@1@U?$integer_sequence@I$S@1@@Z 1000f1f0 f i Resolver.obj
 0001:0000e220       ??$?RI@?$_Uhash_compare@IU?$hash@I@std@@U?$equal_to@I@2@@std@@QBEIABI@Z 1000f220 f i Resolver.obj
 0001:0000e250       ??$?RII@?$_Uhash_compare@IU?$hash@I@std@@U?$equal_to@I@2@@std@@QBE_NABI0@Z 1000f250 f i Resolver.obj
 0001:0000e2a0       ??$_Find_last@I@?$_Hash@V?$_Umap_traits@IIV?$_Uhash_compare@IU?$hash@I@std@@U?$equal_to@I@2@@std@@V?$allocator@U?$pair@$$CBII@std@@@2@$0A@@std@@@std@@IBE?AU?$_Hash_find_last_result@PAU?$_List_node@U?$pair@$$CBII@std@@PAX@std@@@1@ABII@Z 1000f2a0 f i Resolver.obj
 0001:0000e380       ??$_Fnv1a_append_value@I@std@@YAIIABI@Z 1000f380 f i Resolver.obj
 0001:0000e3a0       ??$_Hash_representation@I@std@@YAIABI@Z 1000f3a0 f i Resolver.obj
 0001:0000e3c0       ??$_Try_emplace@I$$V@?$_Hash@V?$_Umap_traits@IIV?$_Uhash_compare@IU?$hash@I@std@@U?$equal_to@I@2@@std@@V?$allocator@U?$pair@$$CBII@std@@@2@$0A@@std@@@std@@IAE?AU?$pair@PAU?$_List_node@U?$pair@$$CBII@std@@PAX@std@@_N@1@$$QAI@Z 1000f3c0 f i Resolver.obj
 0001:0000e530       ??$construct@U?$pair@$$CBII@std@@ABUpiecewise_construct_t@2@V?$tuple@$$QAI@2@V?$tuple@$$V@2@@?$_Default_allocator_traits@V?$allocator@U?$_List_node@U?$pair@$$CBII@std@@PAX@std@@@std@@@std@@SAXAAV?$allocator@U?$_List_node@U?$pair@$$CBII@std@@PAX@std@@@1@QAU?$pair@$$CBII@1@ABUpiecewise_construct_t@1@$$QAV?$tuple@$$QAI@1@$$QAV?$tuple@$$V@1@@Z 1000f530 f i Resolver.obj
 0001:0000e550       ??$construct_at@U?$pair@$$CBII@std@@ABUpiecewise_construct_t@2@V?$tuple@$$QAI@2@V?$tuple@$$V@2@@std@@YAPAU?$pair@$$CBII@0@QAU10@ABUpiecewise_construct_t@0@$$QAV?$tuple@$$QAI@0@$$QAV?$tuple@$$V@0@@Z 1000f550 f i Resolver.obj
 0001:0000e5a0       ??0Resolver@@QAE@XZ        1000f5a0 f i Resolver.obj
 0001:0000e5c0       ??1?$_Alloc_construct_ptr@V?$allocator@U?$_List_node@U?$pair@$$CBII@std@@PAX@std@@@std@@@std@@QAE@XZ 1000f5c0 f i Resolver.obj
 0001:0000e5f0       ??1?$_List_node_emplace_op2@V?$allocator@U?$_List_node@U?$pair@$$CBII@std@@PAX@std@@@std@@@std@@QAE@XZ 1000f5f0 f i Resolver.obj
 0001:0000e670       ??1_Clear_guard@?$_Hash@V?$_Umap_traits@IIV?$_Uhash_compare@IU?$hash@I@std@@U?$equal_to@I@2@@std@@V?$allocator@U?$pair@$$CBII@std@@@2@$0A@@std@@@std@@QAE@XZ 1000f670 f i Resolver.obj
 0001:0000e690       ??A?$unordered_map@IIU?$hash@I@std@@U?$equal_to@I@2@V?$allocator@U?$pair@$$CBII@std@@@2@@std@@QAEAAI$$QAI@Z 1000f690 f i Resolver.obj
 0001:0000e740       ??R?$_Conditionally_enabled_hash@I$00@std@@SAIABI@Z 1000f740 f i Resolver.obj
 0001:0000e760       ??R?$equal_to@I@std@@QBE_NABI0@Z 1000f760 f i Resolver.obj
 0001:0000e790       ?AnimOverlays@C_BaseEntity@@QAEPAVAnimationLayer@@XZ 1000f790 f i Resolver.obj
 0001:0000e7b0       ?AnimationFix@Resolver@@AAEXPAVC_BaseEntity@@@Z 1000f7b0 f   Resolver.obj
 0001:0000f610       ?ClientAnimations@C_BaseEntity@@QAEX_N@Z 10010610 f i Resolver.obj
 0001:0000f6d0       ?FrameStage@Resolver@@QAEXW4ClientFrameStage_t@@@Z 100106d0 f   Resolver.obj
 0001:0000f870       ?GetAnimLayerCount@C_BaseEntity@@QAEHXZ 10010870 f i Resolver.obj
 0001:0000f890       ?GetLowerBodyYaw@C_BaseEntity@@QAEMXZ 10010890 f i Resolver.obj
 0001:0000f950       ?GetNetChannel@IVEngineClient@@QAEPAVNetChannel@@XZ 10010950 f i Resolver.obj
 0001:0000f970       ?HandleHits@@YAXPAVC_BaseEntity@@@Z 10010970 f   Resolver.obj
 0001:0000fc50       ?OnCreateMove@Resolver@@QAEXXZ 10010c50 f   Resolver.obj
 0001:00010430       ?SetLowerBodyYaw@C_BaseEntity@@QAEXM@Z 10011430 f i Resolver.obj
 0001:000104f0       ?UpdateClientAnimation@C_BaseEntity@@QAEXXZ 100114f0 f i Resolver.obj
 0001:00010520       ?_Allocate@?$_Alloc_construct_ptr@V?$allocator@U?$_List_node@U?$pair@$$CBII@std@@PAX@std@@@std@@@std@@QAEXXZ 10011520 f i Resolver.obj
 0001:00010550       ?_Bump_erased@_Range_eraser@?$_Hash@V?$_Umap_traits@IIV?$_Uhash_compare@IU?$hash@I@std@@U?$equal_to@I@2@@std@@V?$allocator@U?$pair@$$CBII@std@@@2@$0A@@std@@@std@@QAEXXZ 10011550 f i Resolver.obj
 0001:000105a0       ?_Check_max_size@?$_Hash@V?$_Umap_traits@IIV?$_Uhash_compare@IU?$hash@I@std@@U?$equal_to@I@2@@std@@V?$allocator@U?$pair@$$CBII@std@@@2@$0A@@std@@@std@@IBEXXZ 100115a0 f i Resolver.obj
 0001:000105e0       ?_Desired_grow_bucket_count@?$_Hash@V?$_Umap_traits@IIV?$_Uhash_compare@IU?$hash@I@std@@U?$equal_to@I@2@@std@@V?$allocator@U?$pair@$$CBII@std@@@2@$0A@@std@@@std@@IBEII@Z 100115e0 f i Resolver.obj
 0001:00010650       ?_Do_hash@?$hash@I@std@@SAIABI@Z 10011650 f i Resolver.obj
 0001:00010670       ?_Forced_rehash@?$_Hash@V?$_Umap_traits@IIV?$_Uhash_compare@IU?$hash@I@std@@U?$equal_to@I@2@@std@@V?$allocator@U?$pair@$$CBII@std@@@2@$0A@@std@@@std@@IAEXI@Z 10011670 f i Resolver.obj
 0001:000108d0       ?_Rehash_for_1@?$_Hash@V?$_Umap_traits@IIV?$_Uhash_compare@IU?$hash@I@std@@U?$equal_to@I@2@@std@@V?$allocator@U?$pair@$$CBII@std@@@2@$0A@@std@@@std@@IAEXXZ 100118d0 f i Resolver.obj
 0001:00010910       ?_Unchecked_erase@?$_Hash@V?$_Umap_traits@IIV?$_Uhash_compare@IU?$hash@I@std@@U?$equal_to@I@2@@std@@V?$allocator@U?$pair@$$CBII@std@@@2@$0A@@std@@@std@@AAEPAU?$_List_node@U?$pair@$$CBII@std@@PAX@2@PAU32@QAU32@@Z 10011910 f i Resolver.obj
 0001:00010b00       ?bucket@?$_Hash@V?$_Umap_traits@IIV?$_Uhash_compare@IU?$hash@I@std@@U?$equal_to@I@2@@std@@V?$allocator@U?$pair@$$CBII@std@@@2@$0A@@std@@@std@@QBEIABI@Z 10011b00 f i Resolver.obj
 0001:00010b40       ?clear@?$_Hash@V?$_Umap_traits@IIV?$_Uhash_compare@IU?$hash@I@std@@U?$equal_to@I@2@@std@@V?$allocator@U?$pair@$$CBII@std@@@2@$0A@@std@@@std@@QAEXXZ 10011b40 f i Resolver.obj
 0001:00010c00       ?clear@?$list@U?$pair@$$CBII@std@@V?$allocator@U?$pair@$$CBII@std@@@2@@std@@QAEXXZ 10011c00 f i Resolver.obj
 0001:00010c70       ?max_size@?$_Default_allocator_traits@V?$allocator@U?$_List_node@U?$pair@$$CBII@std@@PAX@std@@@std@@@std@@SAIABV?$allocator@U?$_List_node@U?$pair@$$CBII@std@@PAX@std@@@2@@Z 10011c70 f i Resolver.obj
 0001:00010c80       ?max_size@?$list@U?$pair@$$CBII@std@@V?$allocator@U?$pair@$$CBII@std@@@2@@std@@QBEIXZ 10011c80 f i Resolver.obj
 0001:00010cc0       ?GetEventDebugID@IGameEventListener@@UAEHXZ 10011cc0 f i Hooks.obj
 0001:00010cd0       ?FireGameEvent@Event@@UAEXPAVIGameEvent@@@Z 10011cd0 f   Hooks.obj
 0001:00010e60       ??_EEvent@@UAEPAXI@Z       10011e60 f i Hooks.obj
 0001:00010e60       ??_GEvent@@UAEPAXI@Z       10011e60 f i Hooks.obj
 0001:00010e90       ??$?0$$CBV?$basic_string_view@DU?$char_traits@D@std@@@std@@PBD@?$basic_format_args@V?$basic_format_context@V?$back_insert_iterator@V?$_Fmt_buffer@D@std@@@std@@D@std@@@std@@QAE@ABV?$_Format_arg_store@V?$basic_format_context@V?$back_insert_iterator@V?$_Fmt_buffer@D@std@@@std@@D@std@@$$CBV?$basic_string_view@DU?$char_traits@D@std@@@2@PBD@1@@Z 10011e90 f i Hooks.obj
 0001:00010ec0       ??$?0$$V@?$_Compressed_pair@U?$default_delete@$$BY0A@I@std@@PAI$00@std@@QAE@U_Zero_then_variadic_args_t@1@@Z 10011ec0 f i Hooks.obj
 0001:00010ee0       ??$?0AAPADW4errc@std@@$0A@@?$pair@PADW4errc@std@@@std@@QAE@AAPAD$$QAW4errc@1@@Z 10011ee0 f i Hooks.obj
 0001:00010ee0       ??$?0ABQADW4errc@std@@$0A@@?$pair@PADW4errc@std@@@std@@QAE@ABQAD$$QAW4errc@1@@Z 10011ee0 f i Hooks.obj
 0001:00010ee0       ??$?0PADW4errc@std@@$0A@@?$pair@PADW4errc@std@@@std@@QAE@$$QAPAD$$QAW4errc@1@@Z 10011ee0 f i Hooks.obj
 0001:00010f10       ??$?0PADPBD@?$basic_string_view@DU?$char_traits@D@std@@@std@@QAE@PADPBD@Z 10011f10 f i Hooks.obj
 0001:00010f10       ??$?0PBDPBD@?$basic_string_view@DU?$char_traits@D@std@@@std@@QAE@PBD0@Z 10011f10 f i Hooks.obj
 0001:00010f40       ??$?0PAIU?$default_delete@$$BY0A@I@std@@$0A@$0A@@?$unique_ptr@$$BY0A@IU?$default_delete@$$BY0A@I@std@@@std@@QAE@PAI@Z 10011f40 f i Hooks.obj
 0001:00010f40       ??$?0U?$default_delete@VNetvarTree@@@std@@$0A@@?$unique_ptr@VNetvarTree@@U?$default_delete@VNetvarTree@@@std@@@std@@QAE@PAVNetvarTree@@@Z 10011f40 f i Hooks.obj
 0001:00010f40       ??$?0U?$default_delete@VVMTHook@@@std@@$0A@@?$unique_ptr@VVMTHook@@U?$default_delete@VVMTHook@@@std@@@std@@QAE@PAVVMTHook@@@Z 10011f40 f i Hooks.obj
 0001:00010f40       ??$?0U?$default_delete@V_Facet_base@std@@@std@@$0A@@?$unique_ptr@V_Facet_base@std@@U?$default_delete@V_Facet_base@std@@@2@@std@@QAE@PAV_Facet_base@1@@Z 10011f40 f i Hooks.obj
 0001:00010f70       ??$?0U?$default_delete@$$BY0A@I@std@@$0A@@?$unique_ptr@$$BY0A@IU?$default_delete@$$BY0A@I@std@@@std@@QAE@$$T@Z 10011f70 f i Hooks.obj
 0001:00010fa0       ??$?0_J$0A@@?$duration@_JU?$ratio@$00$0DLJKMKAA@@std@@@chrono@std@@QAE@AB_J@Z 10011fa0 f i Hooks.obj
 0001:00010fa0       ??$?0_J$0A@@?$duration@_JU?$ratio@$00$0DOI@@std@@@chrono@std@@QAE@AB_J@Z 10011fa0 f i Hooks.obj
 0001:00010fa0       ??$?0_K$0A@@?$duration@_JU?$ratio@$00$0DOI@@std@@@chrono@std@@QAE@AB_K@Z 10011fa0 f i Hooks.obj
 0001:00010fa0       ??0<lambda_1>@?1???R0?1???$_Floating_to_chars_general_precision@N@std@@YA?AUto_chars_result@1@PADQADNH@Z@QBE@XZ@QAE@AB_K@Z 10011fa0 f i Hooks.obj
 0001:00010fc0       ??$?0_JU?$ratio@$00$0DOI@@std@@$0A@@?$duration@_JU?$ratio@$00$0DLJKMKAA@@std@@@chrono@std@@QAE@ABV?$duration@_JU?$ratio@$00$0DOI@@std@@@12@@Z 10011fc0 f i Hooks.obj
 0001:00011000       ??$?4U?$default_delete@$$BY0A@I@std@@$0A@@?$unique_ptr@$$BY0A@IU?$default_delete@$$BY0A@I@std@@@std@@QAEAAV01@$$QAV01@@Z 10012000 f i Hooks.obj
 0001:00011050       ??$?4U?$default_delete@VNetvarTree@@@std@@$0A@@?$unique_ptr@VNetvarTree@@U?$default_delete@VNetvarTree@@@std@@@std@@QAEAAV01@$$QAV01@@Z 10012050 f i Hooks.obj
 0001:00011090       ??$?4U?$default_delete@VVMTHook@@@std@@$0A@@?$unique_ptr@VVMTHook@@U?$default_delete@VVMTHook@@@std@@@std@@QAEAAV01@$$QAV01@@Z 10012090 f i Hooks.obj
 0001:000110d0       ??$?GUsteady_clock@chrono@std@@V?$duration@_JU?$ratio@$00$0DLJKMKAA@@std@@@12@V312@@chrono@std@@YA?AV?$duration@_JU?$ratio@$00$0DLJKMKAA@@std@@@01@ABV?$time_point@Usteady_clock@chrono@std@@V?$duration@_JU?$ratio@$00$0DLJKMKAA@@std@@@23@@01@0@Z 100120d0 f i Hooks.obj
 0001:00011110       ??$?GUsteady_clock@chrono@std@@V?$duration@_JU?$ratio@$00$0DLJKMKAA@@std@@@12@_JU?$ratio@$00$0DOI@@2@@chrono@std@@YA?AV?$time_point@Usteady_clock@chrono@std@@V?$duration@_JU?$ratio@$00$0DLJKMKAA@@std@@@23@@01@ABV201@ABV?$duration@_JU?$ratio@$00$0DOI@@std@@@01@@Z 10012110 f i Hooks.obj
 0001:00011150       ??$?G_JU?$ratio@$00$0DLJKMKAA@@std@@_JU01@@chrono@std@@YA?AV?$duration@_JU?$ratio@$00$0DLJKMKAA@@std@@@01@ABV201@0@Z 10012150 f i Hooks.obj
 0001:000111b0       ??$?G_JU?$ratio@$00$0DLJKMKAA@@std@@_JU?$ratio@$00$0DOI@@1@@chrono@std@@YA?AV?$duration@_JU?$ratio@$00$0DLJKMKAA@@std@@@01@ABV201@ABV?$duration@_JU?$ratio@$00$0DOI@@std@@@01@@Z 100121b0 f i Hooks.obj
 0001:00011210       ??$?RABIABI@?$less@X@std@@QBE_NABI0@Z 10012210 f i Hooks.obj
 0001:00011240       ??$?RABV?$basic_string_view@DU?$char_traits@D@std@@@std@@@_Cpo@_Begin@ranges@std@@SA?A_PABV?$basic_string_view@DU?$char_traits@D@std@@@3@@Z 10012240 f i Hooks.obj
 0001:00011260       ??$?RABV?$basic_string_view@DU?$char_traits@D@std@@@std@@@_Cpo@_Size@ranges@std@@SA?A_PABV?$basic_string_view@DU?$char_traits@D@std@@@3@@Z 10012260 f i Hooks.obj
 0001:00011280       ??$?RABV?$basic_string_view@DU?$char_traits@D@std@@@std@@@_Cpo@_Unchecked_end@ranges@std@@SA?A_PABV?$basic_string_view@DU?$char_traits@D@std@@@3@@Z 10012280 f i Hooks.obj
 0001:000112a0       ??$?RABV?$basic_string_view@DU?$char_traits@D@std@@@std@@@_Distance_fn@ranges@std@@SAHABV?$basic_string_view@DU?$char_traits@D@std@@@2@@Z 100122a0 f i Hooks.obj
 0001:000112c0       ??$?RABV?$basic_string_view@DU?$char_traits@D@std@@@std@@V?$back_insert_iterator@V?$_Fmt_buffer@D@std@@@1@@_Copy_fn@ranges@std@@SA?AU?$in_out_result@V?$_String_view_iterator@U?$char_traits@D@std@@@std@@V?$back_insert_iterator@V?$_Fmt_buffer@D@std@@@2@@12@ABV?$basic_string_view@DU?$char_traits@D@std@@@2@V?$back_insert_iterator@V?$_Fmt_buffer@D@std@@@2@@Z 100122c0 f i Hooks.obj
 0001:00011370       ??$?RAB_KAB_K@?$less@X@std@@QBE_NAB_K0@Z 10012370 f i Hooks.obj
 0001:000113c0       ??$?RD@?$_Arg_formatter@V?$back_insert_iterator@V?$_Fmt_buffer@D@std@@@std@@D@__p2286@std@@QAE?AV?$back_insert_iterator@V?$_Fmt_buffer@D@std@@@2@D@Z 100123c0 f i Hooks.obj
 0001:000114b0       ??$?RD@?$_Default_arg_formatter@V?$back_insert_iterator@V?$_Fmt_buffer@D@std@@@std@@D@__p2286@std@@QHAE?AV?$back_insert_iterator@V?$_Fmt_buffer@D@std@@@2@D@Z 100124b0 f i Hooks.obj
 0001:000114e0       ??$?RD@_Precision_checker@std@@SA_KD@Z 100124e0 f i Hooks.obj
 0001:000114e0       ??$?RM@_Precision_checker@std@@SA_KM@Z 100124e0 f i Hooks.obj
 0001:000114e0       ??$?RN@_Precision_checker@std@@SA_KN@Z 100124e0 f i Hooks.obj
 0001:000114e0       ??$?RO@_Precision_checker@std@@SA_KO@Z 100124e0 f i Hooks.obj
 0001:000114e0       ??$?RPBD@_Precision_checker@std@@SA_KQBD@Z 100124e0 f i Hooks.obj
 0001:000114e0       ??$?RPBX@_Precision_checker@std@@SA_KQBX@Z 100124e0 f i Hooks.obj
 0001:000114e0       ??$?RUmonostate@std@@@_Precision_checker@std@@SA_KUmonostate@1@@Z 100124e0 f i Hooks.obj
 0001:000114e0       ??$?RV?$basic_string_view@DU?$char_traits@D@std@@@std@@@_Precision_checker@std@@SA_KV?$basic_string_view@DU?$char_traits@D@std@@@1@@Z 100124e0 f i Hooks.obj
 0001:000114e0       ??$?RVhandle@?$basic_format_arg@V?$basic_format_context@V?$back_insert_iterator@V?$_Fmt_buffer@D@std@@@std@@D@std@@@std@@@_Precision_checker@std@@SA_KVhandle@?$basic_format_arg@V?$basic_format_context@V?$back_insert_iterator@V?$_Fmt_buffer@D@std@@@std@@D@std@@@1@@Z 100124e0 f i Hooks.obj
 0001:000114e0       ??$?R_N@_Precision_checker@std@@SA_K_N@Z 100124e0 f i Hooks.obj
 0001:000114f0       ??$?RD@_Width_checker@std@@SA_KD@Z 100124f0 f i Hooks.obj
 0001:000114f0       ??$?RM@_Width_checker@std@@SA_KM@Z 100124f0 f i Hooks.obj
 0001:000114f0       ??$?RN@_Width_checker@std@@SA_KN@Z 100124f0 f i Hooks.obj
 0001:000114f0       ??$?RO@_Width_checker@std@@SA_KO@Z 100124f0 f i Hooks.obj
 0001:000114f0       ??$?RPBD@_Width_checker@std@@SA_KQBD@Z 100124f0 f i Hooks.obj
 0001:000114f0       ??$?RPBX@_Width_checker@std@@SA_KQBX@Z 100124f0 f i Hooks.obj
 0001:000114f0       ??$?RUmonostate@std@@@_Width_checker@std@@SA_KUmonostate@1@@Z 100124f0 f i Hooks.obj
 0001:000114f0       ??$?RV?$basic_string_view@DU?$char_traits@D@std@@@std@@@_Width_checker@std@@SA_KV?$basic_string_view@DU?$char_traits@D@std@@@1@@Z 100124f0 f i Hooks.obj
 0001:000114f0       ??$?RVhandle@?$basic_format_arg@V?$basic_format_context@V?$back_insert_iterator@V?$_Fmt_buffer@D@std@@@std@@D@std@@@std@@@_Width_checker@std@@SA_KVhandle@?$basic_format_arg@V?$basic_format_context@V?$back_insert_iterator@V?$_Fmt_buffer@D@std@@@std@@D@std@@@1@@Z 100124f0 f i Hooks.obj
 0001:000114f0       ??$?R_N@_Width_checker@std@@SA_K_N@Z 100124f0 f i Hooks.obj
 0001:00011500       ??$?RDV?$back_insert_iterator@V?$_Fmt_buffer@D@std@@@std@@@_Fill_n_fn@ranges@std@@SA?AV?$back_insert_iterator@V?$_Fmt_buffer@D@std@@@2@V32@HABD@Z 10012500 f i Hooks.obj
 0001:00011580       ??$?RH@?$_Arg_formatter@V?$back_insert_iterator@V?$_Fmt_buffer@D@std@@@std@@D@__p2286@std@@QAE?AV?$back_insert_iterator@V?$_Fmt_buffer@D@std@@@2@H@Z 10012580 f i Hooks.obj
 0001:00011600       ??$?RH@?$_Default_arg_formatter@V?$back_insert_iterator@V?$_Fmt_buffer@D@std@@@std@@D@__p2286@std@@QHAE?AV?$back_insert_iterator@V?$_Fmt_buffer@D@std@@@2@H@Z 10012600 f i Hooks.obj
 0001:00011630       ??$?RH@_Precision_checker@std@@SA_KH@Z 10012630 f i Hooks.obj
 0001:00011650       ??$?RH@_Width_checker@std@@SA_KH@Z 10012650 f i Hooks.obj
 0001:00011670       ??$?RI$0A@@?$default_delete@$$BY0A@I@std@@QBEXPAI@Z 10012670 f i Hooks.obj
 0001:000116a0       ??$?RI@?$_Arg_formatter@V?$back_insert_iterator@V?$_Fmt_buffer@D@std@@@std@@D@__p2286@std@@QAE?AV?$back_insert_iterator@V?$_Fmt_buffer@D@std@@@2@I@Z 100126a0 f i Hooks.obj
 0001:00011720       ??$?RI@?$_Default_arg_formatter@V?$back_insert_iterator@V?$_Fmt_buffer@D@std@@@std@@D@__p2286@std@@QHAE?AV?$back_insert_iterator@V?$_Fmt_buffer@D@std@@@2@I@Z 10012720 f i Hooks.obj
 0001:00011750       ??$?RI@_Precision_checker@std@@SA_KI@Z 10012750 f i Hooks.obj
 0001:00011750       ??$?RI@_Width_checker@std@@SA_KI@Z 10012750 f i Hooks.obj
 0001:00011760       ??$?RM@?$_Arg_formatter@V?$back_insert_iterator@V?$_Fmt_buffer@D@std@@@std@@D@__p2286@std@@QAE?AV?$back_insert_iterator@V?$_Fmt_buffer@D@std@@@2@M@Z 10012760 f i Hooks.obj
 0001:000117e0       ??$?RM@?$_Default_arg_formatter@V?$back_insert_iterator@V?$_Fmt_buffer@D@std@@@std@@D@__p2286@std@@QHAE?AV?$back_insert_iterator@V?$_Fmt_buffer@D@std@@@2@M@Z 100127e0 f i Hooks.obj
 0001:00011810       ??$?RN@?$_Arg_formatter@V?$back_insert_iterator@V?$_Fmt_buffer@D@std@@@std@@D@__p2286@std@@QAE?AV?$back_insert_iterator@V?$_Fmt_buffer@D@std@@@2@N@Z 10012810 f i Hooks.obj
 0001:00011890       ??$?RN@?$_Default_arg_formatter@V?$back_insert_iterator@V?$_Fmt_buffer@D@std@@@std@@D@__p2286@std@@QHAE?AV?$back_insert_iterator@V?$_Fmt_buffer@D@std@@@2@N@Z 10012890 f i Hooks.obj
 0001:000118c0       ??$?RO@?$_Arg_formatter@V?$back_insert_iterator@V?$_Fmt_buffer@D@std@@@std@@D@__p2286@std@@QAE?AV?$back_insert_iterator@V?$_Fmt_buffer@D@std@@@2@O@Z 100128c0 f i Hooks.obj
 0001:00011940       ??$?RO@?$_Default_arg_formatter@V?$back_insert_iterator@V?$_Fmt_buffer@D@std@@@std@@D@__p2286@std@@QHAE?AV?$back_insert_iterator@V?$_Fmt_buffer@D@std@@@2@O@Z 10012940 f i Hooks.obj
 0001:00011970       ??$?RPADPADV?$back_insert_iterator@V?$_Fmt_buffer@D@std@@@std@@@_Copy_fn@ranges@std@@SA?AU?$in_out_result@PADV?$back_insert_iterator@V?$_Fmt_buffer@D@std@@@std@@@12@PAD0V?$back_insert_iterator@V?$_Fmt_buffer@D@std@@@2@@Z 10012970 f i Hooks.obj
 0001:00011a30       ??$?RPBD@?$_Arg_formatter@V?$back_insert_iterator@V?$_Fmt_buffer@D@std@@@std@@D@__p2286@std@@QAE?AV?$back_insert_iterator@V?$_Fmt_buffer@D@std@@@2@PBD@Z 10012a30 f i Hooks.obj
 0001:00011ab0       ??$?RPBD@?$_Default_arg_formatter@V?$back_insert_iterator@V?$_Fmt_buffer@D@std@@@std@@D@__p2286@std@@QHAE?AV?$back_insert_iterator@V?$_Fmt_buffer@D@std@@@2@PBD@Z 10012ab0 f i Hooks.obj
 0001:00011ae0       ??$?RPBX@?$_Arg_formatter@V?$back_insert_iterator@V?$_Fmt_buffer@D@std@@@std@@D@__p2286@std@@QAE?AV?$back_insert_iterator@V?$_Fmt_buffer@D@std@@@2@PBX@Z 10012ae0 f i Hooks.obj
 0001:00011b60       ??$?RPBX@?$_Default_arg_formatter@V?$back_insert_iterator@V?$_Fmt_buffer@D@std@@@std@@D@__p2286@std@@QHAE?AV?$back_insert_iterator@V?$_Fmt_buffer@D@std@@@2@PBX@Z 10012b60 f i Hooks.obj
 0001:00011b90       ??$?RUmonostate@std@@@?$_Arg_formatter@V?$back_insert_iterator@V?$_Fmt_buffer@D@std@@@std@@D@__p2286@std@@QAE?AV?$back_insert_iterator@V?$_Fmt_buffer@D@std@@@2@Umonostate@2@@Z 10012b90 f i Hooks.obj
 0001:00011c10       ??$?RUmonostate@std@@@?$_Default_arg_formatter@V?$back_insert_iterator@V?$_Fmt_buffer@D@std@@@std@@D@__p2286@std@@QHAE?AV?$back_insert_iterator@V?$_Fmt_buffer@D@std@@@2@Umonostate@2@@Z 10012c10 f i Hooks.obj
 0001:00011c40       ??$?RV?$basic_string_view@DU?$char_traits@D@std@@@std@@@?$_Arg_formatter@V?$back_insert_iterator@V?$_Fmt_buffer@D@std@@@std@@D@__p2286@std@@QAE?AV?$back_insert_iterator@V?$_Fmt_buffer@D@std@@@2@V?$basic_string_view@DU?$char_traits@D@std@@@2@@Z 10012c40 f i Hooks.obj
 0001:00011cc0       ??$?RV?$basic_string_view@DU?$char_traits@D@std@@@std@@@?$_Default_arg_formatter@V?$back_insert_iterator@V?$_Fmt_buffer@D@std@@@std@@D@__p2286@std@@QHAE?AV?$back_insert_iterator@V?$_Fmt_buffer@D@std@@@2@V?$basic_string_view@DU?$char_traits@D@std@@@2@@Z 10012cc0 f i Hooks.obj
 0001:00011cf0       ??$?R_J@?$_Arg_formatter@V?$back_insert_iterator@V?$_Fmt_buffer@D@std@@@std@@D@__p2286@std@@QAE?AV?$back_insert_iterator@V?$_Fmt_buffer@D@std@@@2@_J@Z 10012cf0 f i Hooks.obj
 0001:00011d70       ??$?R_J@?$_Default_arg_formatter@V?$back_insert_iterator@V?$_Fmt_buffer@D@std@@@std@@D@__p2286@std@@QHAE?AV?$back_insert_iterator@V?$_Fmt_buffer@D@std@@@2@_J@Z 10012d70 f i Hooks.obj
 0001:00011da0       ??$?R_J@_Precision_checker@std@@SA_K_J@Z 10012da0 f i Hooks.obj
 0001:00011dd0       ??$?R_J@_Width_checker@std@@SA_K_J@Z 10012dd0 f i Hooks.obj
 0001:00011e00       ??$?R_K@?$_Arg_formatter@V?$back_insert_iterator@V?$_Fmt_buffer@D@std@@@std@@D@__p2286@std@@QAE?AV?$back_insert_iterator@V?$_Fmt_buffer@D@std@@@2@_K@Z 10012e00 f i Hooks.obj
 0001:00011e80       ??$?R_K@?$_Default_arg_formatter@V?$back_insert_iterator@V?$_Fmt_buffer@D@std@@@std@@D@__p2286@std@@QHAE?AV?$back_insert_iterator@V?$_Fmt_buffer@D@std@@@2@_K@Z 10012e80 f i Hooks.obj
 0001:00011eb0       ??$?R_K@_Precision_checker@std@@SA_K_K@Z 10012eb0 f i Hooks.obj
 0001:00011eb0       ??$?R_K@_Width_checker@std@@SA_K_K@Z 10012eb0 f i Hooks.obj
 0001:00011ec0       ??$?R_N@?$_Arg_formatter@V?$back_insert_iterator@V?$_Fmt_buffer@D@std@@@std@@D@__p2286@std@@QAE?AV?$back_insert_iterator@V?$_Fmt_buffer@D@std@@@2@_N@Z 10012ec0 f i Hooks.obj
 0001:00011fb0       ??$?R_N@?$_Default_arg_formatter@V?$back_insert_iterator@V?$_Fmt_buffer@D@std@@@std@@D@__p2286@std@@QHAE?AV?$back_insert_iterator@V?$_Fmt_buffer@D@std@@@2@_N@Z 10012fb0 f i Hooks.obj
 0001:00011fe0       ??$?__MUsteady_clock@chrono@std@@V?$duration@_JU?$ratio@$00$0DLJKMKAA@@std@@@12@V312@@chrono@std@@YA?A_PABV?$time_point@Usteady_clock@chrono@std@@V?$duration@_JU?$ratio@$00$0DLJKMKAA@@std@@@23@@01@0@Z 10012fe0 f i Hooks.obj
 0001:00012020       ??$?__M_JU?$ratio@$00$00@std@@_JU01@@chrono@std@@YA?A_PABV?$duration@_JU?$ratio@$00$00@std@@@01@0@Z 10013020 f i DLLMain.obj
 0001:00012020       ??$?__M_JU?$ratio@$00$0DLJKMKAA@@std@@_JU01@@chrono@std@@YA?A_PABV?$duration@_JU?$ratio@$00$0DLJKMKAA@@std@@@01@0@Z 10013020 f i Hooks.obj
 0001:00012020       ??$?__M_JU?$ratio@$00$0DOI@@std@@_JU01@@chrono@std@@YA?A_PABV?$duration@_JU?$ratio@$00$0DOI@@std@@@01@0@Z 10013020 f i Hooks.obj
 0001:000120c0       ??$?__M_JU?$ratio@$00$0DLJKMKAA@@std@@_JU?$ratio@$00$0DOI@@1@@chrono@std@@YA?A_PABV?$duration@_JU?$ratio@$00$0DLJKMKAA@@std@@@01@ABV?$duration@_JU?$ratio@$00$0DOI@@std@@@01@@Z 100130c0 f i Hooks.obj
 0001:00012160       ??$?__M_JU?$ratio@$00$0DOI@@std@@_JU?$ratio@$00$0DLJKMKAA@@1@@chrono@std@@YA?A_PABV?$duration@_JU?$ratio@$00$0DOI@@std@@@01@ABV?$duration@_JU?$ratio@$00$0DLJKMKAA@@std@@@01@@Z 10013160 f i Hooks.obj
 0001:00012200       ??$GetOriginal@P6EXPAXI_N1@Z@VMTHook@@QAEP6EXPAXI_N1@ZI@Z 10013200 f i Hooks.obj
 0001:00012200       ??$GetOriginal@P6EXPAXPAVIMatRenderContext@@ABUDrawModelState_t@@ABUModelRenderInfo_t@@PAVmatrix3x4_t@@@Z@VMTHook@@QAEP6EXPAXPAVIMatRenderContext@@ABUDrawModelState_t@@ABUModelRenderInfo_t@@PAVmatrix3x4_t@@@ZI@Z 10013200 f i Hooks.obj
 0001:00012200       ??$GetOriginal@P6GXW4ClientFrameStage_t@@@Z@VMTHook@@QAEP6GXW4ClientFrameStage_t@@@ZI@Z 10013200 f i Hooks.obj
 0001:00012200       ??$GetOriginal@P6IXPAVISurface@@PAX@Z@VMTHook@@QAEP6IXPAVISurface@@PAX@ZI@Z 10013200 f i Hooks.obj
 0001:00012200       ??$GetOriginal@P6IXPAX0@Z@VMTHook@@QAEP6IXPAX0@ZI@Z 10013200 f i Hooks.obj
 0001:00012200       ??$GetOriginal@P6IXPAX0PAVCViewSetup@@@Z@VMTHook@@QAEP6IXPAX0PAVCViewSetup@@@ZI@Z 10013200 f i Hooks.obj
 0001:00012200       ??$GetOriginal@P6IXPAXHHM_N@Z@VMTHook@@QAEP6IXPAXHHM_N@ZI@Z 10013200 f i Hooks.obj
 0001:00012220       ??$_Bit_cast@IM$0A@@std@@YAIABM@Z 10013220 f i Hooks.obj
 0001:00012220       ??$bit_cast@H$$BY03E@std@@YAHAAY03$$CBE@Z 10013220 f i Hooks.obj
 0001:00012220       ??$bit_cast@I$$BY03E@std@@YAIAAY03$$CBE@Z 10013220 f i Hooks.obj
 0001:00012220       ??$bit_cast@PBD$$BY03E@std@@YAPBDAAY03$$CBE@Z 10013220 f i Hooks.obj
 0001:00012220       ??$bit_cast@PBX$$BY03E@std@@YAPBXAAY03$$CBE@Z 10013220 f i Hooks.obj
 0001:00012240       ??$_Bit_cast@MI$0A@@std@@YAMABI@Z 10013240 f i Hooks.obj
 0001:00012240       ??$bit_cast@M$$BY03E@std@@YAMAAY03$$CBE@Z 10013240 f i Hooks.obj
 0001:00012260       ??$_Bit_cast@N_K$0A@@std@@YANAB_K@Z 10013260 f i Hooks.obj
 0001:00012260       ??$bit_cast@N$$BY07E@std@@YANAAY07$$CBE@Z 10013260 f i Hooks.obj
 0001:00012260       ??$bit_cast@O$$BY07E@std@@YAOAAY07$$CBE@Z 10013260 f i Hooks.obj
 0001:00012280       ??$_Bit_cast@_KN$0A@@std@@YA_KABN@Z 10013280 f i Hooks.obj
 0001:00012280       ??$bit_cast@_J$$BY07E@std@@YA_JAAY07$$CBE@Z 10013280 f i Hooks.obj
 0001:00012280       ??$bit_cast@_K$$BY07E@std@@YA_KAAY07$$CBE@Z 10013280 f i Hooks.obj
 0001:000122a0       ??$_Clamped_rel_time_ms_count@V?$duration@_JU?$ratio@$00$0DLJKMKAA@@std@@@chrono@std@@@std@@YA?AU_Clamped_rel_time_ms_count_result@0@ABV?$duration@_JU?$ratio@$00$0DLJKMKAA@@std@@@chrono@0@@Z 100132a0 f i Hooks.obj
 0001:00012340       ??$_Copy_memmove@PAVAnimationLayer@@PAV1@@std@@YAPAVAnimationLayer@@PAV1@00@Z 10013340 f i Hooks.obj
 0001:000123b0       ??$_Copy_memmove@PBDPAD@std@@YAPADPBD0PAD@Z 100133b0 f i Hooks.obj
 0001:00012410       ??$_Copy_memmove_n@PADPAD@std@@YAPADPADI0@Z 10013410 f i Hooks.obj
 0001:00012450       ??$_Copy_n_unchecked4@PADHPAD@std@@YAPADPADH0@Z 10013450 f i Hooks.obj
 0001:000124b0       ??$_Copy_unchecked@PADPADV?$back_insert_iterator@V?$_Fmt_buffer@D@std@@@std@@@ranges@std@@YA?AU?$in_out_result@PADV?$back_insert_iterator@V?$_Fmt_buffer@D@std@@@std@@@01@PAD0V?$back_insert_iterator@V?$_Fmt_buffer@D@std@@@1@@Z 100134b0 f i Hooks.obj
 0001:000124b0       ??$_Copy_unchecked@PBDPBDV?$back_insert_iterator@V?$_Fmt_buffer@D@std@@@std@@@ranges@std@@YA?AU?$in_out_result@PBDV?$back_insert_iterator@V?$_Fmt_buffer@D@std@@@std@@@01@PBD0V?$back_insert_iterator@V?$_Fmt_buffer@D@std@@@1@@Z 100134b0 f i Hooks.obj
 0001:00012500       ??$_Copy_unchecked@PAMPAMPAM@std@@YAPAMPAM00@Z 10013500 f i Hooks.obj
 0001:00012560       ??$_Copy_unchecked@PAVAnimationLayer@@PAV1@PAV1@@std@@YAPAVAnimationLayer@@PAV1@00@Z 10013560 f i Hooks.obj
 0001:000125c0       ??$_Copy_unchecked@PBDPBDPAD@std@@YAPADPBD0PAD@Z 100135c0 f i Hooks.obj
 0001:00012620       ??$_Copy_unchecked@PBDPBDV?$back_insert_iterator@V?$_Fmt_buffer@D@std@@@std@@@std@@YA?AV?$back_insert_iterator@V?$_Fmt_buffer@D@std@@@0@PBD0V10@@Z 10013620 f i Hooks.obj
 0001:00012670       ??$_Could_compare_equal_to_value_type@PADD@std@@YA_NABD@Z 10013670 f i Hooks.obj
 0001:00012670       ??$_Could_compare_equal_to_value_type@PBDD@std@@YA_NABD@Z 10013670 f i Hooks.obj
 0001:000126b0       ??$_Fill_memset@PADD@std@@YAXPADDI@Z 100136b0 f i Hooks.obj
 0001:000126e0       ??$_Find_unchecked@PADD@std@@YAPADPADQADABD@Z 100136e0 f i Hooks.obj
 0001:000126e0       ??$_Find_unchecked@PBDD@std@@YAPBDPBDQBDABD@Z 100136e0 f i Hooks.obj
 0001:00012780       ??$_Find_vectorized@$$CBDD@std@@YAPBDQBD0D@Z 10013780 f i Hooks.obj
 0001:00012780       ??$_Find_vectorized@DD@std@@YAPADQAD0D@Z 10013780 f i Hooks.obj
 0001:000127a0       ??$_Floating_to_chars@$00M@std@@YA?AUto_chars_result@0@PADQADMW4chars_format@0@H@Z 100137a0 f i Hooks.obj
 0001:00012990       ??$_Floating_to_chars@$00N@std@@YA?AUto_chars_result@0@PADQADNW4chars_format@0@H@Z 10013990 f i Hooks.obj
 0001:00012be0       ??$_Floating_to_chars@$01M@std@@YA?AUto_chars_result@0@PADQADMW4chars_format@0@H@Z 10013be0 f i Hooks.obj
 0001:00012e60       ??$_Floating_to_chars@$01N@std@@YA?AUto_chars_result@0@PADQADNW4chars_format@0@H@Z 10013e60 f i Hooks.obj
 0001:00013140       ??$_Floating_to_chars@$0A@M@std@@YA?AUto_chars_result@0@PADQADMW4chars_format@0@H@Z 10014140 f i Hooks.obj
 0001:00013300       ??$_Floating_to_chars@$0A@N@std@@YA?AUto_chars_result@0@PADQADNW4chars_format@0@H@Z 10014300 f i Hooks.obj
 0001:00013510       ??$_Floating_to_chars_fixed_precision@M@std@@YA?AUto_chars_result@0@QAD0MH@Z 10014510 f i Hooks.obj
 0001:000135c0       ??$_Floating_to_chars_fixed_precision@N@std@@YA?AUto_chars_result@0@QAD0NH@Z 100145c0 f i Hooks.obj
 0001:00013670       ??$_Floating_to_chars_general_precision@M@std@@YA?AUto_chars_result@0@PADQADMH@Z 10014670 f i Hooks.obj
 0001:00013b60       ??$_Floating_to_chars_general_precision@N@std@@YA?AUto_chars_result@0@PADQADNH@Z 10014b60 f i Hooks.obj
 0001:00014060       ??$_Floating_to_chars_hex_precision@M@std@@YA?AUto_chars_result@0@PADQADMH@Z 10015060 f i Hooks.obj
 0001:00014300       ??$_Floating_to_chars_hex_precision@N@std@@YA?AUto_chars_result@0@PADQADNH@Z 10015300 f i Hooks.obj
 0001:00014660       ??$_Floating_to_chars_hex_shortest@M@std@@YA?AUto_chars_result@0@PADQADM@Z 10015660 f i Hooks.obj
 0001:00014870       ??$_Floating_to_chars_hex_shortest@N@std@@YA?AUto_chars_result@0@PADQADN@Z 10015870 f i Hooks.obj
 0001:00014ac0       ??$_Floating_to_chars_ryu@M@std@@YA?AUto_chars_result@0@QAD0MW4chars_format@0@@Z 10015ac0 f i Hooks.obj
 0001:00014b40       ??$_Floating_to_chars_ryu@N@std@@YA?AUto_chars_result@0@QAD0NW4chars_format@0@@Z 10015b40 f i Hooks.obj
 0001:00014bc0       ??$_Floating_to_chars_scientific_precision@M@std@@YA?AUto_chars_result@0@QAD0MH@Z 10015bc0 f i Hooks.obj
 0001:00014c60       ??$_Floating_to_chars_scientific_precision@N@std@@YA?AUto_chars_result@0@QAD0NH@Z 10015c60 f i Hooks.obj
 0001:00014d00       ??$_Flush@D@?$_Fmt_iterator_flush@V?$back_insert_iterator@V?$basic_string@DU?$char_traits@D@std@@V?$allocator@D@2@@std@@@std@@@std@@SA?AV?$back_insert_iterator@V?$basic_string@DU?$char_traits@D@std@@V?$allocator@D@2@@std@@@1@QBD0V21@@Z 10015d00 f i Hooks.obj
 0001:00014d50       ??$_Fmt_write@DV?$back_insert_iterator@V?$_Fmt_buffer@D@std@@@std@@@__p2286@std@@YA?AV?$back_insert_iterator@V?$_Fmt_buffer@D@std@@@1@V21@D@Z 10015d50 f i Hooks.obj
 0001:00014d90       ??$_Fmt_write@DV?$back_insert_iterator@V?$_Fmt_buffer@D@std@@@std@@@__p2286@std@@YA?AV?$back_insert_iterator@V?$_Fmt_buffer@D@std@@@1@V21@DU?$_Basic_format_specs@D@1@V_Lazy_locale@1@@Z 10015d90 f i Hooks.obj
 0001:00014ec0       ??$_Fmt_write@DV?$back_insert_iterator@V?$_Fmt_buffer@D@std@@@std@@@__p2286@std@@YA?AV?$back_insert_iterator@V?$_Fmt_buffer@D@std@@@1@V21@PBD@Z 10015ec0 f i Hooks.obj
 0001:00014f30       ??$_Fmt_write@DV?$back_insert_iterator@V?$_Fmt_buffer@D@std@@@std@@@__p2286@std@@YA?AV?$back_insert_iterator@V?$_Fmt_buffer@D@std@@@1@V21@PBDABU?$_Basic_format_specs@D@1@V_Lazy_locale@1@@Z 10015f30 f i Hooks.obj
 0001:00014f70       ??$_Fmt_write@DV?$back_insert_iterator@V?$_Fmt_buffer@D@std@@@std@@@__p2286@std@@YA?AV?$back_insert_iterator@V?$_Fmt_buffer@D@std@@@1@V21@QBX@Z 10015f70 f i Hooks.obj
 0001:00015020       ??$_Fmt_write@DV?$back_insert_iterator@V?$_Fmt_buffer@D@std@@@std@@@__p2286@std@@YA?AV?$back_insert_iterator@V?$_Fmt_buffer@D@std@@@1@V21@QBXABU?$_Basic_format_specs@D@1@V_Lazy_locale@1@@Z 10016020 f i Hooks.obj
 0001:00015130       ??$_Fmt_write@DV?$back_insert_iterator@V?$_Fmt_buffer@D@std@@@std@@@__p2286@std@@YA?AV?$back_insert_iterator@V?$_Fmt_buffer@D@std@@@1@V21@Umonostate@1@@Z 10016130 f i Hooks.obj
 0001:00015130       ??$_Fmt_write@DV?$back_insert_iterator@V?$_Fmt_buffer@D@std@@@std@@@__p2286@std@@YA?AV?$back_insert_iterator@V?$_Fmt_buffer@D@std@@@1@V21@Umonostate@1@ABU?$_Basic_format_specs@D@1@V_Lazy_locale@1@@Z 10016130 f i Hooks.obj
 0001:00015140       ??$_Fmt_write@DV?$back_insert_iterator@V?$_Fmt_buffer@D@std@@@std@@@__p2286@std@@YA?AV?$back_insert_iterator@V?$_Fmt_buffer@D@std@@@1@V21@V?$basic_string_view@DU?$char_traits@D@std@@@1@@Z 10016140 f i Hooks.obj
 0001:00015170       ??$_Fmt_write@DV?$back_insert_iterator@V?$_Fmt_buffer@D@std@@@std@@@__p2286@std@@YA?AV?$back_insert_iterator@V?$_Fmt_buffer@D@std@@@1@V21@V?$basic_string_view@DU?$char_traits@D@std@@@1@ABU?$_Basic_format_specs@D@1@V_Lazy_locale@1@@Z 10016170 f i Hooks.obj
 0001:00015260       ??$_Fmt_write@DV?$back_insert_iterator@V?$_Fmt_buffer@D@std@@@std@@@__p2286@std@@YA?AV?$back_insert_iterator@V?$_Fmt_buffer@D@std@@@1@V21@_N@Z 10016260 f i Hooks.obj
 0001:000152a0       ??$_Fmt_write@DV?$back_insert_iterator@V?$_Fmt_buffer@D@std@@@std@@@__p2286@std@@YA?AV?$back_insert_iterator@V?$_Fmt_buffer@D@std@@@1@V21@_NU?$_Basic_format_specs@D@1@V_Lazy_locale@1@@Z 100162a0 f i Hooks.obj
 0001:000154f0       ??$_Fmt_write@DV?$back_insert_iterator@V?$_Fmt_buffer@D@std@@@std@@H@__p2286@std@@YA?AV?$back_insert_iterator@V?$_Fmt_buffer@D@std@@@1@V21@H@Z 100164f0 f i Hooks.obj
 0001:00015570       ??$_Fmt_write@DV?$back_insert_iterator@V?$_Fmt_buffer@D@std@@@std@@H@__p2286@std@@YA?AV?$back_insert_iterator@V?$_Fmt_buffer@D@std@@@1@V21@HABU?$_Basic_format_specs@D@1@V_Lazy_locale@1@@Z 10016570 f i Hooks.obj
 0001:000155c0       ??$_Fmt_write@DV?$back_insert_iterator@V?$_Fmt_buffer@D@std@@@std@@I@__p2286@std@@YA?AV?$back_insert_iterator@V?$_Fmt_buffer@D@std@@@1@V21@I@Z 100165c0 f i Hooks.obj
 0001:00015640       ??$_Fmt_write@DV?$back_insert_iterator@V?$_Fmt_buffer@D@std@@@std@@I@__p2286@std@@YA?AV?$back_insert_iterator@V?$_Fmt_buffer@D@std@@@1@V21@IABU?$_Basic_format_specs@D@1@V_Lazy_locale@1@@Z 10016640 f i Hooks.obj
 0001:00015690       ??$_Fmt_write@DV?$back_insert_iterator@V?$_Fmt_buffer@D@std@@@std@@M@__p2286@std@@YA?AV?$back_insert_iterator@V?$_Fmt_buffer@D@std@@@1@V21@M@Z 10016690 f i Hooks.obj
 0001:00015770       ??$_Fmt_write@DV?$back_insert_iterator@V?$_Fmt_buffer@D@std@@@std@@M@__p2286@std@@YA?AV?$back_insert_iterator@V?$_Fmt_buffer@D@std@@@1@V21@MABU?$_Basic_format_specs@D@1@V_Lazy_locale@1@@Z 10016770 f i Hooks.obj
 0001:000160d0       ??$_Fmt_write@DV?$back_insert_iterator@V?$_Fmt_buffer@D@std@@@std@@N@__p2286@std@@YA?AV?$back_insert_iterator@V?$_Fmt_buffer@D@std@@@1@V21@N@Z 100170d0 f i Hooks.obj
 0001:000161b0       ??$_Fmt_write@DV?$back_insert_iterator@V?$_Fmt_buffer@D@std@@@std@@N@__p2286@std@@YA?AV?$back_insert_iterator@V?$_Fmt_buffer@D@std@@@1@V21@NABU?$_Basic_format_specs@D@1@V_Lazy_locale@1@@Z 100171b0 f i Hooks.obj
 0001:00016b20       ??$_Fmt_write@DV?$back_insert_iterator@V?$_Fmt_buffer@D@std@@@std@@O@__p2286@std@@YA?AV?$back_insert_iterator@V?$_Fmt_buffer@D@std@@@1@V21@O@Z 10017b20 f i Hooks.obj
 0001:00016c00       ??$_Fmt_write@DV?$back_insert_iterator@V?$_Fmt_buffer@D@std@@@std@@O@__p2286@std@@YA?AV?$back_insert_iterator@V?$_Fmt_buffer@D@std@@@1@V21@OABU?$_Basic_format_specs@D@1@V_Lazy_locale@1@@Z 10017c00 f i Hooks.obj
 0001:00017570       ??$_Fmt_write@DV?$back_insert_iterator@V?$_Fmt_buffer@D@std@@@std@@_J@__p2286@std@@YA?AV?$back_insert_iterator@V?$_Fmt_buffer@D@std@@@1@V21@_J@Z 10018570 f i Hooks.obj
 0001:000175f0       ??$_Fmt_write@DV?$back_insert_iterator@V?$_Fmt_buffer@D@std@@@std@@_J@__p2286@std@@YA?AV?$back_insert_iterator@V?$_Fmt_buffer@D@std@@@1@V21@_JABU?$_Basic_format_specs@D@1@V_Lazy_locale@1@@Z 100185f0 f i Hooks.obj
 0001:00017640       ??$_Fmt_write@DV?$back_insert_iterator@V?$_Fmt_buffer@D@std@@@std@@_K@__p2286@std@@YA?AV?$back_insert_iterator@V?$_Fmt_buffer@D@std@@@1@V21@_K@Z 10018640 f i Hooks.obj
 0001:000176c0       ??$_Fmt_write@DV?$back_insert_iterator@V?$_Fmt_buffer@D@std@@@std@@_K@__p2286@std@@YA?AV?$back_insert_iterator@V?$_Fmt_buffer@D@std@@@1@V21@_KABU?$_Basic_format_specs@D@1@V_Lazy_locale@1@@Z 100186c0 f i Hooks.obj
 0001:00017710       ??$_Format_to_it@DV?$back_insert_iterator@V?$basic_string@DU?$char_traits@D@std@@V?$allocator@D@2@@std@@@std@@V?$basic_format_context@V?$back_insert_iterator@V?$_Fmt_buffer@D@std@@@std@@D@2@@__p2286@std@@YA?AV?$back_insert_iterator@V?$basic_string@DU?$char_traits@D@std@@V?$allocator@D@2@@std@@@1@V21@V?$basic_string_view@DU?$char_traits@D@std@@@1@V?$basic_format_args@V?$basic_format_context@V?$back_insert_iterator@V?$_Fmt_buffer@D@std@@@std@@D@std@@@1@V_Lazy_locale@1@@Z 10018710 f i Hooks.obj
 0001:000177e0       ??$_Get_arg@V?$basic_format_context@V?$back_insert_iterator@V?$_Fmt_buffer@D@std@@@std@@D@std@@@std@@YA?AV?$basic_format_arg@V?$basic_format_context@V?$back_insert_iterator@V?$_Fmt_buffer@D@std@@@std@@D@std@@@0@ABV?$basic_format_context@V?$back_insert_iterator@V?$_Fmt_buffer@D@std@@@std@@D@0@I@Z 100187e0 f i Hooks.obj
 0001:00017820       ??$_Get_dynamic_specs@V_Precision_checker@std@@V?$basic_format_arg@V?$basic_format_context@V?$back_insert_iterator@V?$_Fmt_buffer@D@std@@@std@@D@std@@@2@@std@@YAHV?$basic_format_arg@V?$basic_format_context@V?$back_insert_iterator@V?$_Fmt_buffer@D@std@@@std@@D@std@@@0@@Z 10018820 f i Hooks.obj
 0001:00017890       ??$_Get_dynamic_specs@V_Width_checker@std@@V?$basic_format_arg@V?$basic_format_context@V?$back_insert_iterator@V?$_Fmt_buffer@D@std@@@std@@D@std@@@2@@std@@YAHV?$basic_format_arg@V?$basic_format_context@V?$back_insert_iterator@V?$_Fmt_buffer@D@std@@@std@@D@std@@@0@@Z 10018890 f i Hooks.obj
 0001:00017900       ??$_Get_fmt_codec@D@std@@YAABV?$_Fmt_codec@D$0A@@0@XZ 10018900 f i Hooks.obj
 0001:00017930       ??$_Get_index@$0A@@id@locale@std@@QAEIXZ 10018930 f i Hooks.obj
 0001:00017990       ??$_Get_integral_prefix@E@__p2286@std@@YA?AV?$basic_string_view@DU?$char_traits@D@std@@@1@DE@Z 10018990 f i Hooks.obj
 0001:00017ab0       ??$_Get_integral_prefix@H@__p2286@std@@YA?AV?$basic_string_view@DU?$char_traits@D@std@@@1@DH@Z 10018ab0 f i Hooks.obj
 0001:00017ab0       ??$_Get_integral_prefix@I@__p2286@std@@YA?AV?$basic_string_view@DU?$char_traits@D@std@@@1@DI@Z 10018ab0 f i Hooks.obj
 0001:00017bd0       ??$_Get_integral_prefix@_J@__p2286@std@@YA?AV?$basic_string_view@DU?$char_traits@D@std@@@1@D_J@Z 10018bd0 f i Hooks.obj
 0001:00017bd0       ??$_Get_integral_prefix@_K@__p2286@std@@YA?AV?$basic_string_view@DU?$char_traits@D@std@@@1@D_K@Z 10018bd0 f i Hooks.obj
 0001:00017cf0       ??$_Get_unwrapped@AAV?$_Array_iterator@M$0BI@@std@@@std@@YA?A_TAAV?$_Array_iterator@M$0BI@@0@@Z 10018cf0 f i Hooks.obj
 0001:00017cf0       ??$_Get_unwrapped@AAV?$_Array_iterator@VAnimationLayer@@$0N@@std@@@std@@YA?A_TAAV?$_Array_iterator@VAnimationLayer@@$0N@@0@@Z 10018cf0 f i Hooks.obj
 0001:00017cf0       ??$_Get_unwrapped_n@V?$_Array_iterator@M$0BI@@std@@H@std@@YA?A_T$$QAV?$_Array_iterator@M$0BI@@0@H@Z 10018cf0 f i Hooks.obj
 0001:00017cf0       ??$_Get_unwrapped_n@V?$_Array_iterator@VAnimationLayer@@$0N@@std@@H@std@@YA?A_T$$QAV?$_Array_iterator@VAnimationLayer@@$0N@@0@H@Z 10018cf0 f i Hooks.obj
 0001:00017d00       ??$_Get_value_from_memory@D@?$basic_format_args@V?$basic_format_context@V?$back_insert_iterator@V?$_Fmt_buffer@D@std@@@std@@D@std@@@std@@CA?A_PQBE@Z 10018d00 f i Hooks.obj
 0001:00017d00       ??$_Get_value_from_memory@_N@?$basic_format_args@V?$basic_format_context@V?$back_insert_iterator@V?$_Fmt_buffer@D@std@@@std@@D@std@@@std@@CA?A_PQBE@Z 10018d00 f i Hooks.obj
 0001:00017d20       ??$_Get_value_from_memory@H@?$basic_format_args@V?$basic_format_context@V?$back_insert_iterator@V?$_Fmt_buffer@D@std@@@std@@D@std@@@std@@CA?A_PQBE@Z 10018d20 f i Hooks.obj
 0001:00017d20       ??$_Get_value_from_memory@I@?$basic_format_args@V?$basic_format_context@V?$back_insert_iterator@V?$_Fmt_buffer@D@std@@@std@@D@std@@@std@@CA?A_PQBE@Z 10018d20 f i Hooks.obj
 0001:00017d20       ??$_Get_value_from_memory@PBD@?$basic_format_args@V?$basic_format_context@V?$back_insert_iterator@V?$_Fmt_buffer@D@std@@@std@@D@std@@@std@@CA?A_PQBE@Z 10018d20 f i Hooks.obj
 0001:00017d20       ??$_Get_value_from_memory@PBX@?$basic_format_args@V?$basic_format_context@V?$back_insert_iterator@V?$_Fmt_buffer@D@std@@@std@@D@std@@@std@@CA?A_PQBE@Z 10018d20 f i Hooks.obj
 0001:00017d40       ??$_Get_value_from_memory@M@?$basic_format_args@V?$basic_format_context@V?$back_insert_iterator@V?$_Fmt_buffer@D@std@@@std@@D@std@@@std@@CA?A_PQBE@Z 10018d40 f i Hooks.obj
 0001:00017d60       ??$_Get_value_from_memory@N@?$basic_format_args@V?$basic_format_context@V?$back_insert_iterator@V?$_Fmt_buffer@D@std@@@std@@D@std@@@std@@CA?A_PQBE@Z 10018d60 f i Hooks.obj
 0001:00017d60       ??$_Get_value_from_memory@O@?$basic_format_args@V?$basic_format_context@V?$back_insert_iterator@V?$_Fmt_buffer@D@std@@@std@@D@std@@@std@@CA?A_PQBE@Z 10018d60 f i Hooks.obj
 0001:00017d80       ??$_Get_value_from_memory@V?$basic_string_view@DU?$char_traits@D@std@@@std@@@?$basic_format_args@V?$basic_format_context@V?$back_insert_iterator@V?$_Fmt_buffer@D@std@@@std@@D@std@@@std@@CA?A_PQBE@Z 10018d80 f i Hooks.obj
 0001:00017d80       ??$_Get_value_from_memory@Vhandle@?$basic_format_arg@V?$basic_format_context@V?$back_insert_iterator@V?$_Fmt_buffer@D@std@@@std@@D@std@@@std@@@?$basic_format_args@V?$basic_format_context@V?$back_insert_iterator@V?$_Fmt_buffer@D@std@@@std@@D@std@@@std@@CA?A_PQBE@Z 10018d80 f i Hooks.obj
 0001:00017db0       ??$_Get_value_from_memory@_J@?$basic_format_args@V?$basic_format_context@V?$back_insert_iterator@V?$_Fmt_buffer@D@std@@@std@@D@std@@@std@@CA?A_PQBE@Z 10018db0 f i Hooks.obj
 0001:00017db0       ??$_Get_value_from_memory@_K@?$basic_format_args@V?$basic_format_context@V?$back_insert_iterator@V?$_Fmt_buffer@D@std@@@std@@D@std@@@std@@CA?A_PQBE@Z 10018db0 f i Hooks.obj
 0001:00017dd0       ??$_Idl_distance@$$CBV?$basic_string_view@DU?$char_traits@D@std@@@std@@@ranges@std@@YA?A_PABV?$basic_string_view@DU?$char_traits@D@std@@@1@@Z 10018dd0 f i Hooks.obj
 0001:00017df0       ??$_Idl_distance@PADPADPAD@ranges@std@@YA?A_PABQAD0@Z 10018df0 f i Hooks.obj
 0001:00017e00       ??$_Idl_distance@PAVAnimationLayer@@PAV1@@std@@YA?A_PABQAVAnimationLayer@@0@Z 10018e00 f i Hooks.obj
 0001:00017e00       ??$_Idl_distance@V?$_Array_iterator@VAnimationLayer@@$0N@@std@@PAVAnimationLayer@@@std@@YA?A_PABQAVAnimationLayer@@0@Z 10018e00 f i Hooks.obj
 0001:00017e20       ??$_In_bounds@DE@__p2286@std@@YA_NE@Z 10018e20 f i Hooks.obj
 0001:00017e40       ??$_In_bounds@DH@__p2286@std@@YA_NH@Z 10018e40 f i Hooks.obj
 0001:00017e60       ??$_In_bounds@DI@__p2286@std@@YA_NI@Z 10018e60 f i Hooks.obj
 0001:00017e80       ??$_In_bounds@D_J@__p2286@std@@YA_N_J@Z 10018e80 f i Hooks.obj
 0001:00017ea0       ??$_In_bounds@D_K@__p2286@std@@YA_N_K@Z 10018ea0 f i Hooks.obj
 0001:00017ec0       ??$_In_range@CE@std@@YA_NE@Z 10018ec0 f i Hooks.obj
 0001:00017ef0       ??$_In_range@CH@std@@YA_NH@Z 10018ef0 f i Hooks.obj
 0001:00017f30       ??$_In_range@CI@std@@YA_NI@Z 10018f30 f i Hooks.obj
 0001:00017f60       ??$_In_range@C_J@std@@YA_N_J@Z 10018f60 f i Hooks.obj
 0001:00017fc0       ??$_In_range@C_K@std@@YA_N_K@Z 10018fc0 f i Hooks.obj
 0001:00018000       ??$_In_range@H_K@std@@YA_N_K@Z 10019000 f i Hooks.obj
 0001:00018050       ??$_Integer_to_chars@E@std@@YA?AUto_chars_result@0@PADQADEH@Z 10019050 f i Hooks.obj
 0001:00018310       ??$_Integer_to_chars@H@std@@YA?AUto_chars_result@0@PADQADHH@Z 10019310 f i Hooks.obj
 0001:000185f0       ??$_Integer_to_chars@I@std@@YA?AUto_chars_result@0@PADQADIH@Z 100195f0 f i Hooks.obj
 0001:00018890       ??$_Integer_to_chars@_J@std@@YA?AUto_chars_result@0@PADQAD_JH@Z 10019890 f i Hooks.obj
 0001:00018ce0       ??$_Integer_to_chars@_K@std@@YA?AUto_chars_result@0@PADQAD_KH@Z 10019ce0 f i Hooks.obj
 0001:000190d0       ??$_Large_integer_to_chars@D@std@@YA?AU?$pair@PADW4errc@std@@@0@QAD0IH@Z 1001a0d0 f i Hooks.obj
 0001:00019350       ??$_Maklocchr@D@std@@YADDPADABU_Cvtvec@@@Z 1001a350 f i Hooks.obj
 0001:00019350       ?to_char_type@?$_Narrow_char_traits@DH@std@@SADH@Z 1001a350 f i Interfaces.obj
 0001:00019350       ?to_int_type@?$_Narrow_char_traits@DH@std@@SAHD@Z 1001a350 f i Interfaces.obj
 0001:00019360       ??$_Maklocstr@D@std@@YAPADPBDPADABU_Cvtvec@@@Z 1001a360 f i Hooks.obj
 0001:00019400       ??$_Max_limit@C@std@@YACXZ 1001a400 f i Hooks.obj
 0001:00019410       ??$_Measure_string_prefix@D@__p2286@std@@YAPBDV?$basic_string_view@DU?$char_traits@D@std@@@1@AAH@Z 1001a410 f i Hooks.obj
 0001:00019510       ??$_Next_iter@PBI@std@@YAPBIPBI@Z 1001a510 f i Hooks.obj
 0001:00019530       ??$_Next_iter@PB_K@std@@YAPB_KPB_K@Z 1001a530 f i Hooks.obj
 0001:00019550       ??$_On_dynamic_precision@I@?$_Specs_checker@V?$_Specs_handler@V?$basic_format_parse_context@D@std@@V?$basic_format_context@V?$back_insert_iterator@V?$_Fmt_buffer@D@std@@@std@@D@2@@std@@@std@@QAEXI@Z 1001a550 f i Hooks.obj
 0001:00019580       ??$_On_dynamic_precision@I@?$_Specs_handler@V?$basic_format_parse_context@D@std@@V?$basic_format_context@V?$back_insert_iterator@V?$_Fmt_buffer@D@std@@@std@@D@2@@std@@QAEXI@Z 1001a580 f i Hooks.obj
 0001:000195d0       ??$_On_dynamic_precision@U_Auto_id_tag@std@@@?$_Specs_checker@V?$_Specs_handler@V?$basic_format_parse_context@D@std@@V?$basic_format_context@V?$back_insert_iterator@V?$_Fmt_buffer@D@std@@@std@@D@2@@std@@@std@@QAEXU_Auto_id_tag@1@@Z 1001a5d0 f i Hooks.obj
 0001:00019600       ??$_On_dynamic_precision@U_Auto_id_tag@std@@@?$_Specs_handler@V?$basic_format_parse_context@D@std@@V?$basic_format_context@V?$back_insert_iterator@V?$_Fmt_buffer@D@std@@@std@@D@2@@std@@QAEXU_Auto_id_tag@1@@Z 1001a600 f i Hooks.obj
 0001:00019660       ??$_On_dynamic_width@I@?$_Specs_handler@V?$basic_format_parse_context@D@std@@V?$basic_format_context@V?$back_insert_iterator@V?$_Fmt_buffer@D@std@@@std@@D@2@@std@@QAEXI@Z 1001a660 f i Hooks.obj
 0001:000196b0       ??$_On_dynamic_width@U_Auto_id_tag@std@@@?$_Specs_handler@V?$basic_format_parse_context@D@std@@V?$basic_format_context@V?$back_insert_iterator@V?$_Fmt_buffer@D@std@@@std@@D@2@@std@@QAEXU_Auto_id_tag@1@@Z 1001a6b0 f i Hooks.obj
 0001:00019700       ??$_On_type@D@?$_Specs_checker@V?$_Specs_handler@V?$basic_format_parse_context@D@std@@V?$basic_format_context@V?$back_insert_iterator@V?$_Fmt_buffer@D@std@@@std@@D@2@@std@@@std@@QAEXD@Z 1001a700 f i Hooks.obj
 0001:000199e0       ??$_Parse_align@DAAV?$_Specs_checker@V?$_Specs_handler@V?$basic_format_parse_context@D@std@@V?$basic_format_context@V?$back_insert_iterator@V?$_Fmt_buffer@D@std@@@std@@D@2@@std@@@std@@@std@@YAPBDPBD0AAV?$_Specs_checker@V?$_Specs_handler@V?$basic_format_parse_context@D@std@@V?$basic_format_context@V?$back_insert_iterator@V?$_Fmt_buffer@D@std@@@std@@D@2@@std@@@0@@Z 1001a9e0 f i Hooks.obj
 0001:00019ae0       ??$_Parse_arg_id@DAAU?$_Id_adapter@D@std@@@std@@YAPBDPBD0AAU?$_Id_adapter@D@0@@Z 1001aae0 f i Hooks.obj
 0001:00019ba0       ??$_Parse_arg_id@DU?$_Precision_adapter@DAAV?$_Specs_checker@V?$_Specs_handler@V?$basic_format_parse_context@D@std@@V?$basic_format_context@V?$back_insert_iterator@V?$_Fmt_buffer@D@std@@@std@@D@2@@std@@@std@@@std@@@std@@YAPBDPBD0$$QAU?$_Precision_adapter@DAAV?$_Specs_checker@V?$_Specs_handler@V?$basic_format_parse_context@D@std@@V?$basic_format_context@V?$back_insert_iterator@V?$_Fmt_buffer@D@std@@@std@@D@2@@std@@@std@@@0@@Z 1001aba0 f i Hooks.obj
 0001:00019c60       ??$_Parse_arg_id@DU?$_Width_adapter@DAAV?$_Specs_checker@V?$_Specs_handler@V?$basic_format_parse_context@D@std@@V?$basic_format_context@V?$back_insert_iterator@V?$_Fmt_buffer@D@std@@@std@@D@2@@std@@@std@@@std@@@std@@YAPBDPBD0$$QAU?$_Width_adapter@DAAV?$_Specs_checker@V?$_Specs_handler@V?$basic_format_parse_context@D@std@@V?$basic_format_context@V?$back_insert_iterator@V?$_Fmt_buffer@D@std@@@std@@D@2@@std@@@std@@@0@@Z 1001ac60 f i Hooks.obj
 0001:00019d20       ??$_Parse_format_specs@DAAV?$_Specs_checker@V?$_Specs_handler@V?$basic_format_parse_context@D@std@@V?$basic_format_context@V?$back_insert_iterator@V?$_Fmt_buffer@D@std@@@std@@D@2@@std@@@std@@@std@@YAPBDPBD0AAV?$_Specs_checker@V?$_Specs_handler@V?$basic_format_parse_context@D@std@@V?$basic_format_context@V?$back_insert_iterator@V?$_Fmt_buffer@D@std@@@std@@D@2@@std@@@0@@Z 1001ad20 f i Hooks.obj
 0001:00019ee0       ??$_Parse_format_string@DAAU?$_Format_handler@D@__p2286@std@@@std@@YAXV?$basic_string_view@DU?$char_traits@D@std@@@0@AAU?$_Format_handler@D@__p2286@0@@Z 1001aee0 f i Hooks.obj
 0001:00019fe0       ??$_Parse_nonnegative_integer@D@std@@YAPBDPBD0AAH@Z 1001afe0 f i Hooks.obj
 0001:0001a020       ??$_Parse_nonnegative_integer@D@std@@YAPBDPBD0AAI@Z 1001b020 f i Hooks.obj
 0001:0001a0b0       ??$_Parse_precision@DAAV?$_Specs_checker@V?$_Specs_handler@V?$basic_format_parse_context@D@std@@V?$basic_format_context@V?$back_insert_iterator@V?$_Fmt_buffer@D@std@@@std@@D@2@@std@@@std@@@std@@YAPBDPBD0AAV?$_Specs_checker@V?$_Specs_handler@V?$basic_format_parse_context@D@std@@V?$basic_format_context@V?$back_insert_iterator@V?$_Fmt_buffer@D@std@@@std@@D@2@@std@@@0@@Z 1001b0b0 f i Hooks.obj
 0001:0001a190       ??$_Parse_replacement_field@DAAU?$_Format_handler@D@__p2286@std@@@std@@YAPBDPBD0AAU?$_Format_handler@D@__p2286@0@@Z 1001b190 f i Hooks.obj
 0001:0001a2b0       ??$_Parse_width@DAAV?$_Specs_checker@V?$_Specs_handler@V?$basic_format_parse_context@D@std@@V?$basic_format_context@V?$back_insert_iterator@V?$_Fmt_buffer@D@std@@@std@@D@2@@std@@@std@@@std@@YAPBDPBD0AAV?$_Specs_checker@V?$_Specs_handler@V?$basic_format_parse_context@D@std@@V?$basic_format_context@V?$back_insert_iterator@V?$_Fmt_buffer@D@std@@@std@@D@2@@std@@@0@@Z 1001b2b0 f i Hooks.obj
 0001:0001a370       ??$_Reallocate_grow_by@V<lambda_1>@?1??insert@?$basic_string@DU?$char_traits@D@std@@V?$allocator@D@2@@std@@QAEAAV34@IQBDI@Z@IPBDI@?$basic_string@DU?$char_traits@D@std@@V?$allocator@D@2@@std@@AAEAAV01@IV<lambda_1>@?1??insert@01@QAEAAV01@IQBDI@Z@IPBDI@Z 1001b370 f i Hooks.obj
 0001:0001a4a0       ??$_Reallocate_grow_by@V<lambda_1>@?1??reserve@?$basic_string@DU?$char_traits@D@std@@V?$allocator@D@2@@std@@QAEXI@Z@$$V@?$basic_string@DU?$char_traits@D@std@@V?$allocator@D@2@@std@@AAEAAV01@IV<lambda_1>@?1??reserve@01@QAEXI@Z@@Z 1001b4a0 f i Hooks.obj
 0001:0001a5b0       ??$_Seek_wrapped@V?$_Array_iterator@M$0BI@@std@@PAM@std@@YAXAAV?$_Array_iterator@M$0BI@@0@$$QAPAM@Z 1001b5b0 f i Hooks.obj
 0001:0001a5b0       ??$_Seek_wrapped@V?$_Array_iterator@VAnimationLayer@@$0N@@std@@PAVAnimationLayer@@@std@@YAXAAV?$_Array_iterator@VAnimationLayer@@$0N@@0@$$QAPAVAnimationLayer@@@Z 1001b5b0 f i Hooks.obj
 0001:0001a5b0       ??$_Seek_wrapped@V?$_String_view_iterator@U?$char_traits@D@std@@@std@@PBD@std@@YAXAAV?$_String_view_iterator@U?$char_traits@D@std@@@0@$$QAPBD@Z 1001b5b0 f i Hooks.obj
 0001:0001a5d0       ??$_Seek_wrapped@V?$back_insert_iterator@V?$_Fmt_buffer@D@std@@@std@@V12@@std@@YAXAAV?$back_insert_iterator@V?$_Fmt_buffer@D@std@@@0@$$QAV10@@Z 1001b5d0 f i Hooks.obj
 0001:0001a5e0       ??$_Store@AAPBD@?$_Format_arg_store@V?$basic_format_context@V?$back_insert_iterator@V?$_Fmt_buffer@D@std@@@std@@D@std@@$$CBV?$basic_string_view@DU?$char_traits@D@std@@@2@PBD@std@@AAEXIAAPBD@Z 1001b5e0 f i Hooks.obj
 0001:0001a610       ??$_Store@ABV?$basic_string_view@DU?$char_traits@D@std@@@std@@@?$_Format_arg_store@V?$basic_format_context@V?$back_insert_iterator@V?$_Fmt_buffer@D@std@@@std@@D@std@@$$CBV?$basic_string_view@DU?$char_traits@D@std@@@2@PBD@std@@AAEXIABV?$basic_string_view@DU?$char_traits@D@std@@@1@@Z 1001b610 f i Hooks.obj
 0001:0001a650       ??$_Store_impl@PBD@?$_Format_arg_store@V?$basic_format_context@V?$back_insert_iterator@V?$_Fmt_buffer@D@std@@@std@@D@std@@$$CBV?$basic_string_view@DU?$char_traits@D@std@@@2@PBD@std@@AAEXIW4_Basic_format_arg_type@1@ABQBD@Z 1001b650 f i Hooks.obj
 0001:0001a6d0       ??$_Store_impl@V?$basic_string_view@DU?$char_traits@D@std@@@std@@@?$_Format_arg_store@V?$basic_format_context@V?$back_insert_iterator@V?$_Fmt_buffer@D@std@@@std@@D@std@@$$CBV?$basic_string_view@DU?$char_traits@D@std@@@2@PBD@std@@AAEXIW4_Basic_format_arg_type@1@ABV?$basic_string_view@DU?$char_traits@D@std@@@1@@Z 1001b6d0 f i Hooks.obj
 0001:0001a750       ??$_To_absolute_time@_JU?$ratio@$00$0DOI@@std@@@std@@YA?A_PABV?$duration@_JU?$ratio@$00$0DOI@@std@@@chrono@0@@Z 1001b750 f i Hooks.obj
 0001:0001a860       ??$_Unwrap_iter@V?$_String_view_iterator@U?$char_traits@D@std@@@std@@V12@@ranges@std@@YA?A_T$$QAV?$_String_view_iterator@U?$char_traits@D@std@@@1@@Z 1001b860 f i Hooks.obj
 0001:0001a870       ??$_Unwrap_range_iter@ABV?$basic_string_view@DU?$char_traits@D@std@@@std@@V?$_String_view_iterator@U?$char_traits@D@std@@@2@@ranges@std@@YA?A_T$$QAV?$_String_view_iterator@U?$char_traits@D@std@@@1@@Z 1001b870 f i Hooks.obj
 0001:0001a890       ??$_Visit@U?$_Arg_formatter@V?$back_insert_iterator@V?$_Fmt_buffer@D@std@@@std@@D@__p2286@std@@@?$basic_format_arg@V?$basic_format_context@V?$back_insert_iterator@V?$_Fmt_buffer@D@std@@@std@@D@std@@@std@@QAE?A_T$$QAU?$_Arg_formatter@V?$back_insert_iterator@V?$_Fmt_buffer@D@std@@@std@@D@__p2286@1@@Z 1001b890 f i Hooks.obj
 0001:0001aac0       ??$_Visit@U?$_Default_arg_formatter@V?$back_insert_iterator@V?$_Fmt_buffer@D@std@@@std@@D@__p2286@std@@@?$basic_format_arg@V?$basic_format_context@V?$back_insert_iterator@V?$_Fmt_buffer@D@std@@@std@@D@std@@@std@@QAE?A_T$$QAU?$_Default_arg_formatter@V?$back_insert_iterator@V?$_Fmt_buffer@D@std@@@std@@D@__p2286@1@@Z 1001bac0 f i Hooks.obj
 0001:0001acf0       ??$_Visit@V_Precision_checker@std@@@?$basic_format_arg@V?$basic_format_context@V?$back_insert_iterator@V?$_Fmt_buffer@D@std@@@std@@D@std@@@std@@QAE?A_T$$QAV_Precision_checker@1@@Z 1001bcf0 f i Hooks.obj
 0001:0001aeb0       ??$_Visit@V_Width_checker@std@@@?$basic_format_arg@V?$basic_format_context@V?$back_insert_iterator@V?$_Fmt_buffer@D@std@@@std@@D@std@@@std@@QAE?A_T$$QAV_Width_checker@1@@Z 1001beb0 f i Hooks.obj
 0001:0001b070       ??$_Widen_and_copy@DV?$back_insert_iterator@V?$_Fmt_buffer@D@std@@@std@@@__p2286@std@@YA?AV?$back_insert_iterator@V?$_Fmt_buffer@D@std@@@1@PBDQBDV21@@Z 1001c070 f i Hooks.obj
 0001:0001b0c0       ??$_Write_aligned@V?$back_insert_iterator@V?$_Fmt_buffer@D@std@@@std@@U?$_Basic_format_specs@D@2@AAV<lambda_1>@?1???$_Fmt_write@DV?$back_insert_iterator@V?$_Fmt_buffer@D@std@@@std@@@__p2286@2@YA?AV12@V12@QBXABU32@V_Lazy_locale@2@@Z@@__p2286@std@@YA?AV?$back_insert_iterator@V?$_Fmt_buffer@D@std@@@1@V21@HABU?$_Basic_format_specs@D@1@W4_Fmt_align@1@AAV<lambda_1>@?1???$_Fmt_write@DV?$back_insert_iterator@V?$_Fmt_buffer@D@std@@@std@@@01@YA?AV21@0QBX1V_Lazy_locale@1@@Z@@Z 1001c0c0 f i Hooks.obj
 0001:0001b1e0       ??$_Write_aligned@V?$back_insert_iterator@V?$_Fmt_buffer@D@std@@@std@@U?$_Basic_format_specs@D@2@AAV<lambda_1>@?1???$_Fmt_write@DV?$back_insert_iterator@V?$_Fmt_buffer@D@std@@@std@@M@__p2286@2@YA?AV12@V12@MABU32@V_Lazy_locale@2@@Z@@__p2286@std@@YA?AV?$back_insert_iterator@V?$_Fmt_buffer@D@std@@@1@V21@HABU?$_Basic_format_specs@D@1@W4_Fmt_align@1@AAV<lambda_1>@?1???$_Fmt_write@DV?$back_insert_iterator@V?$_Fmt_buffer@D@std@@@std@@M@01@YA?AV21@0M1V_Lazy_locale@1@@Z@@Z 1001c1e0 f i Hooks.obj
 0001:0001b1e0       ??$_Write_aligned@V?$back_insert_iterator@V?$_Fmt_buffer@D@std@@@std@@U?$_Basic_format_specs@D@2@AAV<lambda_1>@?1???$_Fmt_write@DV?$back_insert_iterator@V?$_Fmt_buffer@D@std@@@std@@N@__p2286@2@YA?AV12@V12@NABU32@V_Lazy_locale@2@@Z@@__p2286@std@@YA?AV?$back_insert_iterator@V?$_Fmt_buffer@D@std@@@1@V21@HABU?$_Basic_format_specs@D@1@W4_Fmt_align@1@AAV<lambda_1>@?1???$_Fmt_write@DV?$back_insert_iterator@V?$_Fmt_buffer@D@std@@@std@@N@01@YA?AV21@0N1V_Lazy_locale@1@@Z@@Z 1001c1e0 f i Hooks.obj
 0001:0001b1e0       ??$_Write_aligned@V?$back_insert_iterator@V?$_Fmt_buffer@D@std@@@std@@U?$_Basic_format_specs@D@2@AAV<lambda_1>@?1???$_Fmt_write@DV?$back_insert_iterator@V?$_Fmt_buffer@D@std@@@std@@O@__p2286@2@YA?AV12@V12@OABU32@V_Lazy_locale@2@@Z@@__p2286@std@@YA?AV?$back_insert_iterator@V?$_Fmt_buffer@D@std@@@1@V21@HABU?$_Basic_format_specs@D@1@W4_Fmt_align@1@AAV<lambda_1>@?1???$_Fmt_write@DV?$back_insert_iterator@V?$_Fmt_buffer@D@std@@@std@@O@01@YA?AV21@0O1V_Lazy_locale@1@@Z@@Z 1001c1e0 f i Hooks.obj
 0001:0001b300       ??$_Write_aligned@V?$back_insert_iterator@V?$_Fmt_buffer@D@std@@@std@@U?$_Basic_format_specs@D@2@AAV<lambda_1>@?1???$_Write_integral@DV?$back_insert_iterator@V?$_Fmt_buffer@D@std@@@std@@E@__p2286@2@YA?AV12@V12@EU32@V_Lazy_locale@2@@Z@@__p2286@std@@YA?AV?$back_insert_iterator@V?$_Fmt_buffer@D@std@@@1@V21@HABU?$_Basic_format_specs@D@1@W4_Fmt_align@1@AAV<lambda_1>@?1???$_Write_integral@DV?$back_insert_iterator@V?$_Fmt_buffer@D@std@@@std@@E@01@YA?AV21@0EU31@V_Lazy_locale@1@@Z@@Z 1001c300 f i Hooks.obj
 0001:0001b420       ??$_Write_aligned@V?$back_insert_iterator@V?$_Fmt_buffer@D@std@@@std@@U?$_Basic_format_specs@D@2@AAV<lambda_1>@?1???$_Write_integral@DV?$back_insert_iterator@V?$_Fmt_buffer@D@std@@@std@@H@__p2286@2@YA?AV12@V12@HU32@V_Lazy_locale@2@@Z@@__p2286@std@@YA?AV?$back_insert_iterator@V?$_Fmt_buffer@D@std@@@1@V21@HABU?$_Basic_format_specs@D@1@W4_Fmt_align@1@AAV<lambda_1>@?1???$_Write_integral@DV?$back_insert_iterator@V?$_Fmt_buffer@D@std@@@std@@H@01@YA?AV21@0HU31@V_Lazy_locale@1@@Z@@Z 1001c420 f i Hooks.obj
 0001:0001b540       ??$_Write_aligned@V?$back_insert_iterator@V?$_Fmt_buffer@D@std@@@std@@U?$_Basic_format_specs@D@2@AAV<lambda_1>@?1???$_Write_integral@DV?$back_insert_iterator@V?$_Fmt_buffer@D@std@@@std@@I@__p2286@2@YA?AV12@V12@IU32@V_Lazy_locale@2@@Z@@__p2286@std@@YA?AV?$back_insert_iterator@V?$_Fmt_buffer@D@std@@@1@V21@HABU?$_Basic_format_specs@D@1@W4_Fmt_align@1@AAV<lambda_1>@?1???$_Write_integral@DV?$back_insert_iterator@V?$_Fmt_buffer@D@std@@@std@@I@01@YA?AV21@0IU31@V_Lazy_locale@1@@Z@@Z 1001c540 f i Hooks.obj
 0001:0001b660       ??$_Write_aligned@V?$back_insert_iterator@V?$_Fmt_buffer@D@std@@@std@@U?$_Basic_format_specs@D@2@AAV<lambda_1>@?1???$_Write_integral@DV?$back_insert_iterator@V?$_Fmt_buffer@D@std@@@std@@_J@__p2286@2@YA?AV12@V12@_JU32@V_Lazy_locale@2@@Z@@__p2286@std@@YA?AV?$back_insert_iterator@V?$_Fmt_buffer@D@std@@@1@V21@HABU?$_Basic_format_specs@D@1@W4_Fmt_align@1@AAV<lambda_1>@?1???$_Write_integral@DV?$back_insert_iterator@V?$_Fmt_buffer@D@std@@@std@@_J@01@YA?AV21@0_JU31@V_Lazy_locale@1@@Z@@Z 1001c660 f i Hooks.obj
 0001:0001b780       ??$_Write_aligned@V?$back_insert_iterator@V?$_Fmt_buffer@D@std@@@std@@U?$_Basic_format_specs@D@2@AAV<lambda_1>@?1???$_Write_integral@DV?$back_insert_iterator@V?$_Fmt_buffer@D@std@@@std@@_K@__p2286@2@YA?AV12@V12@_KU32@V_Lazy_locale@2@@Z@@__p2286@std@@YA?AV?$back_insert_iterator@V?$_Fmt_buffer@D@std@@@1@V21@HABU?$_Basic_format_specs@D@1@W4_Fmt_align@1@AAV<lambda_1>@?1???$_Write_integral@DV?$back_insert_iterator@V?$_Fmt_buffer@D@std@@@std@@_K@01@YA?AV21@0_KU31@V_Lazy_locale@1@@Z@@Z 1001c780 f i Hooks.obj
 0001:0001b8a0       ??$_Write_aligned@V?$back_insert_iterator@V?$_Fmt_buffer@D@std@@@std@@U?$_Basic_format_specs@D@2@V<lambda_1>@?1???$_Fmt_write@DV?$back_insert_iterator@V?$_Fmt_buffer@D@std@@@std@@@__p2286@2@YA?AV12@V12@V?$basic_string_view@DU?$char_traits@D@std@@@2@ABU32@V_Lazy_locale@2@@Z@@__p2286@std@@YA?AV?$back_insert_iterator@V?$_Fmt_buffer@D@std@@@1@V21@HABU?$_Basic_format_specs@D@1@W4_Fmt_align@1@$$QAV<lambda_1>@?1???$_Fmt_write@DV?$back_insert_iterator@V?$_Fmt_buffer@D@std@@@std@@@01@YA?AV21@0V?$basic_string_view@DU?$char_traits@D@std@@@1@1V_Lazy_locale@1@@Z@@Z 1001c8a0 f i Hooks.obj
 0001:0001b9c0       ??$_Write_aligned@V?$back_insert_iterator@V?$_Fmt_buffer@D@std@@@std@@U?$_Basic_format_specs@D@2@V<lambda_1>@?1???$_Write_escaped@DV?$back_insert_iterator@V?$_Fmt_buffer@D@std@@@std@@@__p2286@2@YA?AV12@V12@V?$basic_string_view@DU?$char_traits@D@std@@@2@U32@D@Z@@__p2286@std@@YA?AV?$back_insert_iterator@V?$_Fmt_buffer@D@std@@@1@V21@HABU?$_Basic_format_specs@D@1@W4_Fmt_align@1@$$QAV<lambda_1>@?1???$_Write_escaped@DV?$back_insert_iterator@V?$_Fmt_buffer@D@std@@@std@@@01@YA?AV21@0V?$basic_string_view@DU?$char_traits@D@std@@@1@U31@D@Z@@Z 1001c9c0 f i Hooks.obj
 0001:0001bae0       ??$_Write_escaped@DV?$back_insert_iterator@V?$_Fmt_buffer@D@std@@@std@@@__p2286@std@@YA?AV?$back_insert_iterator@V?$_Fmt_buffer@D@std@@@1@V21@V?$basic_string_view@DU?$char_traits@D@std@@@1@D@Z 1001cae0 f i Hooks.obj
 0001:0001bf80       ??$_Write_escaped@DV?$back_insert_iterator@V?$_Fmt_buffer@D@std@@@std@@@__p2286@std@@YA?AV?$back_insert_iterator@V?$_Fmt_buffer@D@std@@@1@V21@V?$basic_string_view@DU?$char_traits@D@std@@@1@U?$_Basic_format_specs@D@1@D@Z 1001cf80 f i Hooks.obj
 0001:0001c100       ??$_Write_integral@DV?$back_insert_iterator@V?$_Fmt_buffer@D@std@@@std@@E@__p2286@std@@YA?AV?$back_insert_iterator@V?$_Fmt_buffer@D@std@@@1@V21@EU?$_Basic_format_specs@D@1@V_Lazy_locale@1@@Z 1001d100 f i Hooks.obj
 0001:0001c580       ??$_Write_integral@DV?$back_insert_iterator@V?$_Fmt_buffer@D@std@@@std@@H@__p2286@std@@YA?AV?$back_insert_iterator@V?$_Fmt_buffer@D@std@@@1@V21@HU?$_Basic_format_specs@D@1@V_Lazy_locale@1@@Z 1001d580 f i Hooks.obj
 0001:0001ca00       ??$_Write_integral@DV?$back_insert_iterator@V?$_Fmt_buffer@D@std@@@std@@I@__p2286@std@@YA?AV?$back_insert_iterator@V?$_Fmt_buffer@D@std@@@1@V21@IU?$_Basic_format_specs@D@1@V_Lazy_locale@1@@Z 1001da00 f i Hooks.obj
 0001:0001ce80       ??$_Write_integral@DV?$back_insert_iterator@V?$_Fmt_buffer@D@std@@@std@@_J@__p2286@std@@YA?AV?$back_insert_iterator@V?$_Fmt_buffer@D@std@@@1@V21@_JU?$_Basic_format_specs@D@1@V_Lazy_locale@1@@Z 1001de80 f i Hooks.obj
 0001:0001d320       ??$_Write_integral@DV?$back_insert_iterator@V?$_Fmt_buffer@D@std@@@std@@_K@__p2286@std@@YA?AV?$back_insert_iterator@V?$_Fmt_buffer@D@std@@@1@V21@_KU?$_Basic_format_specs@D@1@V_Lazy_locale@1@@Z 1001e320 f i Hooks.obj
 0001:0001d7c0       ??$_Write_separated_integer@DV?$back_insert_iterator@V?$_Fmt_buffer@D@std@@@std@@@__p2286@std@@YA?AV?$back_insert_iterator@V?$_Fmt_buffer@D@std@@@1@PBDQBDV?$basic_string_view@DU?$char_traits@D@std@@@1@DHV21@@Z 1001e7c0 f i Hooks.obj
 0001:0001d930       ??$_Write_sign@V?$back_insert_iterator@V?$_Fmt_buffer@D@std@@@std@@@__p2286@std@@YA?AV?$back_insert_iterator@V?$_Fmt_buffer@D@std@@@1@V21@W4_Fmt_sign@1@_N@Z 1001e930 f i Hooks.obj
 0001:0001d9e0       ??$__append_c_digits@D@std@@YAXIIQAD@Z 1001e9e0 f i Hooks.obj
 0001:0001da70       ??$__append_n_digits@D@std@@YAXIIQAD@Z 1001ea70 f i Hooks.obj
 0001:0001db90       ??$__append_nine_digits@D@std@@YAXIQAD@Z 1001eb90 f i Hooks.obj
 0001:0001dc60       ??$__d2fixed_buffered_n@D@std@@YA?AU?$pair@PADW4errc@std@@@0@PADQADNI@Z 1001ec60 f i Hooks.obj
 0001:0001e500       ??$__d2s_buffered_n@D@std@@YA?AU?$pair@PADW4errc@std@@@0@QAD0NW4chars_format@0@@Z 1001f500 f i Hooks.obj
 0001:0001e760       ??$__f2s_buffered_n@D@std@@YA?AU?$pair@PADW4errc@std@@@0@QAD0MW4chars_format@0@@Z 1001f760 f i Hooks.obj
 0001:0001e8f0       ??$__to_chars@D@std@@YA?AU?$pair@PADW4errc@std@@@0@QAD0U__floating_decimal_32@0@W4chars_format@0@II@Z 1001f8f0 f i Hooks.obj
 0001:0001eec0       ??$__to_chars@D@std@@YA?AU?$pair@PADW4errc@std@@@0@QAD0U__floating_decimal_64@0@W4chars_format@0@N@Z 1001fec0 f i Hooks.obj
 0001:0001f860       ??$advance@PBIH@std@@YAXAAPBIH@Z 10020860 f i Hooks.obj
 0001:0001f880       ??$advance@PB_KH@std@@YAXAAPB_KH@Z 10020880 f i Hooks.obj
 0001:0001f8a0       ??$bit_cast@D$$BY00E@std@@YADAAY00$$CBE@Z 100208a0 f i Hooks.obj
 0001:0001f8a0       ??$bit_cast@_N$$BY00E@std@@YA_NAAY00$$CBE@Z 100208a0 f i Hooks.obj
 0001:0001f8c0       ??$bit_cast@V?$basic_string_view@DU?$char_traits@D@std@@@std@@$$BY07E@std@@YA?AV?$basic_string_view@DU?$char_traits@D@std@@@0@AAY07$$CBE@Z 100208c0 f i Hooks.obj
 0001:0001f8c0       ??$bit_cast@Vhandle@?$basic_format_arg@V?$basic_format_context@V?$back_insert_iterator@V?$_Fmt_buffer@D@std@@@std@@D@std@@@std@@$$BY07E@std@@YA?AVhandle@?$basic_format_arg@V?$basic_format_context@V?$back_insert_iterator@V?$_Fmt_buffer@D@std@@@std@@D@std@@@0@AAY07$$CBE@Z 100208c0 f i Hooks.obj
 0001:0001f8f0       ??$call_once@V<lambda_1>@?1???$_Get_fmt_codec@D@std@@YAABV?$_Fmt_codec@D$0A@@2@XZ@$$V@std@@YAXAAUonce_flag@0@$$QAV<lambda_1>@?1???$_Get_fmt_codec@D@0@YAABV?$_Fmt_codec@D$0A@@0@XZ@@Z 100208f0 f i Hooks.obj
 0001:0001f980       ??$ceil@V?$duration@_JU?$ratio@$00$0DOI@@std@@@chrono@std@@_JU?$ratio@$00$0DLJKMKAA@@3@$0A@@chrono@std@@YA?AV?$duration@_JU?$ratio@$00$0DOI@@std@@@01@ABV?$duration@_JU?$ratio@$00$0DLJKMKAA@@std@@@01@@Z 10020980 f i Hooks.obj
 0001:0001fa20       ??$construct_at@V?$_Fmt_codec@D$0A@@std@@$$V@std@@YAPAV?$_Fmt_codec@D$0A@@0@QAV10@@Z 10020a20 f i Hooks.obj
 0001:0001fa60       ??$copy@PAVAnimationLayer@@V?$_Array_iterator@VAnimationLayer@@$0N@@std@@@std@@YA?AV?$_Array_iterator@VAnimationLayer@@$0N@@0@PAVAnimationLayer@@0V10@@Z 10020a60 f i Hooks.obj
 0001:0001faf0       ??$copy@V?$_Array_iterator@M$0BI@@std@@V12@@std@@YA?AV?$_Array_iterator@M$0BI@@0@V10@00@Z 10020af0 f i Hooks.obj
 0001:0001fb80       ??$copy@V?$_Array_iterator@VAnimationLayer@@$0N@@std@@PAVAnimationLayer@@@std@@YAPAVAnimationLayer@@V?$_Array_iterator@VAnimationLayer@@$0N@@0@0PAV1@@Z 10020b80 f i Hooks.obj
 0001:0001fc10       ??$distance@PBI@std@@YAHPBI0@Z 10020c10 f i Hooks.obj
 0001:0001fc20       ??$distance@PB_K@std@@YAHPB_K0@Z 10020c20 f i Hooks.obj
 0001:0001fc30       ??$duration_cast@V?$duration@_JU?$ratio@$00$0DLJKMKAA@@std@@@chrono@std@@_JU?$ratio@$00$0DOI@@3@$0A@@chrono@std@@YA?AV?$duration@_JU?$ratio@$00$0DLJKMKAA@@std@@@01@ABV?$duration@_JU?$ratio@$00$0DOI@@std@@@01@@Z 10020c30 f i Hooks.obj
 0001:0001fc70       ??$duration_cast@V?$duration@_JU?$ratio@$00$0DOI@@std@@@chrono@std@@_JU?$ratio@$00$0DLJKMKAA@@3@$0A@@chrono@std@@YA?AV?$duration@_JU?$ratio@$00$0DOI@@std@@@01@ABV?$duration@_JU?$ratio@$00$0DLJKMKAA@@std@@@01@@Z 10020c70 f i Hooks.obj
 0001:0001fcb0       ??$end@$$CBI$0BGL@@std@@YAPBIAAY0BGL@$$CBI@Z 10020cb0 f i Hooks.obj
 0001:0001fcc0       ??$end@$$CBI$0CMH@@std@@YAPBIAAY0CMH@$$CBI@Z 10020cc0 f i Hooks.obj
 0001:0001fcd0       ??$end@D$03@std@@YAPADAAY03D@Z 10020cd0 f i Hooks.obj
 0001:0001fce0       ??$end@D$07@std@@YAPADAAY07D@Z 10020ce0 f i Hooks.obj
 0001:0001fcf0       ??$end@D$0BI@@std@@YAPADAAY0BI@D@Z 10020cf0 f i Hooks.obj
 0001:0001fd00       ??$end@D$0DAF@@std@@YAPADAAY0DAF@D@Z 10020d00 f i Hooks.obj
 0001:0001fd10       ??$end@D$0EB@@std@@YAPADAAY0EB@D@Z 10020d10 f i Hooks.obj
 0001:0001fd20       ??$end@D$0FGJ@@std@@YAPADAAY0FGJ@D@Z 10020d20 f i Hooks.obj
 0001:0001fd30       ??$end@D$0HF@@std@@YAPADAAY0HF@D@Z 10020d30 f i Hooks.obj
 0001:0001fd40       ??$fill@PADD@std@@YAXQAD0ABD@Z 10020d40 f i Hooks.obj
 0001:0001fdc0       ??$fill_n@PADHD@std@@YAPADPADHABD@Z 10020dc0 f i Hooks.obj
 0001:0001fe70       ??$fill_n@PADID@std@@YAPADPADIABD@Z 10020e70 f i Hooks.obj
 0001:0001ff20       ??$find@PADD@std@@YAPADPADQADABD@Z 10020f20 f i Hooks.obj
 0001:0001ff90       ??$find_if@PBIV<lambda_1>@?1???R1?1???$_Floating_to_chars_general_precision@M@std@@YA?AUto_chars_result@2@PADQADMH@Z@QBE@XZ@@std@@YAPBIPBIQBIV<lambda_1>@?1???R1?1???$_Floating_to_chars_general_precision@M@0@YA?AUto_chars_result@0@PADQADMH@Z@QBE@XZ@@Z 10020f90 f i Hooks.obj
 0001:00020010       ??$find_if@PB_KV<lambda_1>@?1???R1?1???$_Floating_to_chars_general_precision@N@std@@YA?AUto_chars_result@2@PADQADNH@Z@QBE@XZ@@std@@YAPB_KPB_KQB_KV<lambda_1>@?1???R1?1???$_Floating_to_chars_general_precision@N@0@YA?AUto_chars_result@0@PADQADNH@Z@QBE@XZ@@Z 10021010 f i Hooks.obj
 0001:00020090       ??$format@ABV?$basic_string_view@DU?$char_traits@D@std@@@std@@AAPBD@__p2286@std@@YA?AV?$basic_string@DU?$char_traits@D@std@@V?$allocator@D@2@@1@U?$basic_format_string@DABV?$basic_string_view@DU?$char_traits@D@std@@@std@@AAPBD@1@ABV?$basic_string_view@DU?$char_traits@D@std@@@1@AAPBD@Z 10021090 f i Hooks.obj
 0001:00020130       ??$in_range@CE@std@@YA_NE@Z 10021130 f i Hooks.obj
 0001:00020150       ??$in_range@CH@std@@YA_NH@Z 10021150 f i Hooks.obj
 0001:00020170       ??$in_range@CI@std@@YA_NI@Z 10021170 f i Hooks.obj
 0001:00020190       ??$in_range@C_J@std@@YA_N_J@Z 10021190 f i Hooks.obj
 0001:000201b0       ??$in_range@C_K@std@@YA_N_K@Z 100211b0 f i Hooks.obj
 0001:000201d0       ??$in_range@H_K@std@@YA_N_K@Z 100211d0 f i Hooks.obj
 0001:000201f0       ??$insert@PBD$0A@@?$basic_string@DU?$char_traits@D@std@@V?$allocator@D@2@@std@@QAE?AV?$_String_iterator@V?$_String_val@U?$_Simple_types@D@std@@@std@@@1@V?$_String_const_iterator@V?$_String_val@U?$_Simple_types@D@std@@@std@@@1@QBD1@Z 100211f0 f i Hooks.obj
 0001:00020290       ??$invoke@V<lambda_1>@?1???$_Get_fmt_codec@D@std@@YAABV?$_Fmt_codec@D$0A@@2@XZ@@std@@YAX$$QAV<lambda_1>@?1???$_Get_fmt_codec@D@0@YAABV?$_Fmt_codec@D$0A@@0@XZ@@Z 10021290 f i Hooks.obj
 0001:000202a0       ??$isfinite@M@@YA_NM@Z     100212a0 f i Hooks.obj
 0001:000202e0       ??$isfinite@N@@YA_NN@Z     100212e0 f i Hooks.obj
 0001:00020320       ??$isfinite@O@@YA_NO@Z     10021320 f i Hooks.obj
 0001:00020360       ??$isnan@M@@YA_NM@Z        10021360 f i Hooks.obj
 0001:000203a0       ??$isnan@N@@YA_NN@Z        100213a0 f i Hooks.obj
 0001:000203e0       ??$isnan@O@@YA_NO@Z        100213e0 f i Hooks.obj
 0001:00020420       ??$lower_bound@PB_K_KU?$less@X@std@@@std@@YAPB_KPB_KQB_KAB_KU?$less@X@0@@Z 10021420 f i Hooks.obj
 0001:000204f0       ??$make_format_args@V?$basic_format_context@V?$back_insert_iterator@V?$_Fmt_buffer@D@std@@@std@@D@std@@$$CBV?$basic_string_view@DU?$char_traits@D@std@@@2@PBD@std@@YA?A_PABV?$basic_string_view@DU?$char_traits@D@std@@@0@AAPBD@Z 100214f0 f i Hooks.obj
 0001:00020510       ??$make_unique@$$BY0A@I$0A@@std@@YA?AV?$unique_ptr@$$BY0A@IU?$default_delete@$$BY0A@I@std@@@0@I@Z 10021510 f i Hooks.obj
 0001:00020590       ??$make_unique@VNetvarTree@@$$V$0A@@std@@YA?AV?$unique_ptr@VNetvarTree@@U?$default_delete@VNetvarTree@@@std@@@0@XZ 10021590 f i Hooks.obj
 0001:00020620       ??$make_unique@VVMTHook@@AAPAVCModelRender@@$0A@@std@@YA?AV?$unique_ptr@VVMTHook@@U?$default_delete@VVMTHook@@@std@@@0@AAPAVCModelRender@@@Z 10021620 f i Hooks.obj
 0001:00020620       ??$make_unique@VVMTHook@@AAPAVIBaseClientDLL@@$0A@@std@@YA?AV?$unique_ptr@VVMTHook@@U?$default_delete@VVMTHook@@@std@@@0@AAPAVIBaseClientDLL@@@Z 10021620 f i Hooks.obj
 0001:00020620       ??$make_unique@VVMTHook@@AAPAVIClientMode@@$0A@@std@@YA?AV?$unique_ptr@VVMTHook@@U?$default_delete@VVMTHook@@@std@@@0@AAPAVIClientMode@@@Z 10021620 f i Hooks.obj
 0001:00020620       ??$make_unique@VVMTHook@@AAPAVIPanel@@$0A@@std@@YA?AV?$unique_ptr@VVMTHook@@U?$default_delete@VVMTHook@@@std@@@0@AAPAVIPanel@@@Z 10021620 f i Hooks.obj
 0001:00020620       ??$make_unique@VVMTHook@@AAPAVISurface@@$0A@@std@@YA?AV?$unique_ptr@VVMTHook@@U?$default_delete@VVMTHook@@@std@@@0@AAPAVISurface@@@Z 10021620 f i Hooks.obj
 0001:00020620       ??$make_unique@VVMTHook@@AAPAVIVRenderView@@$0A@@std@@YA?AV?$unique_ptr@VVMTHook@@U?$default_delete@VVMTHook@@@std@@@0@AAPAVIVRenderView@@@Z 10021620 f i Hooks.obj
 0001:000206c0       ??$min@H@std@@YAABHABH0@Z  100216c0 f i Hooks.obj
 0001:000206f0       ??$next@PBI@std@@YAPBIPBIH@Z 100216f0 f i Hooks.obj
 0001:00020710       ??$next@PB_K@std@@YAPB_KPB_KH@Z 10021710 f i Hooks.obj
 0001:00020730       ??$reset@PAI$0A@@?$unique_ptr@$$BY0A@IU?$default_delete@$$BY0A@I@std@@@std@@QAEXPAI@Z 10021730 f i Hooks.obj
 0001:00020770       ??$sleep_for@_JU?$ratio@$00$0DOI@@std@@@this_thread@std@@YAXABV?$duration@_JU?$ratio@$00$0DOI@@std@@@chrono@1@@Z 10021770 f i Hooks.obj
 0001:000207a0       ??$sleep_until@Usteady_clock@chrono@std@@V?$duration@_JU?$ratio@$00$0DLJKMKAA@@std@@@23@@this_thread@std@@YAXABV?$time_point@Usteady_clock@chrono@std@@V?$duration@_JU?$ratio@$00$0DLJKMKAA@@std@@@23@@chrono@1@@Z 100217a0 f i Hooks.obj
 0001:00020840       ??$upper_bound@PBII@std@@YAPBIPBI0ABI@Z 10021840 f i Hooks.obj
 0001:00020870       ??$upper_bound@PBIIU?$less@X@std@@@std@@YAPBIPBI0ABIU?$less@X@0@@Z 10021870 f i Hooks.obj
 0001:00020940       ??$use_facet@V?$numpunct@D@std@@@std@@YAABV?$numpunct@D@0@ABVlocale@0@@Z 10021940 f i Hooks.obj
 0001:00020a50       ??$vformat@$0A@@__p2286@std@@YA?AV?$basic_string@DU?$char_traits@D@std@@V?$allocator@D@2@@1@V?$basic_string_view@DU?$char_traits@D@std@@@1@V?$basic_format_args@V?$basic_format_context@V?$back_insert_iterator@V?$_Fmt_buffer@D@std@@@std@@D@std@@@1@@Z 10021a50 f i Hooks.obj
 0001:00020b40       ??$vformat_to@V?$back_insert_iterator@V?$basic_string@DU?$char_traits@D@std@@V?$allocator@D@2@@std@@@std@@@__p2286@std@@YA?AV?$back_insert_iterator@V?$basic_string@DU?$char_traits@D@std@@V?$allocator@D@2@@std@@@1@V21@V?$basic_string_view@DU?$char_traits@D@std@@@1@V?$basic_format_args@V?$basic_format_context@V?$back_insert_iterator@V?$_Fmt_buffer@D@std@@@std@@D@std@@@1@@Z 10021b40 f i Hooks.obj
 0001:00020b80       ??$visit_format_arg@U?$_Arg_formatter@V?$back_insert_iterator@V?$_Fmt_buffer@D@std@@@std@@D@__p2286@std@@V?$basic_format_context@V?$back_insert_iterator@V?$_Fmt_buffer@D@std@@@std@@D@3@@std@@YA?A_T$$QAU?$_Arg_formatter@V?$back_insert_iterator@V?$_Fmt_buffer@D@std@@@std@@D@__p2286@0@V?$basic_format_arg@V?$basic_format_context@V?$back_insert_iterator@V?$_Fmt_buffer@D@std@@@std@@D@std@@@0@@Z 10021b80 f i Hooks.obj
 0001:00020ba0       ??$visit_format_arg@U?$_Default_arg_formatter@V?$back_insert_iterator@V?$_Fmt_buffer@D@std@@@std@@D@__p2286@std@@V?$basic_format_context@V?$back_insert_iterator@V?$_Fmt_buffer@D@std@@@std@@D@3@@std@@YA?A_T$$QAU?$_Default_arg_formatter@V?$back_insert_iterator@V?$_Fmt_buffer@D@std@@@std@@D@__p2286@0@V?$basic_format_arg@V?$basic_format_context@V?$back_insert_iterator@V?$_Fmt_buffer@D@std@@@std@@D@std@@@0@@Z 10021ba0 f i Hooks.obj
 0001:00020bc0       ??$visit_format_arg@V_Precision_checker@std@@V?$basic_format_context@V?$back_insert_iterator@V?$_Fmt_buffer@D@std@@@std@@D@2@@std@@YA?A_T$$QAV_Precision_checker@0@V?$basic_format_arg@V?$basic_format_context@V?$back_insert_iterator@V?$_Fmt_buffer@D@std@@@std@@D@std@@@0@@Z 10021bc0 f i Hooks.obj
 0001:00020be0       ??$visit_format_arg@V_Width_checker@std@@V?$basic_format_context@V?$back_insert_iterator@V?$_Fmt_buffer@D@std@@@std@@D@2@@std@@YA?A_T$$QAV_Width_checker@0@V?$basic_format_arg@V?$basic_format_context@V?$back_insert_iterator@V?$_Fmt_buffer@D@std@@@std@@D@std@@@0@@Z 10021be0 f i Hooks.obj
 0001:00020c00       ??0<lambda_1>@?1???$_Floating_to_chars_general_precision@M@std@@YA?AUto_chars_result@1@PADQADMH@Z@QAE@ABQBI2ABI@Z 10021c00 f i Hooks.obj
 0001:00020c30       ??0<lambda_1>@?1???$_Floating_to_chars_general_precision@N@std@@YA?AUto_chars_result@1@PADQADNH@Z@QAE@ABHABQB_K3AB_K@Z 10021c30 f i Hooks.obj
 0001:00020c80       ??0<lambda_1>@?1???$_Fmt_write@DV?$back_insert_iterator@V?$_Fmt_buffer@D@std@@@std@@@__p2286@std@@YA?AV?$back_insert_iterator@V?$_Fmt_buffer@D@std@@@2@V32@QBXABU?$_Basic_format_specs@D@2@V_Lazy_locale@2@@Z@QAE@AAY01DAB_NABH2AAY07DABQAD@Z 10021c80 f i Hooks.obj
 0001:00020cd0       ??0<lambda_1>@?1???$_Fmt_write@DV?$back_insert_iterator@V?$_Fmt_buffer@D@std@@@std@@@__p2286@std@@YA?AV?$back_insert_iterator@V?$_Fmt_buffer@D@std@@@2@V32@V?$basic_string_view@DU?$char_traits@D@std@@@2@ABU?$_Basic_format_specs@D@2@V_Lazy_locale@2@@Z@QAE@ABV42@ABQBD@Z 10021cd0 f i Hooks.obj
 0001:00020d00       ??0<lambda_1>@?1???$_Fmt_write@DV?$back_insert_iterator@V?$_Fmt_buffer@D@std@@@std@@M@__p2286@std@@YA?AV?$back_insert_iterator@V?$_Fmt_buffer@D@std@@@2@V32@MABU?$_Basic_format_specs@D@2@V_Lazy_locale@2@@Z@QAE@AAW4_Fmt_sign@2@AB_N4AAH1AAV52@AAPAD7AAV?$basic_string@DU?$char_traits@D@std@@V?$allocator@D@2@@2@57AAUto_chars_result@2@AA_N75@Z 10021d00 f i Hooks.obj
 0001:00020d00       ??0<lambda_1>@?1???$_Fmt_write@DV?$back_insert_iterator@V?$_Fmt_buffer@D@std@@@std@@N@__p2286@std@@YA?AV?$back_insert_iterator@V?$_Fmt_buffer@D@std@@@2@V32@NABU?$_Basic_format_specs@D@2@V_Lazy_locale@2@@Z@QAE@AAW4_Fmt_sign@2@AB_N4AAH1AAV52@AAPAD7AAV?$basic_string@DU?$char_traits@D@std@@V?$allocator@D@2@@2@57AAUto_chars_result@2@AA_N75@Z 10021d00 f i Hooks.obj
 0001:00020d00       ??0<lambda_1>@?1???$_Fmt_write@DV?$back_insert_iterator@V?$_Fmt_buffer@D@std@@@std@@O@__p2286@std@@YA?AV?$back_insert_iterator@V?$_Fmt_buffer@D@std@@@2@V32@OABU?$_Basic_format_specs@D@2@V_Lazy_locale@2@@Z@QAE@AAW4_Fmt_sign@2@AB_N4AAH1AAV52@AAPAD7AAV?$basic_string@DU?$char_traits@D@std@@V?$allocator@D@2@@2@57AAUto_chars_result@2@AA_N75@Z 10021d00 f i Hooks.obj
 0001:00020da0       ??0<lambda_1>@?1???$_Write_escaped@DV?$back_insert_iterator@V?$_Fmt_buffer@D@std@@@std@@@__p2286@std@@YA?AV?$back_insert_iterator@V?$_Fmt_buffer@D@std@@@2@V32@V?$basic_string_view@DU?$char_traits@D@std@@@2@U?$_Basic_format_specs@D@2@D@Z@QAE@AAV?$basic_string@DU?$char_traits@D@std@@V?$allocator@D@2@@2@ABQBD@Z 10021da0 f i Hooks.obj
 0001:00020dd0       ??0<lambda_1>@?1???$_Write_integral@DV?$back_insert_iterator@V?$_Fmt_buffer@D@std@@@std@@E@__p2286@std@@YA?AV?$back_insert_iterator@V?$_Fmt_buffer@D@std@@@2@V32@EU?$_Basic_format_specs@D@2@V_Lazy_locale@2@@Z@QAE@PADAAU42@ABEAAV?$basic_string_view@DU?$char_traits@D@std@@@2@AB_NAAH8AAPADAAV?$basic_string@DU?$char_traits@D@std@@V?$allocator@D@2@@2@AAV52@@Z 10021dd0 f i Hooks.obj
 0001:00020dd0       ??0<lambda_1>@?1???$_Write_integral@DV?$back_insert_iterator@V?$_Fmt_buffer@D@std@@@std@@H@__p2286@std@@YA?AV?$back_insert_iterator@V?$_Fmt_buffer@D@std@@@2@V32@HU?$_Basic_format_specs@D@2@V_Lazy_locale@2@@Z@QAE@PADAAU42@ABHAAV?$basic_string_view@DU?$char_traits@D@std@@@2@AB_NAAH8AAPADAAV?$basic_string@DU?$char_traits@D@std@@V?$allocator@D@2@@2@AAV52@@Z 10021dd0 f i Hooks.obj
 0001:00020dd0       ??0<lambda_1>@?1???$_Write_integral@DV?$back_insert_iterator@V?$_Fmt_buffer@D@std@@@std@@I@__p2286@std@@YA?AV?$back_insert_iterator@V?$_Fmt_buffer@D@std@@@2@V32@IU?$_Basic_format_specs@D@2@V_Lazy_locale@2@@Z@QAE@PADAAU42@ABIAAV?$basic_string_view@DU?$char_traits@D@std@@@2@AB_NAAH8AAPADAAV?$basic_string@DU?$char_traits@D@std@@V?$allocator@D@2@@2@AAV52@@Z 10021dd0 f i Hooks.obj
 0001:00020dd0       ??0<lambda_1>@?1???$_Write_integral@DV?$back_insert_iterator@V?$_Fmt_buffer@D@std@@@std@@_J@__p2286@std@@YA?AV?$back_insert_iterator@V?$_Fmt_buffer@D@std@@@2@V32@_JU?$_Basic_format_specs@D@2@V_Lazy_locale@2@@Z@QAE@PADAAU42@AB_JAAV?$basic_string_view@DU?$char_traits@D@std@@@2@AB_NAAH9AAPADAAV?$basic_string@DU?$char_traits@D@std@@V?$allocator@D@2@@2@AAV52@@Z 10021dd0 f i Hooks.obj
 0001:00020dd0       ??0<lambda_1>@?1???$_Write_integral@DV?$back_insert_iterator@V?$_Fmt_buffer@D@std@@@std@@_K@__p2286@std@@YA?AV?$back_insert_iterator@V?$_Fmt_buffer@D@std@@@2@V32@_KU?$_Basic_format_specs@D@2@V_Lazy_locale@2@@Z@QAE@PADAAU42@AB_KAAV?$basic_string_view@DU?$char_traits@D@std@@@2@AB_NAAH9AAPADAAV?$basic_string@DU?$char_traits@D@std@@V?$allocator@D@2@@2@AAV52@@Z 10021dd0 f i Hooks.obj
 0001:00020e40       ??0?$_Array_const_iterator@M$0BI@@std@@QAE@PBMI@Z 10021e40 f i Hooks.obj
 0001:00020e60       ??0?$_Array_const_iterator@VAnimationLayer@@$0N@@std@@QAE@PBVAnimationLayer@@I@Z 10021e60 f i Hooks.obj
 0001:00020e80       ??0?$_Array_iterator@M$0BI@@std@@QAE@PAMI@Z 10021e80 f i Hooks.obj
 0001:00020eb0       ??0?$_Array_iterator@VAnimationLayer@@$0N@@std@@QAE@PAVAnimationLayer@@I@Z 10021eb0 f i Hooks.obj
 0001:00020ee0       ??0?$_Basic_format_specs@D@std@@QAE@XZ 10021ee0 f i Hooks.obj
 0001:00020f50       ??0?$_Fmt_buffer@D@std@@IAE@PADII@Z 10021f50 f i Hooks.obj
 0001:00020f90       ??0?$_Fmt_codec@D$0A@@std@@QAE@XZ 10021f90 f i Hooks.obj
 0001:00020fb0       ??0?$_Fmt_codec_base@$0A@@std@@IAE@XZ 10021fb0 f i Hooks.obj
 0001:00020fe0       ??0?$_Fmt_iterator_buffer@V?$back_insert_iterator@V?$basic_string@DU?$char_traits@D@std@@V?$allocator@D@2@@std@@@std@@DU_Fmt_buffer_traits@2@@std@@QAE@V?$back_insert_iterator@V?$basic_string@DU?$char_traits@D@std@@V?$allocator@D@2@@std@@@1@H@Z 10021fe0 f i Hooks.obj
 0001:00021030       ??0?$_Format_arg_store@V?$basic_format_context@V?$back_insert_iterator@V?$_Fmt_buffer@D@std@@@std@@D@std@@$$CBV?$basic_string_view@DU?$char_traits@D@std@@@2@PBD@std@@QAE@ABV?$basic_string_view@DU?$char_traits@D@std@@@1@AAPBD@Z 10022030 f i Hooks.obj
 0001:000210f0       ??0?$_Format_handler@D@__p2286@std@@QAE@V?$back_insert_iterator@V?$_Fmt_buffer@D@std@@@2@V?$basic_string_view@DU?$char_traits@D@std@@@2@V?$basic_format_args@V?$basic_format_context@V?$back_insert_iterator@V?$_Fmt_buffer@D@std@@@std@@D@std@@@2@ABV_Lazy_locale@2@@Z 100220f0 f i Hooks.obj
 0001:00021140       ??0?$_Specs_checker@V?$_Specs_handler@V?$basic_format_parse_context@D@std@@V?$basic_format_context@V?$back_insert_iterator@V?$_Fmt_buffer@D@std@@@std@@D@2@@std@@@std@@QAE@ABV?$_Specs_handler@V?$basic_format_parse_context@D@std@@V?$basic_format_context@V?$back_insert_iterator@V?$_Fmt_buffer@D@std@@@std@@D@2@@1@W4_Basic_format_arg_type@1@@Z 10022140 f i Hooks.obj
 0001:00021180       ??0?$_Specs_handler@V?$basic_format_parse_context@D@std@@V?$basic_format_context@V?$back_insert_iterator@V?$_Fmt_buffer@D@std@@@std@@D@2@@std@@QAE@AAU?$_Basic_format_specs@D@1@AAV?$basic_format_parse_context@D@1@AAV?$basic_format_context@V?$back_insert_iterator@V?$_Fmt_buffer@D@std@@@std@@D@1@@Z 10022180 f i Hooks.obj
 0001:000211b0       ??0?$back_insert_iterator@V?$_Fmt_buffer@D@std@@@std@@QAE@AAV?$_Fmt_buffer@D@1@@Z 100221b0 f i Hooks.obj
 0001:000211b0       ??0?$back_insert_iterator@V?$basic_string@DU?$char_traits@D@std@@V?$allocator@D@2@@std@@@std@@QAE@AAV?$basic_string@DU?$char_traits@D@std@@V?$allocator@D@2@@1@@Z 100221b0 f i Hooks.obj
 0001:000211e0       ??0?$basic_format_arg@V?$basic_format_context@V?$back_insert_iterator@V?$_Fmt_buffer@D@std@@@std@@D@std@@@std@@AAE@D@Z 100221e0 f i Hooks.obj
 0001:00021200       ??0?$basic_format_arg@V?$basic_format_context@V?$back_insert_iterator@V?$_Fmt_buffer@D@std@@@std@@D@std@@@std@@AAE@H@Z 10022200 f i Hooks.obj
 0001:00021220       ??0?$basic_format_arg@V?$basic_format_context@V?$back_insert_iterator@V?$_Fmt_buffer@D@std@@@std@@D@std@@@std@@AAE@I@Z 10022220 f i Hooks.obj
 0001:00021240       ??0?$basic_format_arg@V?$basic_format_context@V?$back_insert_iterator@V?$_Fmt_buffer@D@std@@@std@@D@std@@@std@@AAE@M@Z 10022240 f i Hooks.obj
 0001:00021270       ??0?$basic_format_arg@V?$basic_format_context@V?$back_insert_iterator@V?$_Fmt_buffer@D@std@@@std@@D@std@@@std@@AAE@N@Z 10022270 f i Hooks.obj
 0001:000212a0       ??0?$basic_format_arg@V?$basic_format_context@V?$back_insert_iterator@V?$_Fmt_buffer@D@std@@@std@@D@std@@@std@@AAE@O@Z 100222a0 f i Hooks.obj
 0001:000212d0       ??0?$basic_format_arg@V?$basic_format_context@V?$back_insert_iterator@V?$_Fmt_buffer@D@std@@@std@@D@std@@@std@@AAE@PBD@Z 100222d0 f i Hooks.obj
 0001:000212f0       ??0?$basic_format_arg@V?$basic_format_context@V?$back_insert_iterator@V?$_Fmt_buffer@D@std@@@std@@D@std@@@std@@AAE@PBX@Z 100222f0 f i Hooks.obj
 0001:00021310       ??0?$basic_format_arg@V?$basic_format_context@V?$back_insert_iterator@V?$_Fmt_buffer@D@std@@@std@@D@std@@@std@@AAE@V?$basic_string_view@DU?$char_traits@D@std@@@1@@Z 10022310 f i Hooks.obj
 0001:00021340       ??0?$basic_format_arg@V?$basic_format_context@V?$back_insert_iterator@V?$_Fmt_buffer@D@std@@@std@@D@std@@@std@@AAE@Vhandle@01@@Z 10022340 f i Hooks.obj
 0001:00021370       ??0?$basic_format_arg@V?$basic_format_context@V?$back_insert_iterator@V?$_Fmt_buffer@D@std@@@std@@D@std@@@std@@AAE@_J@Z 10022370 f i Hooks.obj
 0001:000213a0       ??0?$basic_format_arg@V?$basic_format_context@V?$back_insert_iterator@V?$_Fmt_buffer@D@std@@@std@@D@std@@@std@@AAE@_K@Z 100223a0 f i Hooks.obj
 0001:000213d0       ??0?$basic_format_arg@V?$basic_format_context@V?$back_insert_iterator@V?$_Fmt_buffer@D@std@@@std@@D@std@@@std@@AAE@_N@Z 100223d0 f i Hooks.obj
 0001:000213f0       ??0?$basic_format_arg@V?$basic_format_context@V?$back_insert_iterator@V?$_Fmt_buffer@D@std@@@std@@D@std@@@std@@QAE@XZ 100223f0 f i Hooks.obj
 0001:00021410       ??0?$basic_format_context@V?$back_insert_iterator@V?$_Fmt_buffer@D@std@@@std@@D@std@@AAE@$$QAV?$back_insert_iterator@V?$_Fmt_buffer@D@std@@@1@ABV?$basic_format_args@V?$basic_format_context@V?$back_insert_iterator@V?$_Fmt_buffer@D@std@@@std@@D@std@@@1@ABV_Lazy_locale@1@@Z 10022410 f i Hooks.obj
 0001:00021450       ??0?$basic_format_parse_context@D@std@@QAE@V?$basic_string_view@DU?$char_traits@D@std@@@1@I@Z 10022450 f i Hooks.obj
 0001:00021490       ??0?$basic_string@DU?$char_traits@D@std@@V?$allocator@D@2@@std@@QAE@XZ 10022490 f i Hooks.obj
 0001:000214f0       ??0?$basic_string_view@DU?$char_traits@D@std@@@std@@QAE@QBD@Z 100224f0 f i Hooks.obj
 0001:00021520       ??0?$numpunct@D@std@@QAE@ABV_Locinfo@1@I_N@Z 10022520 f i Hooks.obj
 0001:00021590       ??0?$time_point@Usteady_clock@chrono@std@@V?$duration@_JU?$ratio@$00$0DLJKMKAA@@std@@@23@@chrono@std@@QAE@ABV?$duration@_JU?$ratio@$00$0DLJKMKAA@@std@@@12@@Z 10022590 f i Hooks.obj
 0001:000215b0       ??0Color@@QAE@HHHH@Z       100225b0 f i Hooks.obj
 0001:000215f0       ??0ProtectGuard@@QAE@PAXII@Z 100225f0 f i Hooks.obj
 0001:00021650       ??0VMTHook@@QAE@PAX@Z      10022650 f i Hooks.obj
 0001:00021770       ??0_Format_arg_index@std@@QAE@I@Z 10022770 f i Hooks.obj
 0001:000217c0       ??0_Format_arg_index@std@@QAE@XZ 100227c0 f i Hooks.obj
 0001:000217f0       ??0_Measure_string_prefix_iterator_legacy@__p2286@std@@QAE@PBD0@Z 100227f0 f i Hooks.obj
 0001:00021840       ??0bad_cast@std@@QAE@ABV01@@Z 10022840 f i Hooks.obj
 0001:00021870       ??0bad_cast@std@@QAE@XZ    10022870 f i Hooks.obj
 0001:000218a0       ??0exception@std@@QAE@QBD@Z 100228a0 f i Hooks.obj
 0001:000218f0       ??0format_error@std@@QAE@ABV01@@Z 100228f0 f i Hooks.obj
 0001:00021920       ??0format_error@std@@QAE@PBD@Z 10022920 f i Hooks.obj
 0001:00021950       ??0locale@std@@QAE@ABV01@@Z 10022950 f i Hooks.obj
 0001:00021980       ??0locale@std@@QAE@XZ      10022980 f i Hooks.obj
 0001:000219d0       ??0runtime_error@std@@QAE@ABV01@@Z 100229d0 f i Hooks.obj
 0001:00021a00       ??0runtime_error@std@@QAE@PBD@Z 10022a00 f i Hooks.obj
 0001:00021a30       ??1?$_Fmt_iterator_buffer@V?$back_insert_iterator@V?$basic_string@DU?$char_traits@D@std@@V?$allocator@D@2@@std@@@std@@DU_Fmt_buffer_traits@2@@std@@QAE@XZ 10022a30 f i Hooks.obj
 0001:00021a90       ??1?$_Hash@V?$_Umap_traits@V?$basic_string@DU?$char_traits@D@std@@V?$allocator@D@2@@std@@V?$shared_ptr@UNode@NetvarTree@@@2@V?$_Uhash_compare@V?$basic_string@DU?$char_traits@D@std@@V?$allocator@D@2@@std@@U?$hash@V?$basic_string@DU?$char_traits@D@std@@V?$allocator@D@2@@std@@@2@U?$equal_to@V?$basic_string@DU?$char_traits@D@std@@V?$allocator@D@2@@std@@@2@@2@V?$allocator@U?$pair@$$CBV?$basic_string@DU?$char_traits@D@std@@V?$allocator@D@2@@std@@V?$shared_ptr@UNode@NetvarTree@@@2@@std@@@2@$0A@@std@@@std@@QAE@XZ 10022a90 f i Hooks.obj
 0001:00021ac0       ??1?$_Tidy_guard@V?$numpunct@D@std@@@std@@QAE@XZ 10022ac0 f i Hooks.obj
 0001:00021ae0       ??1?$list@U?$pair@$$CBV?$basic_string@DU?$char_traits@D@std@@V?$allocator@D@2@@std@@V?$shared_ptr@UNode@NetvarTree@@@2@@std@@V?$allocator@U?$pair@$$CBV?$basic_string@DU?$char_traits@D@std@@V?$allocator@D@2@@std@@V?$shared_ptr@UNode@NetvarTree@@@2@@std@@@2@@std@@QAE@XZ 10022ae0 f i Hooks.obj
 0001:00021b00       ??1?$numpunct@D@std@@MAE@XZ 10022b00 f i Hooks.obj
 0001:00021b30       ??1?$unique_ptr@$$BY0A@IU?$default_delete@$$BY0A@I@std@@@std@@QAE@XZ 10022b30 f i Hooks.obj
 0001:00021b70       ??1?$unique_ptr@VNetvarTree@@U?$default_delete@VNetvarTree@@@std@@@std@@QAE@XZ 10022b70 f i Hooks.obj
 0001:00021bb0       ??1?$unique_ptr@VShadowVTManager@@U?$default_delete@VShadowVTManager@@@std@@@std@@QAE@XZ 10022bb0 f i Hooks.obj
 0001:00021bf0       ??1?$unique_ptr@VVMTHook@@U?$default_delete@VVMTHook@@@std@@@std@@QAE@XZ 10022bf0 f i Hooks.obj
 0001:00021c30       ??1?$unique_ptr@V_Facet_base@std@@U?$default_delete@V_Facet_base@std@@@2@@std@@QAE@XZ 10022c30 f i Hooks.obj
 0001:00021c70       ??1?$unordered_map@V?$basic_string@DU?$char_traits@D@std@@V?$allocator@D@2@@std@@V?$shared_ptr@UNode@NetvarTree@@@2@U?$hash@V?$basic_string@DU?$char_traits@D@std@@V?$allocator@D@2@@std@@@2@U?$equal_to@V?$basic_string@DU?$char_traits@D@std@@V?$allocator@D@2@@std@@@2@V?$allocator@U?$pair@$$CBV?$basic_string@DU?$char_traits@D@std@@V?$allocator@D@2@@std@@V?$shared_ptr@UNode@NetvarTree@@@2@@std@@@2@@std@@QAE@XZ 10022c70 f i Hooks.obj
 0001:00021c90       ??1Event@@UAE@XZ           10022c90 f i Hooks.obj
 0001:00021cb0       ??1Hooks@@QAE@XZ           10022cb0 f i Hooks.obj
 0001:00021d40       ??1IGameEventListener@@UAE@XZ 10022d40 f i Hooks.obj
 0001:00021d60       ??1NetvarTree@@QAE@XZ      10022d60 f i Hooks.obj
 0001:00021d60       ??1Node@NetvarTree@@QAE@XZ 10022d60 f i NetvarManager.obj
 0001:00021d80       ??1ProtectGuard@@QAE@XZ    10022d80 f i Hooks.obj
 0001:00021db0       ??1ShadowVTManager@@QAE@XZ 10022db0 f i Hooks.obj
 0001:00021e10       ??1VMTHook@@QAE@XZ         10022e10 f i Hooks.obj
 0001:00021e40       ??1_Init_once_completer@std@@QAE@XZ 10022e40 f i Hooks.obj
 0001:00021e70       ??1locale@std@@QAE@XZ      10022e70 f i Hooks.obj
 0001:00021ec0       ??4?$back_insert_iterator@V?$_Fmt_buffer@D@std@@@std@@QAEAAV01@$$QAD@Z 10022ec0 f i Hooks.obj
 0001:00021ec0       ??4?$back_insert_iterator@V?$_Fmt_buffer@D@std@@@std@@QAEAAV01@ABD@Z 10022ec0 f i Hooks.obj
 0001:00021ef0       ??4?$basic_string@DU?$char_traits@D@std@@V?$allocator@D@2@@std@@QAEAAV01@$$QAV01@@Z 10022ef0 f i Hooks.obj
 0001:00021f60       ??4CUserCmd@@QAEAAV0@ABV0@@Z 10022f60 f i Hooks.obj
 0001:00022060       ??8_Measure_string_prefix_iterator_legacy@__p2286@std@@QBE_NUdefault_sentinel_t@2@@Z 10023060 f i Hooks.obj
 0001:000220a0       ??A?$unique_ptr@$$BY0A@IU?$default_delete@$$BY0A@I@std@@@std@@QBEAAII@Z 100230a0 f i Hooks.obj
 0001:000220c0       ??AVector@@QAEAAMH@Z       100230c0 f i Hooks.obj
 0001:000220e0       ??B?$basic_format_arg@V?$basic_format_context@V?$back_insert_iterator@V?$_Fmt_buffer@D@std@@@std@@D@std@@@std@@QBE_NXZ 100230e0 f i Hooks.obj
 0001:00022110       ??B?$basic_string@DU?$char_traits@D@std@@V?$allocator@D@2@@std@@QBE?AV?$basic_string_view@DU?$char_traits@D@std@@@1@XZ 10023110 f i Hooks.obj
 0001:00022150       ??D_Measure_string_prefix_iterator_legacy@__p2286@std@@QBEHXZ 10023150 f i Hooks.obj
 0001:00022170       ??E?$_String_view_iterator@U?$char_traits@D@std@@@std@@QAEAAV01@XZ 10023170 f i Hooks.obj
 0001:00022190       ??E?$back_insert_iterator@V?$_Fmt_buffer@D@std@@@std@@QAE?AV01@H@Z 10023190 f i Hooks.obj
 0001:000221b0       ??E_Measure_string_prefix_iterator_legacy@__p2286@std@@QAEAAV012@XZ 100231b0 f i Hooks.obj
 0001:00022210       ??F?$_String_view_iterator@U?$char_traits@D@std@@@std@@QAEAAV01@XZ 10023210 f i Hooks.obj
 0001:00022230       ??H?$_String_iterator@V?$_String_val@U?$_Simple_types@D@std@@@std@@@std@@QBE?AV01@H@Z 10023230 f i Hooks.obj
 0001:00022260       ??H?$_String_view_iterator@U?$char_traits@D@std@@@std@@QBE?AV01@H@Z 10023260 f i Hooks.obj
 0001:00022290       ??Mstd@@YA_NUstrong_ordering@0@U_Literal_zero@0@@Z 10023290 f i Hooks.obj
 0001:000222c0       ??Nstd@@YA_NUstrong_ordering@0@U_Literal_zero@0@@Z 100232c0 f i Hooks.obj
 0001:000222f0       ??Ostd@@YA_NUstrong_ordering@0@U_Literal_zero@0@@Z 100232f0 f i Hooks.obj
 0001:00022320       ??R<lambda_1>@?1???$_Floating_to_chars_general_precision@M@std@@YA?AUto_chars_result@1@PADQADMH@Z@QBE@XZ 10023320 f i Hooks.obj
 0001:00022370       ??R<lambda_1>@?1???$_Floating_to_chars_general_precision@N@std@@YA?AUto_chars_result@1@PADQADNH@Z@QBE@XZ 10023370 f i Hooks.obj
 0001:00022420       ??R<lambda_1>@?1???$_Fmt_write@DV?$back_insert_iterator@V?$_Fmt_buffer@D@std@@@std@@@__p2286@std@@YA?AV?$back_insert_iterator@V?$_Fmt_buffer@D@std@@@2@V32@QBXABU?$_Basic_format_specs@D@2@V_Lazy_locale@2@@Z@QBE@0@Z 10023420 f i Hooks.obj
 0001:000224d0       ??R<lambda_1>@?1???$_Fmt_write@DV?$back_insert_iterator@V?$_Fmt_buffer@D@std@@@std@@@__p2286@std@@YA?AV?$back_insert_iterator@V?$_Fmt_buffer@D@std@@@2@V32@V?$basic_string_view@DU?$char_traits@D@std@@@2@ABU?$_Basic_format_specs@D@2@V_Lazy_locale@2@@Z@QBE@0@Z 100234d0 f i Hooks.obj
 0001:00022520       ??R<lambda_1>@?1???$_Fmt_write@DV?$back_insert_iterator@V?$_Fmt_buffer@D@std@@@std@@M@__p2286@std@@YA?AV?$back_insert_iterator@V?$_Fmt_buffer@D@std@@@2@V32@MABU?$_Basic_format_specs@D@2@V_Lazy_locale@2@@Z@QBE@0@Z 10023520 f i Hooks.obj
 0001:00022520       ??R<lambda_1>@?1???$_Fmt_write@DV?$back_insert_iterator@V?$_Fmt_buffer@D@std@@@std@@N@__p2286@std@@YA?AV?$back_insert_iterator@V?$_Fmt_buffer@D@std@@@2@V32@NABU?$_Basic_format_specs@D@2@V_Lazy_locale@2@@Z@QBE@0@Z 10023520 f i Hooks.obj
 0001:00022520       ??R<lambda_1>@?1???$_Fmt_write@DV?$back_insert_iterator@V?$_Fmt_buffer@D@std@@@std@@O@__p2286@std@@YA?AV?$back_insert_iterator@V?$_Fmt_buffer@D@std@@@2@V32@OABU?$_Basic_format_specs@D@2@V_Lazy_locale@2@@Z@QBE@0@Z 10023520 f i Hooks.obj
 0001:00022870       ??R<lambda_1>@?1???$_Get_fmt_codec@D@std@@YAABV?$_Fmt_codec@D$0A@@1@XZ@QBE@XZ 10023870 f i Hooks.obj
 0001:00022890       ??R<lambda_1>@?1???$_Write_escaped@DV?$back_insert_iterator@V?$_Fmt_buffer@D@std@@@std@@@__p2286@std@@YA?AV?$back_insert_iterator@V?$_Fmt_buffer@D@std@@@2@V32@V?$basic_string_view@DU?$char_traits@D@std@@@2@U?$_Basic_format_specs@D@2@D@Z@QBE@0@Z 10023890 f i Hooks.obj
 0001:000228e0       ??R<lambda_1>@?1???$_Write_integral@DV?$back_insert_iterator@V?$_Fmt_buffer@D@std@@@std@@E@__p2286@std@@YA?AV?$back_insert_iterator@V?$_Fmt_buffer@D@std@@@2@V32@EU?$_Basic_format_specs@D@2@V_Lazy_locale@2@@Z@QBE@0@Z 100238e0 f i Hooks.obj
 0001:00022b10       ??R<lambda_1>@?1???$_Write_integral@DV?$back_insert_iterator@V?$_Fmt_buffer@D@std@@@std@@H@__p2286@std@@YA?AV?$back_insert_iterator@V?$_Fmt_buffer@D@std@@@2@V32@HU?$_Basic_format_specs@D@2@V_Lazy_locale@2@@Z@QBE@0@Z 10023b10 f i Hooks.obj
 0001:00022d40       ??R<lambda_1>@?1???$_Write_integral@DV?$back_insert_iterator@V?$_Fmt_buffer@D@std@@@std@@I@__p2286@std@@YA?AV?$back_insert_iterator@V?$_Fmt_buffer@D@std@@@2@V32@IU?$_Basic_format_specs@D@2@V_Lazy_locale@2@@Z@QBE@0@Z 10023d40 f i Hooks.obj
 0001:00022f70       ??R<lambda_1>@?1???$_Write_integral@DV?$back_insert_iterator@V?$_Fmt_buffer@D@std@@@std@@_J@__p2286@std@@YA?AV?$back_insert_iterator@V?$_Fmt_buffer@D@std@@@2@V32@_JU?$_Basic_format_specs@D@2@V_Lazy_locale@2@@Z@QBE@0@Z 10023f70 f i Hooks.obj
 0001:000231b0       ??R<lambda_1>@?1???$_Write_integral@DV?$back_insert_iterator@V?$_Fmt_buffer@D@std@@@std@@_K@__p2286@std@@YA?AV?$back_insert_iterator@V?$_Fmt_buffer@D@std@@@2@V32@_KU?$_Basic_format_specs@D@2@V_Lazy_locale@2@@Z@QBE@0@Z 100241b0 f i Hooks.obj
 0001:000233f0       ??R<lambda_1>@?1???R0?1???$_Floating_to_chars_general_precision@M@std@@YA?AUto_chars_result@1@PADQADMH@Z@QBE@XZ@QBE@I@Z 100243f0 f i Hooks.obj
 0001:00023420       ??R<lambda_1>@?1???R0?1???$_Floating_to_chars_general_precision@N@std@@YA?AUto_chars_result@1@PADQADNH@Z@QBE@XZ@QBE@_K@Z 10024420 f i Hooks.obj
 0001:00023460       ??R<lambda_1>@?1??insert@?$basic_string@DU?$char_traits@D@std@@V?$allocator@D@2@@std@@QAEAAV23@IQBDI@Z@QBE@QAD0II0I@Z 10024460 f i Hooks.obj
 0001:000234c0       ??R<lambda_1>@?1??reserve@?$basic_string@DU?$char_traits@D@std@@V?$allocator@D@2@@std@@QAEXI@Z@QBE@QADQBDI@Z 100244c0 f i Hooks.obj
 0001:000234f0       ??R?$_Arg_formatter@V?$back_insert_iterator@V?$_Fmt_buffer@D@std@@@std@@D@__p2286@std@@QAE?AV?$back_insert_iterator@V?$_Fmt_buffer@D@std@@@2@Vhandle@?$basic_format_arg@V?$basic_format_context@V?$back_insert_iterator@V?$_Fmt_buffer@D@std@@@std@@D@std@@@2@@Z 100244f0 f i Hooks.obj
 0001:00023530       ??R?$_Default_arg_formatter@V?$back_insert_iterator@V?$_Fmt_buffer@D@std@@@std@@D@__p2286@std@@QHAE?AV?$back_insert_iterator@V?$_Fmt_buffer@D@std@@@2@Vhandle@?$basic_format_arg@V?$basic_format_context@V?$back_insert_iterator@V?$_Fmt_buffer@D@std@@@std@@D@std@@@2@@Z 10024530 f i Hooks.obj
 0001:00023590       ??R?$default_delete@VNetvarTree@@@std@@QBEXPAVNetvarTree@@@Z 10024590 f i Hooks.obj
 0001:000235d0       ??R?$default_delete@VShadowVTManager@@@std@@QBEXPAVShadowVTManager@@@Z 100245d0 f i Hooks.obj
 0001:00023610       ??R?$default_delete@VVMTHook@@@std@@QBEXPAVVMTHook@@@Z 10024610 f i Hooks.obj
 0001:00023650       ??R?$default_delete@V_Facet_base@std@@@std@@QBEXPAV_Facet_base@1@@Z 10024650 f i Hooks.obj
 0001:00023690       ??Y?$_String_const_iterator@V?$_String_val@U?$_Simple_types@D@std@@@std@@@std@@QAEAAV01@H@Z 10024690 f i Hooks.obj
 0001:00023690       ??Y?$_String_view_iterator@U?$char_traits@D@std@@@std@@QAEAAV01@H@Z 10024690 f i Hooks.obj
 0001:000236b0       ??Y?$_String_iterator@V?$_String_val@U?$_Simple_types@D@std@@@std@@@std@@QAEAAV01@H@Z 100246b0 f i Hooks.obj
 0001:000236d0       ??Y?$duration@_JU?$ratio@$00$0DLJKMKAA@@std@@@chrono@std@@QAEAAV012@ABV012@@Z 100246d0 f i Hooks.obj
 0001:00023700       ??Y?$time_point@Usteady_clock@chrono@std@@V?$duration@_JU?$ratio@$00$0DLJKMKAA@@std@@@23@@chrono@std@@QAEAAV012@ABV?$duration@_JU?$ratio@$00$0DLJKMKAA@@std@@@12@@Z 10024700 f i Hooks.obj
 0001:00023720       ??_E?$numpunct@D@std@@MAEPAXI@Z 10024720 f i Hooks.obj
 0001:00023720       ??_G?$numpunct@D@std@@MAEPAXI@Z 10024720 f i Hooks.obj
 0001:00023750       ??_EIGameEventListener@@UAEPAXI@Z 10024750 f i Hooks.obj
 0001:00023750       ??_GIGameEventListener@@UAEPAXI@Z 10024750 f i Hooks.obj
 0001:00023780       ??_GNetvarTree@@QAEPAXI@Z  10024780 f i Hooks.obj
 0001:000237b0       ??_GShadowVTManager@@QAEPAXI@Z 100247b0 f i Hooks.obj
 0001:000237e0       ??_GVMTHook@@QAEPAXI@Z     100247e0 f i Hooks.obj
 0001:00023810       ??__Kms@chrono_literals@literals@std@@YA?AV?$duration@_JU?$ratio@$00$0DOI@@std@@@chrono@3@_K@Z 10024810 f i Hooks.obj
 0001:00023830       ??__Ksv@string_view_literals@literals@std@@YA?AV?$basic_string_view@DU?$char_traits@D@std@@@3@PBDI@Z 10024830 f i Hooks.obj
 0001:00023850       ?Clamp@Vector@@QAE?AV1@XZ  10024850 f i Hooks.obj
 0001:00023920       ?CreateMove@Hooks@@SGXHM_NAA_N@Z 10024920 f   Hooks.obj
 0001:00023b50       ?CreateMoveProxy@Hooks@@SIXPAXHHM_N@Z 10024b50 f   Hooks.obj
 0001:00023b70       ?Crosshair@Misc@@QAEXXZ    10024b70 f i Hooks.obj
 0001:00023fa0       ?DoAutostrafe@Misc@@ABEXXZ 10024fa0 f i Hooks.obj
 0001:00024140       ?DoBhop@Misc@@ABEXXZ       10025140 f i Hooks.obj
 0001:00024210       ?DoFakeLag@Misc@@ABEXXZ    10025210 f i Hooks.obj
 0001:00024790       ?DrawLine@ISurface@@QAEXHHHH@Z 10025790 f i Hooks.obj
 0001:000247d0       ?DrawModelExecute@Hooks@@SIXPAX0PAVIMatRenderContext@@ABUDrawModelState_t@@ABUModelRenderInfo_t@@PAVmatrix3x4_t@@@Z 100257d0 f   Hooks.obj
 0001:00024950       ?DrawSetColor@ISurface@@QAEXHHHH@Z 10025950 f i Hooks.obj
 0001:00024990       ?Dump@netvar@@YAXV?$basic_string_view@DU?$char_traits@D@std@@@std@@PAVRecvTable@@I@Z 10025990 f i Hooks.obj
 0001:00024b30       ?FindMaterial@IMaterialSystem@@QAEPAVIMaterial@@PBD0_N0@Z 10025b30 f i Hooks.obj
 0001:00024b70       ?FontCreate@ISurface@@QAEKXZ 10025b70 f i Hooks.obj
 0001:00024ba0       ?ForcedMaterialOverride@CModelRender@@QAEXPAVIMaterial@@W4OverrideType_t@@@Z 10025ba0 f i Hooks.obj
 0001:00024be0       ?FrameStageNotify@Hooks@@SGXW4ClientFrameStage_t@@@Z 10025be0 f   Hooks.obj
 0001:00024fc0       ?GetChecksum@CUserCmd@@QBEIXZ 10025fc0 f i Hooks.obj
 0001:00025110       ?GetModelName@IVModelInfo@@QAEPBDPBUmodel_t@@@Z 10026110 f i Hooks.obj
 0001:00025140       ?GetName@IPanel@@QAEPBDI@Z 10026140 f i Hooks.obj
 0001:00025170       ?GetNumProps@RecvTable@@QAEHXZ 10026170 f i Hooks.obj
 0001:00025170       ?GetType@RecvProp@@QBE?AW4SendPropType@@XZ 10026170 f i NetvarManager.obj
 0001:00025170       ?end@?$initializer_list@V?$basic_string@DU?$char_traits@D@std@@V?$allocator@D@2@@std@@@std@@QBEPBV?$basic_string@DU?$char_traits@D@std@@V?$allocator@D@2@@2@XZ 10026170 f i Menu.obj
 0001:00025170       ?size@?$basic_string_view@DU?$char_traits@D@std@@@std@@QBEIXZ 10026170 f i Hooks.obj
 0001:00025190       ?GetPoseParams@C_BaseEntity@@QAEAAV?$array@M$0BI@@std@@XZ 10026190 f i Hooks.obj
 0001:000251c0       ?GetUserCmd@CInput@@QBEPAVCUserCmd@@H@Z 100261c0 f i Hooks.obj
 0001:000251f0       ?GetVerifiedCmd@CInput@@QBEPAVCVerifiedUserCmd@@H@Z 100261f0 f i Hooks.obj
 0001:00025220       ?GetViewPunchAngle@C_BaseEntity@@QAE?AVVector@@XZ 10026220 f i Hooks.obj
 0001:00025250       ?Hook@VMTHook@@QAEJIPAX@Z  10026250 f i Hooks.obj
 0001:00025290       ?Init@Event@@QAEXXZ        10026290 f i Hooks.obj
 0001:000252c0       ?Init@Hooks@@SAXXZ         100262c0 f   Hooks.obj
 0001:00025610       ?InvalidateBoneCache@C_BaseEntity@@QAEXXZ 10026610 f i Hooks.obj
 0001:00025650       ?IsScoped@C_BaseEntity@@QAE_NXZ 10026650 f i Hooks.obj
 0001:00025710       ?LastBoneSetupTime@C_BaseEntity@@QAEAAMXZ 10026710 f i Hooks.obj
 0001:00025810       ?Line@ISurface@@QAEXHHHHUColor@@@Z 10026810 f i Hooks.obj
 0001:00025850       ?LockCursor@Hooks@@SIXPAVISurface@@PAX@Z 10026850 f   Hooks.obj
 0001:00025920       ?MostRecentModelBoneCounter@C_BaseEntity@@QAEAAIXZ 10026920 f i Hooks.obj
 0001:00025a20       ?MovementFix@Misc@@QAEXAAVVector@@@Z 10026a20 f i Hooks.obj
 0001:00025d80       ?OnCreateMove@Misc@@QAEXXZ 10026d80 f i Hooks.obj
 0001:00025dc0       ?OverrideView@Hooks@@SIXPAX0PAVCViewSetup@@@Z 10026dc0 f   Hooks.obj
 0001:000260c0       ?PaintTraverse@Hooks@@SIXPAXHI_N1@Z 100270c0 f   Hooks.obj
 0001:00026300       ?Restore@Hooks@@SAXXZ      10027300 f   Hooks.obj
 0001:00026450       ?RestoreTable@ShadowVTManager@@QAEXXZ 10027450 f i Hooks.obj
 0001:00026500       ?RunTime@hash@@YA?BIV?$basic_string_view@DU?$char_traits@D@std@@@std@@@Z 10027500 f i Hooks.obj
 0001:00026570       ?SceneEnd@Hooks@@SIXPAX0@Z 10027570 f   Hooks.obj
 0001:00026880       ?SetFontGlyphSet@ISurface@@QAEXKPBDHHHHH@Z 10027880 f i Hooks.obj
 0001:000268d0       ?SetValue@ConVar@@QAEXH@Z  100278d0 f i Hooks.obj
 0001:00026900       ?Setup@netvar@@YAXXZ       10027900 f i Hooks.obj
 0001:00026960       ?ThirdPerson@Misc@@QAEXW4ClientFrameStage_t@@@Z 10027960 f i Hooks.obj
 0001:00026a40       ?UnLockCursor@ISurface@@QAEXXZ 10027a40 f i Hooks.obj
 0001:00026a70       ?Unhook@VMTHook@@QAEJI@Z   10027a70 f i Hooks.obj
 0001:00026ac0       ?Update@C_AnimState@@QAEXAAVVector@@@Z 10027ac0 f i Hooks.obj
 0001:00026b90       ?Warning@@YAXPBDZZ         10027b90 f   Hooks.obj
 0001:00026c70       ?WndProc@Hooks@@SGJPAUHWND__@@IIJ@Z 10027c70 f   Hooks.obj
 0001:00026ce0       ?_Buffer_to_uppercase@__p2286@std@@YAXPADPBD@Z 10027ce0 f i Hooks.obj
 0001:00026d20       ?_C_str@locale@std@@QBEPBDXZ 10027d20 f i Hooks.obj
 0001:00026d60       ?_Calculate_growth@?$basic_string@DU?$char_traits@D@std@@V?$allocator@D@2@@std@@ABEII@Z 10027d60 f i Hooks.obj
 0001:00026da0       ?_Check_offset@?$_String_val@U?$_Simple_types@D@std@@@std@@QBEXI@Z 10027da0 f i Hooks.obj
 0001:00026dc0       ?_Check_precision@?$_Specs_checker@V?$_Specs_handler@V?$basic_format_parse_context@D@std@@V?$basic_format_context@V?$back_insert_iterator@V?$_Fmt_buffer@D@std@@@std@@D@2@@std@@@std@@QBEXXZ 10027dc0 f i Hooks.obj
 0001:00026e00       ?_Clear@?$_Fmt_buffer@D@std@@QAEXXZ 10027e00 f i Hooks.obj
 0001:00026e20       ?_Construct_empty@?$basic_string@DU?$char_traits@D@std@@V?$allocator@D@2@@std@@AAEXXZ 10027e20 f i Hooks.obj
 0001:00026e80       ?_Convert_to_chars_result@std@@YA?AUto_chars_result@1@ABU?$pair@PADW4errc@std@@@1@@Z 10027e80 f i Hooks.obj
 0001:00026eb0       ?_Count_separators@__p2286@std@@YAHIV?$basic_string_view@DU?$char_traits@D@std@@@2@@Z 10027eb0 f i Hooks.obj
 0001:00026f60       ?_Decode@?$_Fmt_codec@D$0A@@std@@QBE?AU?$_Decode_result@D@2@QBD0AA_U@Z 10027f60 f i Hooks.obj
 0001:00027010       ?_Decode_utf@std@@YA?AU?$_Decode_result@D@1@PBD0AA_U@Z 10028010 f i Hooks.obj
 0001:00027310       ?_Double_byte_encoding_code_units_in_next_character@?$_Fmt_codec_base@$0A@@std@@IBEHQBD0@Z 10028310 f i Hooks.obj
 0001:00027370       ?_Estimate_required_capacity@?$basic_format_args@V?$basic_format_context@V?$back_insert_iterator@V?$_Fmt_buffer@D@std@@@std@@D@std@@@std@@QBEIXZ 10028370 f i Hooks.obj
 0001:00027420       ?_Find_encoded@?$_Fmt_codec@D$0A@@std@@QBEPBDPBDQBDD@Z 10028420 f i Hooks.obj
 0001:000274a0       ?_Flush@?$_Fmt_iterator_buffer@V?$back_insert_iterator@V?$basic_string@DU?$char_traits@D@std@@V?$allocator@D@2@@std@@@std@@DU_Fmt_buffer_traits@2@@std@@AAEXXZ 100284a0 f i Hooks.obj
 0001:00027510       ?_Get@_Lazy_locale@std@@QBE?AVlocale@2@XZ 10028510 f i Hooks.obj
 0001:00027560       ?_Get_arg@?$_Specs_handler@V?$basic_format_parse_context@D@std@@V?$basic_format_context@V?$back_insert_iterator@V?$_Fmt_buffer@D@std@@@std@@D@2@@std@@AAE?AV?$basic_format_arg@V?$basic_format_context@V?$back_insert_iterator@V?$_Fmt_buffer@D@std@@@std@@D@std@@@2@I@Z 10028560 f i Hooks.obj
 0001:000275a0       ?_Get_arg@?$_Specs_handler@V?$basic_format_parse_context@D@std@@V?$basic_format_context@V?$back_insert_iterator@V?$_Fmt_buffer@D@std@@@std@@D@2@@std@@AAE?AV?$basic_format_arg@V?$basic_format_context@V?$back_insert_iterator@V?$_Fmt_buffer@D@std@@@std@@D@std@@@2@U_Auto_id_tag@2@@Z 100285a0 f i Hooks.obj
 0001:000275e0       ?_Get_args@?$basic_format_context@V?$back_insert_iterator@V?$_Fmt_buffer@D@std@@@std@@D@std@@QBEABV?$basic_format_args@V?$basic_format_context@V?$back_insert_iterator@V?$_Fmt_buffer@D@std@@@std@@D@std@@@2@XZ 100285e0 f i Hooks.obj
 0001:00027600       ?_Get_lazy_locale@?$basic_format_context@V?$back_insert_iterator@V?$_Fmt_buffer@D@std@@@std@@D@std@@QBE?AV_Lazy_locale@2@XZ 10028600 f i Hooks.obj
 0001:00027620       ?_Get_property_for_codepoint@?$_Unicode_property_data@W4_Grapheme_Extend_property_values@std@@$0BGL@$00@std@@QBE?AW4_Grapheme_Extend_property_values@2@I@Z 10028620 f i Hooks.obj
 0001:000276d0       ?_Get_property_for_codepoint@?$_Unicode_property_data@W4__printable_property_values@std@@$0CMH@$00@std@@QBE?AW4__printable_property_values@2@I@Z 100286d0 f i Hooks.obj
 0001:00027780       ?_Getcat@?$numpunct@D@std@@SAIPAPBVfacet@locale@2@PBV42@@Z 10028780 f i Hooks.obj
 0001:00027870       ?_Getfacet@locale@std@@QBEPBVfacet@12@I@Z 10028870 f i Hooks.obj
 0001:000278f0       ?_Grow@?$_Fmt_iterator_buffer@V?$back_insert_iterator@V?$basic_string@DU?$char_traits@D@std@@V?$allocator@D@2@@std@@@std@@DU_Fmt_buffer_traits@2@@std@@EAEXI@Z 100288f0 f i Hooks.obj
 0001:00027920       ?_Init@?$numpunct@D@std@@IAEXABV_Locinfo@2@_N@Z 10028920 f i Hooks.obj
 0001:00027ac0       ?_Is_arithmetic_fmt_type@std@@YA_NW4_Basic_format_arg_type@1@@Z 10028ac0 f i Hooks.obj
 0001:00027af0       ?_Is_grapheme_extend@__p2286@std@@YA_N_U@Z 10028af0 f i Hooks.obj
 0001:00027b20       ?_Is_integral_fmt_type@std@@YA_NW4_Basic_format_arg_type@1@@Z 10028b20 f i Hooks.obj
 0001:00027b50       ?_Is_printable@__p2286@std@@YA_N_U@Z 10028b50 f i Hooks.obj
 0001:00027b80       ?_Limit@_Fmt_buffer_traits@std@@QAEII@Z 10028b80 f i Hooks.obj
 0001:00027b90       ?_Make_from@?$basic_format_context@V?$back_insert_iterator@V?$_Fmt_buffer@D@std@@@std@@D@std@@SA?AV12@V?$back_insert_iterator@V?$_Fmt_buffer@D@std@@@2@V?$basic_format_args@V?$basic_format_context@V?$back_insert_iterator@V?$_Fmt_buffer@D@std@@@std@@D@std@@@2@ABV_Lazy_locale@2@@Z 10028b90 f i Hooks.obj
 0001:00027bb0       ?_On_align@?$_Specs_setter@D@std@@QAEXW4_Fmt_align@2@@Z 10028bb0 f i Hooks.obj
 0001:00027bd0       ?_On_auto_id@?$_Id_adapter@D@std@@QAEXXZ 10028bd0 f i Hooks.obj
 0001:00027bf0       ?_On_auto_id@?$_Precision_adapter@DAAV?$_Specs_checker@V?$_Specs_handler@V?$basic_format_parse_context@D@std@@V?$basic_format_context@V?$back_insert_iterator@V?$_Fmt_buffer@D@std@@@std@@D@2@@std@@@std@@@std@@QAEXXZ 10028bf0 f i Hooks.obj
 0001:00027c20       ?_On_auto_id@?$_Width_adapter@DAAV?$_Specs_checker@V?$_Specs_handler@V?$basic_format_parse_context@D@std@@V?$basic_format_context@V?$back_insert_iterator@V?$_Fmt_buffer@D@std@@@std@@D@2@@std@@@std@@@std@@QAEXXZ 10028c20 f i Hooks.obj
 0001:00027c50       ?_On_fill@?$_Specs_setter@D@std@@QAEXV?$basic_string_view@DU?$char_traits@D@std@@@2@@Z 10028c50 f i Hooks.obj
 0001:00027cf0       ?_On_format_specs@?$_Format_handler@D@__p2286@std@@QAEPBDIPBD0@Z 10028cf0 f i Hooks.obj
 0001:00027ee0       ?_On_hash@?$_Specs_checker@V?$_Specs_handler@V?$basic_format_parse_context@D@std@@V?$basic_format_context@V?$back_insert_iterator@V?$_Fmt_buffer@D@std@@@std@@D@2@@std@@@std@@QAEXXZ 10028ee0 f i Hooks.obj
 0001:00027f10       ?_On_hash@?$_Specs_setter@D@std@@QAEXXZ 10028f10 f i Hooks.obj
 0001:00027f30       ?_On_localized@?$_Specs_checker@V?$_Specs_handler@V?$basic_format_parse_context@D@std@@V?$basic_format_context@V?$back_insert_iterator@V?$_Fmt_buffer@D@std@@@std@@D@2@@std@@@std@@QAEXXZ 10028f30 f i Hooks.obj
 0001:00027f50       ?_On_localized@?$_Specs_setter@D@std@@QAEXXZ 10028f50 f i Hooks.obj
 0001:00027f70       ?_On_manual_id@?$_Id_adapter@D@std@@QAEXI@Z 10028f70 f i Hooks.obj
 0001:00027fa0       ?_On_manual_id@?$_Precision_adapter@DAAV?$_Specs_checker@V?$_Specs_handler@V?$basic_format_parse_context@D@std@@V?$basic_format_context@V?$back_insert_iterator@V?$_Fmt_buffer@D@std@@@std@@D@2@@std@@@std@@@std@@QAEXI@Z 10028fa0 f i Hooks.obj
 0001:00027fd0       ?_On_manual_id@?$_Width_adapter@DAAV?$_Specs_checker@V?$_Specs_handler@V?$basic_format_parse_context@D@std@@V?$basic_format_context@V?$back_insert_iterator@V?$_Fmt_buffer@D@std@@@std@@D@2@@std@@@std@@@std@@QAEXI@Z 10028fd0 f i Hooks.obj
 0001:00028000       ?_On_precision@?$_Specs_checker@V?$_Specs_handler@V?$basic_format_parse_context@D@std@@V?$basic_format_context@V?$back_insert_iterator@V?$_Fmt_buffer@D@std@@@std@@D@2@@std@@@std@@QAEXH@Z 10029000 f i Hooks.obj
 0001:00028030       ?_On_precision@?$_Specs_setter@D@std@@QAEXH@Z 10029030 f i Hooks.obj
 0001:00028050       ?_On_replacement_field@?$_Format_handler@D@__p2286@std@@QAEXIPBD@Z 10029050 f i Hooks.obj
 0001:000281b0       ?_On_sign@?$_Specs_checker@V?$_Specs_handler@V?$basic_format_parse_context@D@std@@V?$basic_format_context@V?$back_insert_iterator@V?$_Fmt_buffer@D@std@@@std@@D@2@@std@@@std@@QAEXW4_Fmt_sign@2@@Z 100291b0 f i Hooks.obj
 0001:000281e0       ?_On_sign@?$_Specs_setter@D@std@@QAEXW4_Fmt_sign@2@@Z 100291e0 f i Hooks.obj
 0001:00028200       ?_On_text@?$_Format_handler@D@__p2286@std@@QAEXPBD0@Z 10029200 f i Hooks.obj
 0001:00028260       ?_On_type@?$_Specs_setter@D@std@@QAEXD@Z 10029260 f i Hooks.obj
 0001:00028280       ?_On_width@?$_Specs_setter@D@std@@QAEXH@Z 10029280 f i Hooks.obj
 0001:000282a0       ?_On_zero@?$_Specs_checker@V?$_Specs_handler@V?$basic_format_parse_context@D@std@@V?$basic_format_context@V?$back_insert_iterator@V?$_Fmt_buffer@D@std@@@std@@D@2@@std@@@std@@QAEXXZ 100292a0 f i Hooks.obj
 0001:000282d0       ?_On_zero@?$_Specs_setter@D@std@@QAEXXZ 100292d0 f i Hooks.obj
 0001:000282f0       ?_Out@?$_Fmt_iterator_buffer@V?$back_insert_iterator@V?$basic_string@DU?$char_traits@D@std@@V?$allocator@D@2@@std@@@std@@DU_Fmt_buffer_traits@2@@std@@QAE?AV?$back_insert_iterator@V?$basic_string@DU?$char_traits@D@std@@V?$allocator@D@2@@std@@@2@XZ 100292f0 f i Hooks.obj
 0001:00028320       ?GetOffset@RecvProp@@QBEHXZ 10029320 f i NetvarManager.obj
 0001:00028320       ?_Position@_Measure_string_prefix_iterator_legacy@__p2286@std@@QBEPBDXZ 10029320 f i Hooks.obj
 0001:00028340       ?_Require_numeric_argument@?$_Specs_checker@V?$_Specs_handler@V?$basic_format_parse_context@D@std@@V?$basic_format_context@V?$back_insert_iterator@V?$_Fmt_buffer@D@std@@@std@@D@2@@std@@@std@@QBEXXZ 10029340 f i Hooks.obj
 0001:00028370       ?_Require_numeric_or_pointer_argument@?$_Specs_checker@V?$_Specs_handler@V?$basic_format_parse_context@D@std@@V?$basic_format_context@V?$back_insert_iterator@V?$_Fmt_buffer@D@std@@@std@@D@2@@std@@@std@@QBEXXZ 10029370 f i Hooks.obj
 0001:000283b0       ?_Seek_to@?$_Array_const_iterator@M$0BI@@std@@QAEXPBM@Z 100293b0 f i Hooks.obj
 0001:000283b0       ?_Seek_to@?$_Array_const_iterator@VAnimationLayer@@$0N@@std@@QAEXPBVAnimationLayer@@@Z 100293b0 f i Hooks.obj
 0001:000283b0       ?_Seek_to@?$_String_view_iterator@U?$char_traits@D@std@@@std@@QAEXPBD@Z 100293b0 f i Hooks.obj
 0001:000283b0       ?advance_to@?$basic_format_context@V?$back_insert_iterator@V?$_Fmt_buffer@D@std@@@std@@D@std@@QAEXV?$back_insert_iterator@V?$_Fmt_buffer@D@std@@@2@@Z 100293b0 f i Hooks.obj
 0001:000283d0       ?_Size@?$_Fmt_buffer@D@std@@QBEIXZ 100293d0 f i Hooks.obj
 0001:000283f0       ?_Throw_bad_cast@std@@YAXXZ 100293f0 f i Hooks.obj
 0001:00028420       ?_Throw_format_error@std@@YAXPBD@Z 10029420 f i Hooks.obj
 0001:00028450       ?_Tidy@?$list@U?$pair@$$CBV?$basic_string@DU?$char_traits@D@std@@V?$allocator@D@2@@std@@V?$shared_ptr@UNode@NetvarTree@@@2@@std@@V?$allocator@U?$pair@$$CBV?$basic_string@DU?$char_traits@D@std@@V?$allocator@D@2@@std@@V?$shared_ptr@UNode@NetvarTree@@@2@@std@@@2@@std@@AAEXXZ 10029450 f i Hooks.obj
 0001:000284a0       ?_Tidy@?$numpunct@D@std@@AAEXXZ 100294a0 f i Hooks.obj
 0001:000284e0       ?_Try_reserve@?$_Fmt_buffer@D@std@@QAEXI@Z 100294e0 f i Hooks.obj
 0001:00028510       ?_Type@_Format_arg_index@std@@QAEXW4_Basic_format_arg_type@2@@Z 10029510 f i Hooks.obj
 0001:00028540       ?_Type@_Format_arg_index@std@@QBE?AW4_Basic_format_arg_type@2@XZ 10029540 f i Hooks.obj
 0001:00028560       ?_Unchecked_end@?$basic_string_view@DU?$char_traits@D@std@@@std@@QBEPBDXZ 10029560 f i Hooks.obj
 0001:00028580       ?_Units_in_next_character@?$_Fmt_codec@D$0A@@std@@QBEHQBD0@Z 10029580 f i Hooks.obj
 0001:00028610       ?_Update_units@_Measure_string_prefix_iterator_legacy@__p2286@std@@AAEXXZ 10029610 f i Hooks.obj
 0001:00028660       ?_Utf8_code_units_in_next_character@?$_Fmt_codec@D$0A@@std@@CAHQBD0@Z 10029660 f i Hooks.obj
 0001:000286b0       ?_Xran@?$_String_val@U?$_Simple_types@D@std@@@std@@SAXXZ 100296b0 f i Hooks.obj
 0001:000286c0       ?__append_d_digits@std@@YAXIIQAD@Z 100296c0 f i Hooks.obj
 0001:00028820       ?__d2d@std@@YA?AU__floating_decimal_64@1@_KI@Z 10029820 f i Hooks.obj
 0001:000290b0       ?__d2d_small_int@std@@YA_N_KIQAU__floating_decimal_64@1@@Z 1002a0b0 f i Hooks.obj
 0001:00029150       ?__d2exp_buffered_n@std@@YA?AUto_chars_result@1@PADQADNI@Z 1002a150 f i Hooks.obj
 0001:00029b70       ?__decimalLength17@std@@YAI_K@Z 1002ab70 f i Hooks.obj
 0001:00029d10       ?__decimalLength9@std@@YAII@Z 1002ad10 f i Hooks.obj
 0001:00029da0       ?__div100@std@@YA_K_K@Z    1002ada0 f i Hooks.obj
 0001:00029dd0       ?__div10@std@@YA_K_K@Z     1002add0 f i Hooks.obj
 0001:00029e00       ?__div1e8@std@@YA_K_K@Z    1002ae00 f i Hooks.obj
 0001:00029e30       ?__div1e9@std@@YA_K_K@Z    1002ae30 f i Hooks.obj
 0001:00029e60       ?__div5@std@@YA_K_K@Z      1002ae60 f i Hooks.obj
 0001:00029e90       ?__double_to_bits@std@@YA_KN@Z 1002ae90 f i Hooks.obj
 0001:00029ec0       ?__f2d@std@@YA?AU__floating_decimal_32@1@II@Z 1002aec0 f i Hooks.obj
 0001:0002a4a0       ?__float_to_bits@std@@YAIM@Z 1002b4a0 f i Hooks.obj
 0001:0002a4c0       ?__indexForExponent@std@@YAII@Z 1002b4c0 f i Hooks.obj
 0001:0002a4d0       ?__lengthForIndex@std@@YAII@Z 1002b4d0 f i Hooks.obj
 0001:0002a4f0       ?__log10Pow2@std@@YAIH@Z   1002b4f0 f i Hooks.obj
 0001:0002a500       ?__log10Pow5@std@@YAIH@Z   1002b500 f i Hooks.obj
 0001:0002a510       ?__mod1e9@std@@YAI_K@Z     1002b510 f i Hooks.obj
 0001:0002a540       ?__mulPow5InvDivPow2@std@@YAIIIH@Z 1002b540 f i Hooks.obj
 0001:0002a570       ?__mulPow5divPow2@std@@YAIIIH@Z 1002b570 f i Hooks.obj
 0001:0002a5a0       ?__mulShift@std@@YAII_KH@Z 1002b5a0 f i Hooks.obj
 0001:0002a650       ?__mulShiftAll@std@@YA_K_KQB_KHQA_K2I@Z 1002b650 f i Hooks.obj
 0001:0002aab0       ?__mulShift_mod1e9@std@@YAI_KQB_KH@Z 1002bab0 f i Hooks.obj
 0001:0002acf0       ?__multipleOfPowerOf2@std@@YA_NII@Z 1002bcf0 f i Hooks.obj
 0001:0002ad20       ?__multipleOfPowerOf2@std@@YA_N_KI@Z 1002bd20 f i Hooks.obj
 0001:0002ad70       ?__multipleOfPowerOf5@std@@YA_NII@Z 1002bd70 f i Hooks.obj
 0001:0002ada0       ?__multipleOfPowerOf5@std@@YA_N_KI@Z 1002bda0 f i Hooks.obj
 0001:0002ade0       ?__pow10BitsForIndex@std@@YAII@Z 1002bde0 f i Hooks.obj
 0001:0002adf0       ?__pow5Factor@std@@YAII@Z  1002bdf0 f i Hooks.obj
 0001:0002ae40       ?__pow5Factor@std@@YAI_K@Z 1002be40 f i Hooks.obj
 0001:0002aea0       ?__pow5bits@std@@YAHH@Z    1002bea0 f i Hooks.obj
 0001:0002aec0       ?__ryu_shiftright128@std@@YA_K_K0I@Z 1002bec0 f i Hooks.obj
 0001:0002af10       ?__ryu_umul128@std@@YA_K_K0QA_K@Z 1002bf10 f i Hooks.obj
 0001:0002b020       ?__umulh@std@@YA_K_K0@Z    1002c020 f i Hooks.obj
 0001:0002b050       ?abs@@YANN@Z               1002c050 f i Hooks.obj
 0001:0002b050       _fabsl                     1002c050 f i Hooks.obj
 0001:0002b070       ?abs@@YAOO@Z               1002c070 f i Hooks.obj
 0001:0002b090       ?advance_to@?$basic_format_parse_context@D@std@@QAEXV?$_String_view_iterator@U?$char_traits@D@std@@@2@@Z 1002c090 f i Hooks.obj
 0001:0002b110       ?arg@?$basic_format_context@V?$back_insert_iterator@V?$_Fmt_buffer@D@std@@@std@@D@std@@QBE?AV?$basic_format_arg@V?$basic_format_context@V?$back_insert_iterator@V?$_Fmt_buffer@D@std@@@std@@D@std@@@2@I@Z 1002c110 f i Hooks.obj
 0001:0002b140       ?begin@?$array@M$0BI@@std@@QAE?AV?$_Array_iterator@M$0BI@@2@XZ 1002c140 f i Hooks.obj
 0001:0002b160       ?begin@?$array@VAnimationLayer@@$0N@@std@@QAE?AV?$_Array_iterator@VAnimationLayer@@$0N@@2@XZ 1002c160 f i Hooks.obj
 0001:0002b180       ?begin@?$basic_format_parse_context@D@std@@QBE?AV?$_String_view_iterator@U?$char_traits@D@std@@@2@XZ 1002c180 f i Hooks.obj
 0001:0002b1b0       ?begin@?$basic_string@DU?$char_traits@D@std@@V?$allocator@D@2@@std@@QAE?AV?$_String_iterator@V?$_String_val@U?$_Simple_types@D@std@@@std@@@2@XZ 1002c1b0 f i Hooks.obj
 0001:0002b200       ?begin@?$basic_string_view@DU?$char_traits@D@std@@@std@@QBE?AV?$_String_view_iterator@U?$char_traits@D@std@@@2@XZ 1002c200 f i Hooks.obj
 0001:0002b220       ?check_arg_id@?$basic_format_parse_context@D@std@@QAEXI@Z 1002c220 f i Hooks.obj
 0001:0002b270       ?count@?$duration@_JU?$ratio@$00$00@std@@@chrono@std@@QBE_JXZ 1002c270 f i DLLMain.obj
 0001:0002b270       ?count@?$duration@_JU?$ratio@$00$0DLJKMKAA@@std@@@chrono@std@@QBE_JXZ 1002c270 f i Hooks.obj
 0001:0002b270       ?count@?$duration@_JU?$ratio@$00$0DOI@@std@@@chrono@std@@QBE_JXZ 1002c270 f i Hooks.obj
 0001:0002b290       ?decimal_point@?$numpunct@D@std@@QBEDXZ 1002c290 f i Hooks.obj
 0001:0002b2b0       ?do_decimal_point@?$numpunct@D@std@@MBEDXZ 1002c2b0 f i Hooks.obj
 0001:0002b2d0       ?do_falsename@?$numpunct@D@std@@MBE?AV?$basic_string@DU?$char_traits@D@std@@V?$allocator@D@2@@2@XZ 1002c2d0 f i Hooks.obj
 0001:0002b310       ?do_grouping@?$numpunct@D@std@@MBE?AV?$basic_string@DU?$char_traits@D@std@@V?$allocator@D@2@@2@XZ 1002c310 f i Hooks.obj
 0001:0002b350       ?do_thousands_sep@?$numpunct@D@std@@MBEDXZ 1002c350 f i Hooks.obj
 0001:0002b370       ?do_truename@?$numpunct@D@std@@MBE?AV?$basic_string@DU?$char_traits@D@std@@V?$allocator@D@2@@2@XZ 1002c370 f i Hooks.obj
 0001:0002b3b0       ?empty@?$basic_string_view@DU?$char_traits@D@std@@@std@@QBE_NXZ 1002c3b0 f i Hooks.obj
 0001:0002b3e0       ?end@?$array@M$0BI@@std@@QAE?AV?$_Array_iterator@M$0BI@@2@XZ 1002c3e0 f i Hooks.obj
 0001:0002b400       ?end@?$array@VAnimationLayer@@$0N@@std@@QAE?AV?$_Array_iterator@VAnimationLayer@@$0N@@2@XZ 1002c400 f i Hooks.obj
 0001:0002b420       ?end@?$basic_string@DU?$char_traits@D@std@@V?$allocator@D@2@@std@@QAE?AV?$_String_iterator@V?$_String_val@U?$_Simple_types@D@std@@@std@@@2@XZ 1002c420 f i Hooks.obj
 0001:0002b470       ?end@?$basic_string_view@DU?$char_traits@D@std@@@std@@QBE?AV?$_String_view_iterator@U?$char_traits@D@std@@@2@XZ 1002c470 f i Hooks.obj
 0001:0002b4a0       ?falsename@?$numpunct@D@std@@QBE?AV?$basic_string@DU?$char_traits@D@std@@V?$allocator@D@2@@2@XZ 1002c4a0 f i Hooks.obj
 0001:0002b4e0       ?format@handle@?$basic_format_arg@V?$basic_format_context@V?$back_insert_iterator@V?$_Fmt_buffer@D@std@@@std@@D@std@@@std@@QBEXAAV?$basic_format_parse_context@D@3@AAV?$basic_format_context@V?$back_insert_iterator@V?$_Fmt_buffer@D@std@@@std@@D@3@@Z 1002c4e0 f i Hooks.obj
 0001:0002b510       ?fpclassify@@YAHM@Z        1002c510 f i Hooks.obj
 0001:0002b530       ?fpclassify@@YAHN@Z        1002c530 f i Hooks.obj
 0001:0002b550       ?fpclassify@@YAHO@Z        1002c550 f i Hooks.obj
 0001:0002b570       ?get@?$basic_format_args@V?$basic_format_context@V?$back_insert_iterator@V?$_Fmt_buffer@D@std@@@std@@D@std@@@std@@QBE?AV?$basic_format_arg@V?$basic_format_context@V?$back_insert_iterator@V?$_Fmt_buffer@D@std@@@std@@D@std@@@2@I@Z 1002c570 f i Hooks.obj
 0001:0002b7e0       ?get@?$basic_format_string@DABV?$basic_string_view@DU?$char_traits@D@std@@@std@@AAPBD@std@@QBE?AV?$basic_string_view@DU?$char_traits@D@std@@@2@XZ 1002c7e0 f i Hooks.obj
 0001:0002b7e0       ?time_since_epoch@?$time_point@Usteady_clock@chrono@std@@V?$duration@_JU?$ratio@$00$0DLJKMKAA@@std@@@23@@chrono@std@@QBE?AV?$duration@_JU?$ratio@$00$0DLJKMKAA@@std@@@23@XZ 1002c7e0 f i Hooks.obj
 0001:0002b800       ?grouping@?$numpunct@D@std@@QBE?AV?$basic_string@DU?$char_traits@D@std@@V?$allocator@D@2@@2@XZ 1002c800 f i Hooks.obj
 0001:0002b840       ?insert@?$basic_string@DU?$char_traits@D@std@@V?$allocator@D@2@@std@@QAEAAV12@IQBDI@Z 1002c840 f i Hooks.obj
 0001:0002b970       ?move@?$_Char_traits@DH@std@@SAPADQADQBDI@Z 1002c970 f i Hooks.obj
 0001:0002ba40       ?next_arg_id@?$basic_format_parse_context@D@std@@QAEIXZ 1002ca40 f i Hooks.obj
 0001:0002baa0       ?now@steady_clock@chrono@std@@SA?AV?$time_point@Usteady_clock@chrono@std@@V?$duration@_JU?$ratio@$00$0DLJKMKAA@@std@@@23@@23@XZ 1002caa0 f i Hooks.obj
 0001:0002bc70       ?out@?$basic_format_context@V?$back_insert_iterator@V?$_Fmt_buffer@D@std@@@std@@D@std@@QAE?AV?$back_insert_iterator@V?$_Fmt_buffer@D@std@@@2@XZ 1002cc70 f i Hooks.obj
 0001:0002bc90       ?push_back@?$_Fmt_buffer@D@std@@QAEXD@Z 1002cc90 f i Hooks.obj
 0001:0002bcd0       ?release@?$unique_ptr@$$BY0A@IU?$default_delete@$$BY0A@I@std@@@std@@QAEPAIXZ 1002ccd0 f i Hooks.obj
 0001:0002bcd0       ?release@?$unique_ptr@VNetvarTree@@U?$default_delete@VNetvarTree@@@std@@@std@@QAEPAVNetvarTree@@XZ 1002ccd0 f i Hooks.obj
 0001:0002bcd0       ?release@?$unique_ptr@VVMTHook@@U?$default_delete@VVMTHook@@@std@@@std@@QAEPAVVMTHook@@XZ 1002ccd0 f i Hooks.obj
 0001:0002bcd0       ?release@?$unique_ptr@V_Facet_base@std@@U?$default_delete@V_Facet_base@std@@@2@@std@@QAEPAV_Facet_base@2@XZ 1002ccd0 f i Hooks.obj
 0001:0002bd00       ?remove_prefix@?$basic_string_view@DU?$char_traits@D@std@@@std@@QAEXI@Z 1002cd00 f i Hooks.obj
 0001:0002bd30       ?reserve@?$basic_string@DU?$char_traits@D@std@@V?$allocator@D@2@@std@@QAEXI@Z 1002cd30 f i Hooks.obj
 0001:0002bd80       ?reset@?$unique_ptr@VNetvarTree@@U?$default_delete@VNetvarTree@@@std@@@std@@QAEXPAVNetvarTree@@@Z 1002cd80 f i Hooks.obj
 0001:0002bdc0       ?reset@?$unique_ptr@VVMTHook@@U?$default_delete@VVMTHook@@@std@@@std@@QAEXPAVVMTHook@@@Z 1002cdc0 f i Hooks.obj
 0001:0002be00       ?signbit@@YA_NM@Z          1002ce00 f i Hooks.obj
 0001:0002be40       ?signbit@@YA_NN@Z          1002ce40 f i Hooks.obj
 0001:0002be80       ?signbit@@YA_NO@Z          1002ce80 f i Hooks.obj
 0001:0002bec0       ?thousands_sep@?$numpunct@D@std@@QBEDXZ 1002cec0 f i Hooks.obj
 0001:0002bee0       ?to_chars@std@@YA?AUto_chars_result@1@QAD0EH@Z 1002cee0 f i Hooks.obj
 0001:0002bf10       ?to_chars@std@@YA?AUto_chars_result@1@QAD0HH@Z 1002cf10 f i Hooks.obj
 0001:0002bf40       ?to_chars@std@@YA?AUto_chars_result@1@QAD0IH@Z 1002cf40 f i Hooks.obj
 0001:0002bf70       ?to_chars@std@@YA?AUto_chars_result@1@QAD0M@Z 1002cf70 f i Hooks.obj
 0001:0002bfb0       ?to_chars@std@@YA?AUto_chars_result@1@QAD0MW4chars_format@1@@Z 1002cfb0 f i Hooks.obj
 0001:0002bff0       ?to_chars@std@@YA?AUto_chars_result@1@QAD0MW4chars_format@1@H@Z 1002cff0 f i Hooks.obj
 0001:0002c030       ?to_chars@std@@YA?AUto_chars_result@1@QAD0N@Z 1002d030 f i Hooks.obj
 0001:0002c030       ?to_chars@std@@YA?AUto_chars_result@1@QAD0O@Z 1002d030 f i Hooks.obj
 0001:0002c070       ?to_chars@std@@YA?AUto_chars_result@1@QAD0NW4chars_format@1@@Z 1002d070 f i Hooks.obj
 0001:0002c070       ?to_chars@std@@YA?AUto_chars_result@1@QAD0OW4chars_format@1@@Z 1002d070 f i Hooks.obj
 0001:0002c0b0       ?to_chars@std@@YA?AUto_chars_result@1@QAD0NW4chars_format@1@H@Z 1002d0b0 f i Hooks.obj
 0001:0002c0b0       ?to_chars@std@@YA?AUto_chars_result@1@QAD0OW4chars_format@1@H@Z 1002d0b0 f i Hooks.obj
 0001:0002c0f0       ?to_chars@std@@YA?AUto_chars_result@1@QAD0_JH@Z 1002d0f0 f i Hooks.obj
 0001:0002c130       ?to_chars@std@@YA?AUto_chars_result@1@QAD0_KH@Z 1002d130 f i Hooks.obj
 0001:0002c170       ?truename@?$numpunct@D@std@@QBE?AV?$basic_string@DU?$char_traits@D@std@@V?$allocator@D@2@@2@XZ 1002d170 f i Hooks.obj
 0001:0002c1b0       ___local_stdio_printf_options 1002d1b0 f i Hooks.obj
 0001:0002c1c0       __vsnprintf_l              1002d1c0 f i Hooks.obj
 0001:0002c220       _vsprintf                  1002d220 f i Hooks.obj
 0001:0002c240       ??$?0H$0A@@?$duration@_JU?$ratio@$00$00@std@@@chrono@std@@QAE@ABH@Z 1002d240 f i DLLMain.obj
 0001:0002c260       ??$?0_JU?$ratio@$00$00@std@@$0A@@?$duration@_JU?$ratio@$00$0DLJKMKAA@@std@@@chrono@std@@QAE@ABV?$duration@_JU?$ratio@$00$00@std@@@12@@Z 1002d260 f i DLLMain.obj
 0001:0002c2a0       ??$?GUsteady_clock@chrono@std@@V?$duration@_JU?$ratio@$00$0DLJKMKAA@@std@@@12@_JU?$ratio@$00$00@2@@chrono@std@@YA?AV?$time_point@Usteady_clock@chrono@std@@V?$duration@_JU?$ratio@$00$0DLJKMKAA@@std@@@23@@01@ABV201@ABV?$duration@_JU?$ratio@$00$00@std@@@01@@Z 1002d2a0 f i DLLMain.obj
 0001:0002c2e0       ??$?G_JU?$ratio@$00$0DLJKMKAA@@std@@_JU?$ratio@$00$00@1@@chrono@std@@YA?AV?$duration@_JU?$ratio@$00$0DLJKMKAA@@std@@@01@ABV201@ABV?$duration@_JU?$ratio@$00$00@std@@@01@@Z 1002d2e0 f i DLLMain.obj
 0001:0002c340       ??$_To_absolute_time@_JU?$ratio@$00$00@std@@@std@@YA?A_PABV?$duration@_JU?$ratio@$00$00@std@@@chrono@0@@Z 1002d340 f i DLLMain.obj
 0001:0002c450       ??$duration_cast@V?$duration@_JU?$ratio@$00$0DLJKMKAA@@std@@@chrono@std@@_JU?$ratio@$00$00@3@$0A@@chrono@std@@YA?AV?$duration@_JU?$ratio@$00$0DLJKMKAA@@std@@@01@ABV?$duration@_JU?$ratio@$00$00@std@@@01@@Z 1002d450 f i DLLMain.obj
 0001:0002c490       ??$sleep_for@_JU?$ratio@$00$00@std@@@this_thread@std@@YAXABV?$duration@_JU?$ratio@$00$00@std@@@chrono@1@@Z 1002d490 f i DLLMain.obj
 0001:0002c4c0       ?OnDllAttach@@YGKPAX@Z     1002d4c0 f   DLLMain.obj
 0001:0002c540       _DllMain@12                1002d540 f   DLLMain.obj
 0001:0002c590       ??$?0$0A@$00$01$02$03$04$05$06$07$08$09$0L@$0M@$0N@$0O@$0P@$0BA@$0BB@$0BC@$0BD@$0BE@$0BF@$0BG@$0BH@$0BI@$0BJ@$0BK@$0BL@$0BM@$0BN@$0BO@$0BP@$0CA@$0CB@$0CC@$0CD@$0CE@$0CF@@?$XorString@$0CG@$00@XorCompileTime@@QAE@PBDU?$integer_sequence@I$0A@$00$01$02$03$04$05$06$07$08$09$0L@$0M@$0N@$0O@$0P@$0BA@$0BB@$0BC@$0BD@$0BE@$0BF@$0BG@$0BH@$0BI@$0BJ@$0BK@$0BL@$0BM@$0BN@$0BO@$0BP@$0CA@$0CB@$0CC@$0CD@$0CE@$0CF@@std@@@Z 1002d590 f i Menu.obj
 0001:0002ca30       ??$?0$0A@$00$01$02$03$04$05$06$07$08$09$0L@$0M@$0N@$0O@$0P@$0BA@$0BB@$0BC@$0BD@$0BE@$0BF@$0BG@$0BH@$0BI@$0BJ@$0BK@$0BL@$0BM@$0BN@@?$XorString@$0BO@$0A@@XorCompileTime@@QAE@PBDU?$integer_sequence@I$0A@$00$01$02$03$04$05$06$07$08$09$0L@$0M@$0N@$0O@$0P@$0BA@$0BB@$0BC@$0BD@$0BE@$0BF@$0BG@$0BH@$0BI@$0BJ@$0BK@$0BL@$0BM@$0BN@@std@@@Z 1002da30 f i Menu.obj
 0001:0002cde0       ??$?0ABV?$allocator@V?$basic_string@DU?$char_traits@D@std@@V?$allocator@D@2@@std@@@std@@$$V@?$_Compressed_pair@V?$allocator@V?$basic_string@DU?$char_traits@D@std@@V?$allocator@D@2@@std@@@std@@V?$_Vector_val@U?$_Simple_types@V?$basic_string@DU?$char_traits@D@std@@V?$allocator@D@2@@std@@@std@@@2@$00@std@@QAE@U_One_then_variadic_args_t@1@ABV?$allocator@V?$basic_string@DU?$char_traits@D@std@@V?$allocator@D@2@@std@@@1@@Z 1002dde0 f i Menu.obj
 0001:0002ce00       ??$?0PAD$0A@@?$basic_string@DU?$char_traits@D@std@@V?$allocator@D@2@@std@@QAE@PAD0ABV?$allocator@D@1@@Z 1002de00 f i Menu.obj
 0001:0002cec0       ??$?HDU?$char_traits@D@std@@V?$allocator@D@1@@std@@YA?AV?$basic_string@DU?$char_traits@D@std@@V?$allocator@D@2@@0@ABV10@QBD@Z 1002dec0 f i Menu.obj
 0001:0002cf50       ??$_Allocate_at_least_helper@V?$allocator@V?$basic_string@DU?$char_traits@D@std@@V?$allocator@D@2@@std@@@std@@@std@@YAPAV?$basic_string@DU?$char_traits@D@std@@V?$allocator@D@2@@0@AAV?$allocator@V?$basic_string@DU?$char_traits@D@std@@V?$allocator@D@2@@std@@@0@AAI@Z 1002df50 f i Menu.obj
 0001:0002cf70       ??$_Construct@$01PBD@?$basic_string@DU?$char_traits@D@std@@V?$allocator@D@2@@std@@AAEXQBDI@Z 1002df70 f i Menu.obj
 0001:0002d070       ??$_Construct_n@PBV?$basic_string@DU?$char_traits@D@std@@V?$allocator@D@2@@std@@PBV12@@?$vector@V?$basic_string@DU?$char_traits@D@std@@V?$allocator@D@2@@std@@V?$allocator@V?$basic_string@DU?$char_traits@D@std@@V?$allocator@D@2@@std@@@2@@std@@AAEXI$$QAPBV?$basic_string@DU?$char_traits@D@std@@V?$allocator@D@2@@1@0@Z 1002e070 f i Menu.obj
 0001:0002d140       ??$_Destroy_range@V?$allocator@V?$basic_string@DU?$char_traits@D@std@@V?$allocator@D@2@@std@@@std@@@std@@YAXPAV?$basic_string@DU?$char_traits@D@std@@V?$allocator@D@2@@0@QAV10@AAV?$allocator@V?$basic_string@DU?$char_traits@D@std@@V?$allocator@D@2@@std@@@0@@Z 1002e140 f i Menu.obj
 0001:0002d1b0       ??$_Emplace_back@ABV?$basic_string@DU?$char_traits@D@std@@V?$allocator@D@2@@std@@@?$_Uninitialized_backout_al@V?$allocator@V?$basic_string@DU?$char_traits@D@std@@V?$allocator@D@2@@std@@@std@@@std@@QAEXABV?$basic_string@DU?$char_traits@D@std@@V?$allocator@D@2@@1@@Z 1002e1b0 f i Menu.obj
 0001:0002d200       ??$_Get_size_of_n@$0BI@@std@@YAII@Z 1002e200 f i Menu.obj
 0001:0002d230       ??$_Integral_to_string@DH@std@@YA?AV?$basic_string@DU?$char_traits@D@std@@V?$allocator@D@2@@0@H@Z 1002e230 f i Menu.obj
 0001:0002d2e0       ??$_Reallocate_for@V<lambda_1>@?1??assign@?$basic_string@DU?$char_traits@D@std@@V?$allocator@D@2@@std@@QAEAAV34@QBDI@Z@PBD@?$basic_string@DU?$char_traits@D@std@@V?$allocator@D@2@@std@@AAEAAV01@IV<lambda_1>@?1??assign@01@QAEAAV01@QBDI@Z@PBD@Z 1002e2e0 f i Menu.obj
 0001:0002d3b0       ??$_Reallocate_grow_by@V<lambda_1>@?1??append@?$basic_string@DU?$char_traits@D@std@@V?$allocator@D@2@@std@@QAEAAV34@QBDI@Z@PBDI@?$basic_string@DU?$char_traits@D@std@@V?$allocator@D@2@@std@@AAEAAV01@IV<lambda_1>@?1??append@01@QAEAAV01@QBDI@Z@PBDI@Z 1002e3b0 f i Menu.obj
 0001:0002d4d0       ??$_UIntegral_to_buff@DI@std@@YAPADPADI@Z 1002e4d0 f i Menu.obj
 0001:0002d520       ??$_Uninitialized_copy@PBV?$basic_string@DU?$char_traits@D@std@@V?$allocator@D@2@@std@@PBV12@V?$allocator@V?$basic_string@DU?$char_traits@D@std@@V?$allocator@D@2@@std@@@2@@std@@YAPAV?$basic_string@DU?$char_traits@D@std@@V?$allocator@D@2@@0@PBV10@0PAV10@AAV?$allocator@V?$basic_string@DU?$char_traits@D@std@@V?$allocator@D@2@@std@@@0@@Z 1002e520 f i Menu.obj
 0001:0002d5d0       ??$construct@V?$basic_string@DU?$char_traits@D@std@@V?$allocator@D@2@@std@@ABV12@@?$_Default_allocator_traits@V?$allocator@V?$basic_string@DU?$char_traits@D@std@@V?$allocator@D@2@@std@@@std@@@std@@SAXAAV?$allocator@V?$basic_string@DU?$char_traits@D@std@@V?$allocator@D@2@@std@@@1@QAV?$basic_string@DU?$char_traits@D@std@@V?$allocator@D@2@@1@ABV31@@Z 1002e5d0 f i Menu.obj
 0001:0002d5f0       ??$construct_at@V?$basic_string@DU?$char_traits@D@std@@V?$allocator@D@2@@std@@ABV12@@std@@YAPAV?$basic_string@DU?$char_traits@D@std@@V?$allocator@D@2@@0@QAV10@ABV10@@Z 1002e5f0 f i Menu.obj
 0001:0002d620       ??$destroy@V?$basic_string@DU?$char_traits@D@std@@V?$allocator@D@2@@std@@@?$_Default_allocator_traits@V?$allocator@V?$basic_string@DU?$char_traits@D@std@@V?$allocator@D@2@@std@@@std@@@std@@SAXAAV?$allocator@V?$basic_string@DU?$char_traits@D@std@@V?$allocator@D@2@@std@@@1@QAV?$basic_string@DU?$char_traits@D@std@@V?$allocator@D@2@@1@@Z 1002e620 f i Menu.obj
 0001:0002d640       ??$destroy_at@V?$basic_string@DU?$char_traits@D@std@@V?$allocator@D@2@@std@@@std@@YAXQAV?$basic_string@DU?$char_traits@D@std@@V?$allocator@D@2@@0@@Z 1002e640 f i Menu.obj
 0001:0002d650       ??$end@D$0BF@@std@@YAPADAAY0BF@D@Z 1002e650 f i Menu.obj
 0001:0002d660       ??$vsprintf_s@$0IAA@@@YAHAAY0IAA@DPBDPAD@Z 1002e660 f i Menu.obj
 0001:0002d7e0       ??0?$basic_string@DU?$char_traits@D@std@@V?$allocator@D@2@@std@@QAE@ABV01@@Z 1002e7e0 f i Menu.obj
 0001:0002d890       ??0?$basic_string@DU?$char_traits@D@std@@V?$allocator@D@2@@std@@QAE@U_String_constructor_concat_tag@1@ABV01@QBDI2I@Z 1002e890 f i Menu.obj
 0001:0002da00       ??0?$vector@V?$basic_string@DU?$char_traits@D@std@@V?$allocator@D@2@@std@@V?$allocator@V?$basic_string@DU?$char_traits@D@std@@V?$allocator@D@2@@std@@@2@@std@@QAE@V?$initializer_list@V?$basic_string@DU?$char_traits@D@std@@V?$allocator@D@2@@std@@@1@ABV?$allocator@V?$basic_string@DU?$char_traits@D@std@@V?$allocator@D@2@@std@@@1@@Z 1002ea00 f i Menu.obj
 0001:0002da70       ??0Color@@QAE@XZ           1002ea70 f i Menu.obj
 0001:0002dab0       ??0Menu@@QAE@XZ            1002eab0 f i Menu.obj
 0001:0002db00       ??0Vertex_t@@QAE@XZ        1002eb00 f i Menu.obj
 0001:0002db30       ??1?$_Tidy_guard@V?$vector@V?$basic_string@DU?$char_traits@D@std@@V?$allocator@D@2@@std@@V?$allocator@V?$basic_string@DU?$char_traits@D@std@@V?$allocator@D@2@@std@@@2@@std@@@std@@QAE@XZ 1002eb30 f i Menu.obj
 0001:0002db50       ??1?$_Uninitialized_backout_al@V?$allocator@V?$basic_string@DU?$char_traits@D@std@@V?$allocator@D@2@@std@@@std@@@std@@QAE@XZ 1002eb50 f i Menu.obj
 0001:0002db80       ??1?$vector@V?$basic_string@DU?$char_traits@D@std@@V?$allocator@D@2@@std@@V?$allocator@V?$basic_string@DU?$char_traits@D@std@@V?$allocator@D@2@@std@@@2@@std@@QAE@XZ 1002eb80 f i Menu.obj
 0001:0002dba0       ??4?$basic_string@DU?$char_traits@D@std@@V?$allocator@D@2@@std@@QAEAAV01@ABV01@@Z 1002eba0 f i Menu.obj
 0001:0002dc20       ??4?$basic_string@DU?$char_traits@D@std@@V?$allocator@D@2@@std@@QAEAAV01@QBD@Z 1002ec20 f i Menu.obj
 0001:0002dc40       ??A?$array@D$0BP@@std@@QAEAADI@Z 1002ec40 f i Menu.obj
 0001:0002dc40       ??A?$array@D$0CH@@std@@QAEAADI@Z 1002ec40 f i Menu.obj
 0001:0002dc60       ??R<lambda_1>@?1??append@?$basic_string@DU?$char_traits@D@std@@V?$allocator@D@2@@std@@QAEAAV23@QBDI@Z@QBE@QAD0I0I@Z 1002ec60 f i Menu.obj
 0001:0002dcc0       ??R<lambda_1>@?1??assign@?$basic_string@DU?$char_traits@D@std@@V?$allocator@D@2@@std@@QAEAAV23@QBDI@Z@QBE@QADI0@Z 1002ecc0 f i Menu.obj
 0001:0002dd00       ??Y?$basic_string@DU?$char_traits@D@std@@V?$allocator@D@2@@std@@QAEAAV01@ABV01@@Z 1002ed00 f i Menu.obj
 0001:0002dd20       ??Y?$basic_string@DU?$char_traits@D@std@@V?$allocator@D@2@@std@@QAEAAV01@QBD@Z 1002ed20 f i Menu.obj
 0001:0002dd40       ??_G?$basic_string@DU?$char_traits@D@std@@V?$allocator@D@2@@std@@QAEPAXI@Z 1002ed40 f i Menu.obj
 0001:0002dd70       ?CheckBox@Menu@@AAEXV?$basic_string@DU?$char_traits@D@std@@V?$allocator@D@2@@std@@PA_N@Z 1002ed70 f   Menu.obj
 0001:0002e2a0       ?ColorPicker@Menu@@AAEXV?$basic_string@DU?$char_traits@D@std@@V?$allocator@D@2@@std@@AAUColorV2@@@Z 1002f2a0 f   Menu.obj
 0001:0002e940       ?ComboBox@Menu@@AAEXV?$basic_string@DU?$char_traits@D@std@@V?$allocator@D@2@@std@@V?$vector@V?$basic_string@DU?$char_traits@D@std@@V?$allocator@D@2@@std@@V?$allocator@V?$basic_string@DU?$char_traits@D@std@@V?$allocator@D@2@@std@@@2@@3@PAH@Z 1002f940 f   Menu.obj
 0001:0002f4d0       ?DrawFilledRect@ISurface@@QAEXHHHH@Z 100304d0 f i Menu.obj
 0001:0002f510       ?DrawPrintText@ISurface@@QAEXPB_WH@Z 10030510 f i Menu.obj
 0001:0002f550       ?DrawSetTextColor@ISurface@@QAEXHHHH@Z 10030550 f i Menu.obj
 0001:0002f590       ?DrawSetTextFont@ISurface@@QAEXK@Z 10030590 f i Menu.obj
 0001:0002f5c0       ?DrawSetTextPos@ISurface@@QAEXHH@Z 100305c0 f i Menu.obj
 0001:0002f5f0       ?DrawT@ISurface@@QAAXHHUColor@@H_NPBDZZ 100305f0 f i Menu.obj
 0001:0002f800       ?DrawTexturedPolygon@ISurface@@QAEXHPAUVertex_t@@_N@Z 10030800 f i Menu.obj
 0001:0002f840       ?FilledRect@ISurface@@QAEXHHHHUColor@@@Z 10030840 f i Menu.obj
 0001:0002f890       ?FromHSV@Color@@QAEAAU1@MMM@Z 10030890 f i Menu.obj
 0001:0002fbb0       ?GetMousePosition@ISurface@@QAE?AVVector2D@@XZ 10030bb0 f i Menu.obj
 0001:0002fc10       ?GetTextSize@ISurface@@QAEXKPB_WAAH1@Z 10030c10 f i Menu.obj
 0001:0002fc50       ?GetTextSizeRect@ISurface@@QAE?AUtagRECT@@KPBD@Z 10030c50 f i Menu.obj
 0001:0002fd60       ?MouseInRegion@ISurface@@QAE_NHHHH@Z 10030d60 f i Menu.obj
 0001:0002fe00       ?MultiComboBox@Menu@@AAEXV?$basic_string@DU?$char_traits@D@std@@V?$allocator@D@2@@std@@V?$vector@V?$basic_string@DU?$char_traits@D@std@@V?$allocator@D@2@@std@@V?$allocator@V?$basic_string@DU?$char_traits@D@std@@V?$allocator@D@2@@std@@@2@@3@PA_N@Z 10030e00 f   Menu.obj
 0001:00030da0       ?Render@Menu@@QAEXXZ       10031da0 f   Menu.obj
 0001:00033290       ?RoundedFilledRect@ISurface@@QAEXHHHHMUColor@@@Z 10034290 f i Menu.obj
 0001:000334c0       ?Slider@Menu@@AAEXHV?$basic_string@DU?$char_traits@D@std@@V?$allocator@D@2@@std@@PAH@Z 100344c0 f   Menu.obj
 0001:00033bf0       ?SubTab@Menu@@AAEXV?$basic_string@DU?$char_traits@D@std@@V?$allocator@D@2@@std@@@Z 10034bf0 f   Menu.obj
 0001:00034450       ?Tab@Menu@@AAEXV?$basic_string@DU?$char_traits@D@std@@V?$allocator@D@2@@std@@@Z 10035450 f   Menu.obj
 0001:00034af0       ?_Buy_nonzero@?$vector@V?$basic_string@DU?$char_traits@D@std@@V?$allocator@D@2@@std@@V?$allocator@V?$basic_string@DU?$char_traits@D@std@@V?$allocator@D@2@@std@@@2@@std@@AAEXI@Z 10035af0 f i Menu.obj
 0001:00034b20       ?_Buy_raw@?$vector@V?$basic_string@DU?$char_traits@D@std@@V?$allocator@D@2@@std@@V?$allocator@V?$basic_string@DU?$char_traits@D@std@@V?$allocator@D@2@@std@@@2@@std@@AAEXI@Z 10035b20 f i Menu.obj
 0001:00034b90       ?_Tidy@?$vector@V?$basic_string@DU?$char_traits@D@std@@V?$allocator@D@2@@std@@V?$allocator@V?$basic_string@DU?$char_traits@D@std@@V?$allocator@D@2@@std@@@2@@std@@AAEXXZ 10035b90 f i Menu.obj
 0001:00034c30       ?_Xrange@?$vector@V?$basic_string@DU?$char_traits@D@std@@V?$allocator@D@2@@std@@V?$allocator@V?$basic_string@DU?$char_traits@D@std@@V?$allocator@D@2@@std@@@2@@std@@CAXXZ 10035c30 f i Menu.obj
 0001:00034c40       ?allocate@?$allocator@V?$basic_string@DU?$char_traits@D@std@@V?$allocator@D@2@@std@@@std@@QAEPAV?$basic_string@DU?$char_traits@D@std@@V?$allocator@D@2@@2@I@Z 10035c40 f i Menu.obj
 0001:00034c70       ?append@?$basic_string@DU?$char_traits@D@std@@V?$allocator@D@2@@std@@QAEAAV12@ABV12@@Z 10035c70 f i Menu.obj
 0001:00034cb0       ?append@?$basic_string@DU?$char_traits@D@std@@V?$allocator@D@2@@std@@QAEAAV12@QBD@Z 10035cb0 f i Menu.obj
 0001:00034ce0       ?append@?$basic_string@DU?$char_traits@D@std@@V?$allocator@D@2@@std@@QAEAAV12@QBDI@Z 10035ce0 f i Menu.obj
 0001:00034d70       ?assign@?$basic_string@DU?$char_traits@D@std@@V?$allocator@D@2@@std@@QAEAAV12@QBD@Z 10035d70 f i Menu.obj
 0001:00034da0       ?assign@?$basic_string@DU?$char_traits@D@std@@V?$allocator@D@2@@std@@QAEAAV12@QBDI@Z 10035da0 f i Menu.obj
 0001:00034e20       ?at@?$vector@V?$basic_string@DU?$char_traits@D@std@@V?$allocator@D@2@@std@@V?$allocator@V?$basic_string@DU?$char_traits@D@std@@V?$allocator@D@2@@std@@@2@@std@@QAEAAV?$basic_string@DU?$char_traits@D@std@@V?$allocator@D@2@@2@I@Z 10035e20 f i Menu.obj
 0001:00034e60       ?deallocate@?$allocator@V?$basic_string@DU?$char_traits@D@std@@V?$allocator@D@2@@std@@@std@@QAEXQAV?$basic_string@DU?$char_traits@D@std@@V?$allocator@D@2@@2@I@Z 10035e60 f i Menu.obj
 0001:00034e80       ?dec@?$XorString@$0BO@$0A@@XorCompileTime@@ABEDD@Z 10035e80 f i Menu.obj
 0001:00034e80       ?dec@?$XorString@$0CG@$00@XorCompileTime@@ABEDD@Z 10035e80 f i Menu.obj
 0001:00034e80       ?enc@?$XorString@$0BO@$0A@@XorCompileTime@@ABEDD@Z 10035e80 f i Menu.obj
 0001:00034e80       ?enc@?$XorString@$0CG@$00@XorCompileTime@@ABEDD@Z 10035e80 f i Menu.obj
 0001:00034ea0       ?decrypt@?$XorString@$0BO@$0A@@XorCompileTime@@QAE@XZ 10035ea0 f i Menu.obj
 0001:00034f30       ?decrypt@?$XorString@$0CG@$00@XorCompileTime@@QAE@XZ 10035f30 f i Menu.obj
 0001:00034fc0       ?max_size@?$_Default_allocator_traits@V?$allocator@V?$basic_string@DU?$char_traits@D@std@@V?$allocator@D@2@@std@@@std@@@std@@SAIABV?$allocator@V?$basic_string@DU?$char_traits@D@std@@V?$allocator@D@2@@std@@@2@@Z 10035fc0 f i Menu.obj
 0001:00034fd0       ?max_size@?$vector@V?$basic_string@DU?$char_traits@D@std@@V?$allocator@D@2@@std@@V?$allocator@V?$basic_string@DU?$char_traits@D@std@@V?$allocator@D@2@@std@@@2@@std@@QBEIXZ 10035fd0 f i Menu.obj
 0001:00035010       ?size@?$initializer_list@V?$basic_string@DU?$char_traits@D@std@@V?$allocator@D@2@@std@@@std@@QBEIXZ 10036010 f i Menu.obj
 0001:00035030       ?size@?$vector@V?$basic_string@DU?$char_traits@D@std@@V?$allocator@D@2@@std@@V?$allocator@V?$basic_string@DU?$char_traits@D@std@@V?$allocator@D@2@@std@@@2@@std@@QBEIXZ 10036030 f i Menu.obj
 0001:00035060       ?to_string@std@@YA?AV?$basic_string@DU?$char_traits@D@std@@V?$allocator@D@2@@1@H@Z 10036060 f i Menu.obj
 0001:00035090       __vsprintf_s_l             10036090 f i Menu.obj
 0001:000350e0       _fmodf                     100360e0 f i Menu.obj
 0001:00035120       _vsprintf_s                10036120 f i Menu.obj
 0001:00035140       ??$?HDU?$char_traits@D@std@@V?$allocator@D@1@@std@@YA?AV?$basic_string@DU?$char_traits@D@std@@V?$allocator@D@2@@0@$$QAV10@QBD@Z 10036140 f i TGFCfg.obj
 0001:00035170       ??$_Construct@$0A@D@?$basic_string@DU?$char_traits@D@std@@V?$allocator@D@2@@std@@AAEXDI@Z 10036170 f i TGFCfg.obj
 0001:000352b0       ??0?$ConfigValue@H@@QAE@V?$basic_string@DU?$char_traits@D@std@@V?$allocator@D@2@@std@@PAH@Z 100362b0 f i TGFCfg.obj
 0001:000352b0       ??0?$ConfigValue@M@@QAE@V?$basic_string@DU?$char_traits@D@std@@V?$allocator@D@2@@std@@PAM@Z 100362b0 f i TGFCfg.obj
 0001:000352b0       ??0?$ConfigValue@_N@@QAE@V?$basic_string@DU?$char_traits@D@std@@V?$allocator@D@2@@std@@PA_N@Z 100362b0 f i TGFCfg.obj
 0001:00035330       ??0?$basic_string@DU?$char_traits@D@std@@V?$allocator@D@2@@std@@QAE@ID@Z 10036330 f i TGFCfg.obj
 0001:000353a0       ??0CConfig@@QAE@XZ         100363a0 f i TGFCfg.obj
 0001:00035420       ??A?$basic_string@DU?$char_traits@D@std@@V?$allocator@D@2@@std@@QAEAADI@Z 10036420 f i TGFCfg.obj
 0001:00035440       ?Load@CConfig@@QAEXXZ      10036440 f   TGFCfg.obj
 0001:000358d0       ?Save@CConfig@@QAEXXZ      100368d0 f   TGFCfg.obj
 0001:00035d00       ?Setup@CConfig@@QAEXXZ     10036d00 f   TGFCfg.obj
 0001:000363b0       ?SetupValue@CConfig@@AAEXAAHHV?$basic_string@DU?$char_traits@D@std@@V?$allocator@D@2@@std@@@Z 100373b0 f   TGFCfg.obj
 0001:00036480       ?SetupValue@CConfig@@AAEXAAUColorV2@@MV?$basic_string@DU?$char_traits@D@std@@V?$allocator@D@2@@std@@@Z 10037480 f   TGFCfg.obj
 0001:000366e0       ?SetupValue@CConfig@@AAEXAA_N_NV?$basic_string@DU?$char_traits@D@std@@V?$allocator@D@2@@std@@@Z 100376e0 f   TGFCfg.obj
 0001:000367b0       ?SetupValue@CConfig@@AAEXPA_N_NHV?$basic_string@DU?$char_traits@D@std@@V?$allocator@D@2@@std@@@Z 100377b0 f   TGFCfg.obj
 0001:000368e0       ?assign@?$_Char_traits@DH@std@@SAPADQADID@Z 100378e0 f i TGFCfg.obj
 0001:00036920       ?assign@?$_Narrow_char_traits@DH@std@@SAPADQADID@Z 10037920 f i TGFCfg.obj
 0001:00036960       ?to_string@std@@YA?AV?$basic_string@DU?$char_traits@D@std@@V?$allocator@D@2@@1@M@Z 10037960 f i TGFCfg.obj
 0001:000369a0       ?to_string@std@@YA?AV?$basic_string@DU?$char_traits@D@std@@V?$allocator@D@2@@1@N@Z 100379a0 f i TGFCfg.obj
 0001:00036a20       __scprintf                 10037a20 f i TGFCfg.obj
 0001:00036a50       __vscprintf_l              10037a50 f i TGFCfg.obj
 0001:00036aa0       _sprintf_s                 10037aa0 f i TGFCfg.obj
 0001:00036ae0       ??$?8DU?$char_traits@D@std@@V?$allocator@D@1@@std@@YA_NABV?$basic_string@DU?$char_traits@D@std@@V?$allocator@D@2@@0@QBD@Z 10037ae0 f i CEntity.obj
 0001:00036b00       ?FireRate@C_BaseEntity@@QAEMXZ 10037b00 f   CEntity.obj
 0001:00037250       ?FixSetupBones@C_BaseEntity@@QAEXPAVmatrix3x4_t@@@Z 10038250 f   CEntity.obj
 0001:00037320       ?GetAbsOrigin@C_BaseEntity@@QAE?AVVector@@XZ 10038320 f i CEntity.obj
 0001:00037360       ?GetHitbox@mstudiohitboxset_t@@QBEPAUmstudiobbox_t@@H@Z 10038360 f i CEntity.obj
 0001:00037380       ?GetHitboxPosition@C_BaseEntity@@QAE?AVVector@@HPAVmatrix3x4_t@@@Z 10038380 f   CEntity.obj
 0001:00037500       ?GetHitboxPosition@C_BaseEntity@@QAE?AVVector@@HPAVmatrix3x4_t@@PAM@Z 10038500 f   CEntity.obj
 0001:00037680       ?GetHitboxSet@studiohdr_t@@QBEPAUmstudiohitboxset_t@@H@Z 10038680 f i CEntity.obj
 0001:000376b0       ?GetName@C_BaseCombatWeapon@@QAE?AV?$basic_string@DU?$char_traits@D@std@@V?$allocator@D@2@@std@@XZ 100386b0 f i CEntity.obj
 0001:000376f0       ?GetStudiomodel@IVModelInfo@@QAEPAUstudiohdr_t@@PBUmodel_t@@@Z 100386f0 f i CEntity.obj
 0001:00037720       ?IsKnifeorNade@C_BaseEntity@@QAE_NXZ 10038720 f   CEntity.obj
 0001:000378e0       ?SetAbsAngles@C_BaseEntity@@QAEXVVector@@@Z 100388e0 f   CEntity.obj
 0001:000379a0       ?SetAbsOrigin@C_BaseEntity@@QAEXVVector@@@Z 100389a0 f   CEntity.obj
 0001:00037a60       ?_Equal@?$basic_string@DU?$char_traits@D@std@@V?$allocator@D@2@@std@@QBE_NQBD@Z 10038a60 f i CEntity.obj
 0001:00037ab0       ?Final@CRC32@@YAXPAI@Z     10038ab0 f   checksum_crc32.obj
 0001:00037ad0       ?Init@CRC32@@YAXPAI@Z      10038ad0 f   checksum_crc32.obj
 0001:00037ae0       ?ProcessBuffer@CRC32@@YAXPAIPBXH@Z 10038ae0 f   checksum_crc32.obj
 0001:00037e40       ??$?6U?$char_traits@D@std@@@std@@YAAAV?$basic_ostream@DU?$char_traits@D@std@@@0@AAV10@PBD@Z 10038e40 f i Interfaces.obj
 0001:00038180       ??$?6V?$basic_ofstream@DU?$char_traits@D@std@@@std@@$$BY0BCC@D$0A@@std@@YA$$QAV?$basic_ofstream@DU?$char_traits@D@std@@@0@$$QAV10@AAY0BCC@$$CBD@Z 10039180 f i Interfaces.obj
 0001:000381a0       ??$CaptureInterface@VIGameEventManager@@@interfaces@@YAPAVIGameEventManager@@PBD0@Z 100391a0 f i Interfaces.obj
 0001:00038250       ??$FindClass@VCModelRender@@@interfaces@@YAPAVCModelRender@@V?$basic_string@DU?$char_traits@D@std@@V?$allocator@D@2@@std@@0_N@Z 10039250 f i Interfaces.obj
 0001:00038430       ??$FindClass@VCPrediction@@@interfaces@@YAPAVCPrediction@@V?$basic_string@DU?$char_traits@D@std@@V?$allocator@D@2@@std@@0_N@Z 10039430 f i Interfaces.obj
 0001:00038610       ??$FindClass@VIBaseClientDLL@@@interfaces@@YAPAVIBaseClientDLL@@V?$basic_string@DU?$char_traits@D@std@@V?$allocator@D@2@@std@@0_N@Z 10039610 f i Interfaces.obj
 0001:000387f0       ??$FindClass@VICVar@@@interfaces@@YAPAVICVar@@V?$basic_string@DU?$char_traits@D@std@@V?$allocator@D@2@@std@@0_N@Z 100397f0 f i Interfaces.obj
 0001:000389d0       ??$FindClass@VIClientEntityList@@@interfaces@@YAPAVIClientEntityList@@V?$basic_string@DU?$char_traits@D@std@@V?$allocator@D@2@@std@@0_N@Z 100399d0 f i Interfaces.obj
 0001:00038bb0       ??$FindClass@VIEngineTrace@@@interfaces@@YAPAVIEngineTrace@@V?$basic_string@DU?$char_traits@D@std@@V?$allocator@D@2@@std@@0_N@Z 10039bb0 f i Interfaces.obj
 0001:00038d90       ??$FindClass@VIGameMovement@@@interfaces@@YAPAVIGameMovement@@V?$basic_string@DU?$char_traits@D@std@@V?$allocator@D@2@@std@@0_N@Z 10039d90 f i Interfaces.obj
 0001:00038f70       ??$FindClass@VIMaterialSystem@@@interfaces@@YAPAVIMaterialSystem@@V?$basic_string@DU?$char_traits@D@std@@V?$allocator@D@2@@std@@0_N@Z 10039f70 f i Interfaces.obj
 0001:00039150       ??$FindClass@VIPanel@@@interfaces@@YAPAVIPanel@@V?$basic_string@DU?$char_traits@D@std@@V?$allocator@D@2@@std@@0_N@Z 1003a150 f i Interfaces.obj
 0001:00039330       ??$FindClass@VIPhysicsSurfaceProps@@@interfaces@@YAPAVIPhysicsSurfaceProps@@V?$basic_string@DU?$char_traits@D@std@@V?$allocator@D@2@@std@@0_N@Z 1003a330 f i Interfaces.obj
 0001:00039510       ??$FindClass@VISurface@@@interfaces@@YAPAVISurface@@V?$basic_string@DU?$char_traits@D@std@@V?$allocator@D@2@@std@@0_N@Z 1003a510 f i Interfaces.obj
 0001:000396f0       ??$FindClass@VIVEngineClient@@@interfaces@@YAPAVIVEngineClient@@V?$basic_string@DU?$char_traits@D@std@@V?$allocator@D@2@@std@@0_N@Z 1003a6f0 f i Interfaces.obj
 0001:000398d0       ??$FindClass@VIVModelInfo@@@interfaces@@YAPAVIVModelInfo@@V?$basic_string@DU?$char_traits@D@std@@V?$allocator@D@2@@std@@0_N@Z 1003a8d0 f i Interfaces.obj
 0001:00039ab0       ??$FindClass@VIVRenderView@@@interfaces@@YAPAVIVRenderView@@V?$basic_string@DU?$char_traits@D@std@@V?$allocator@D@2@@std@@0_N@Z 1003aab0 f i Interfaces.obj
 0001:00039c90       ??$_Fgetc@D@std@@YA_NAADPAU_iobuf@@@Z 1003ac90 f i Interfaces.obj
 0001:00039cc0       ??$_Fputc@D@std@@YA_NDPAU_iobuf@@@Z 1003acc0 f i Interfaces.obj
 0001:00039d00       ??$_Reallocate_grow_by@V<lambda_1>@?1??push_back@?$basic_string@DU?$char_traits@D@std@@V?$allocator@D@2@@std@@QAEXD@Z@D@?$basic_string@DU?$char_traits@D@std@@V?$allocator@D@2@@std@@AAEAAV01@IV<lambda_1>@?1??push_back@01@QAEXD@Z@D@Z 1003ad00 f i Interfaces.obj
 0001:00039e20       ??$_Ungetc@D@std@@YA_NABDPAU_iobuf@@@Z 1003ae20 f i Interfaces.obj
 0001:00039e60       ??$sprintf_s@$0BAA@@@YAHAAY0BAA@DPBDZZ 1003ae60 f i Interfaces.obj
 0001:00039e90       ??$use_facet@V?$codecvt@DDU_Mbstatet@@@std@@@std@@YAABV?$codecvt@DDU_Mbstatet@@@0@ABVlocale@0@@Z 1003ae90 f i Interfaces.obj
 0001:00039fa0       ??0?$basic_filebuf@DU?$char_traits@D@std@@@std@@QAE@XZ 1003afa0 f i Interfaces.obj
 0001:00039fd0       ??0?$basic_ofstream@DU?$char_traits@D@std@@@std@@QAE@PBDHH@Z 1003afd0 f i Interfaces.obj
 0001:0003a0f0       ??0?$fpos@U_Mbstatet@@@std@@QAE@U_Mbstatet@@_J@Z 1003b0f0 f i Interfaces.obj
 0001:0003a130       ??0?$fpos@U_Mbstatet@@@std@@QAE@_J@Z 1003b130 f i Interfaces.obj
 0001:0003a170       ??0_Sentry_base@?$basic_ostream@DU?$char_traits@D@std@@@std@@QAE@AAV12@@Z 1003b170 f i Interfaces.obj
 0001:0003a1c0       ??0sentry@?$basic_ostream@DU?$char_traits@D@std@@@std@@QAE@AAV12@@Z 1003b1c0 f i Interfaces.obj
 0001:0003a290       ??1?$basic_filebuf@DU?$char_traits@D@std@@@std@@UAE@XZ 1003b290 f i Interfaces.obj
 0001:0003a310       ??1?$basic_ofstream@DU?$char_traits@D@std@@@std@@UAE@XZ 1003b310 f i Interfaces.obj
 0001:0003a370       ??1_Sentry_base@?$basic_ostream@DU?$char_traits@D@std@@@std@@QAE@XZ 1003b370 f i Interfaces.obj
 0001:0003a3e0       ??1sentry@?$basic_ostream@DU?$char_traits@D@std@@@std@@QAE@XZ 1003b3e0 f i Interfaces.obj
 0001:0003a430       ??B?$fpos@U_Mbstatet@@@std@@QBE_JXZ 1003b430 f i Interfaces.obj
 0001:0003a460       ??Bsentry@?$basic_ostream@DU?$char_traits@D@std@@@std@@QBE_NXZ 1003b460 f i Interfaces.obj
 0001:0003a480       ??R<lambda_1>@?1??push_back@?$basic_string@DU?$char_traits@D@std@@V?$allocator@D@2@@std@@QAEXD@Z@QBE@QADQBDID@Z 1003b480 f i Interfaces.obj
 0001:0003a4e0       ??_D?$basic_ofstream@DU?$char_traits@D@std@@@std@@QAEXXZ 1003b4e0 f i Interfaces.obj
 0001:0003a503       ??_E?$basic_ofstream@DU?$char_traits@D@std@@@std@@$4PPPPPPPM@A@AEPAXI@Z 1003b503 f i Interfaces.obj
 0001:0003a510       ??_E?$basic_filebuf@DU?$char_traits@D@std@@@std@@UAEPAXI@Z 1003b510 f i Interfaces.obj
 0001:0003a510       ??_G?$basic_filebuf@DU?$char_traits@D@std@@@std@@UAEPAXI@Z 1003b510 f i Interfaces.obj
 0001:0003a540       ??_E?$basic_ofstream@DU?$char_traits@D@std@@@std@@UAEPAXI@Z 1003b540 f i Interfaces.obj
 0001:0003a540       ??_G?$basic_ofstream@DU?$char_traits@D@std@@@std@@UAEPAXI@Z 1003b540 f i Interfaces.obj
 0001:0003a580       ?Init@interfaces@@YAXXZ    1003b580 f   Interfaces.obj
 0001:0003ab10       ?_Clamp_suffix_size@?$_String_val@U?$_Simple_types@D@std@@@std@@QBEIII@Z 1003bb10 f i Interfaces.obj
 0001:0003ab40       ?_Endwrite@?$basic_filebuf@DU?$char_traits@D@std@@@std@@IAE_NXZ 1003bb40 f i Interfaces.obj
 0001:0003ac70       ?_Erase_noexcept@?$basic_string@DU?$char_traits@D@std@@V?$allocator@D@2@@std@@AAEAAV12@II@Z 1003bc70 f i Interfaces.obj
 0001:0003acf0       ?_Init@?$basic_filebuf@DU?$char_traits@D@std@@@std@@IAEXPAU_iobuf@@W4_Initfl@12@@Z 1003bcf0 f i Interfaces.obj
 0001:0003adc0       ?_Initcvt@?$basic_filebuf@DU?$char_traits@D@std@@@std@@IAEXABV?$codecvt@DDU_Mbstatet@@@2@@Z 1003bdc0 f i Interfaces.obj
 0001:0003ae10       ?_Lock@?$basic_filebuf@DU?$char_traits@D@std@@@std@@UAEXXZ 1003be10 f i Interfaces.obj
 0001:0003ae40       ?_Reset_back@?$basic_filebuf@DU?$char_traits@D@std@@@std@@AAEXXZ 1003be40 f i Interfaces.obj
 0001:0003ae80       ?_Set_back@?$basic_filebuf@DU?$char_traits@D@std@@@std@@AAEXXZ 1003be80 f i Interfaces.obj
 0001:0003aee0       ?_Unlock@?$basic_filebuf@DU?$char_traits@D@std@@@std@@UAEXXZ 1003bee0 f i Interfaces.obj
 0001:0003af10       ?close@?$basic_filebuf@DU?$char_traits@D@std@@@std@@QAEPAV12@XZ 1003bf10 f i Interfaces.obj
 0001:0003af80       ?empty@?$basic_string@DU?$char_traits@D@std@@V?$allocator@D@2@@std@@QBE_NXZ 1003bf80 f i Interfaces.obj
 0001:0003afb0       ?eq_int_type@?$_Narrow_char_traits@DH@std@@SA_NHH@Z 1003bfb0 f i Interfaces.obj
 0001:0003afe0       ?erase@?$basic_string@DU?$char_traits@D@std@@V?$allocator@D@2@@std@@QAEAAV12@II@Z 1003bfe0 f i Interfaces.obj
 0001:0003b020       ?front@?$basic_string@DU?$char_traits@D@std@@V?$allocator@D@2@@std@@QAEAADXZ 1003c020 f i Interfaces.obj
 0001:0003b040       ?imbue@?$basic_filebuf@DU?$char_traits@D@std@@@std@@MAEXABVlocale@2@@Z 1003c040 f i Interfaces.obj
 0001:0003b070       ?not_eof@?$_Narrow_char_traits@DH@std@@SAHH@Z 1003c070 f i Interfaces.obj
 0001:0003b0b0       ?open@?$basic_filebuf@DU?$char_traits@D@std@@@std@@QAEPAV12@PBDHH@Z 1003c0b0 f i Interfaces.obj
 0001:0003b170       ?overflow@?$basic_filebuf@DU?$char_traits@D@std@@@std@@MAEHH@Z 1003c170 f i Interfaces.obj
 0001:0003b360       ?pbackfail@?$basic_filebuf@DU?$char_traits@D@std@@@std@@MAEHH@Z 1003c360 f i Interfaces.obj
 0001:0003b4b0       ?push_back@?$basic_string@DU?$char_traits@D@std@@V?$allocator@D@2@@std@@QAEXD@Z 1003c4b0 f i Interfaces.obj
 0001:0003b530       ?seekoff@?$basic_filebuf@DU?$char_traits@D@std@@@std@@MAE?AV?$fpos@U_Mbstatet@@@2@_JHH@Z 1003c530 f i Interfaces.obj
 0001:0003b610       ?seekpos@?$basic_filebuf@DU?$char_traits@D@std@@@std@@MAE?AV?$fpos@U_Mbstatet@@@2@V32@H@Z 1003c610 f i Interfaces.obj
 0001:0003b6b0       ?setbuf@?$basic_filebuf@DU?$char_traits@D@std@@@std@@MAEPAV?$basic_streambuf@DU?$char_traits@D@std@@@2@PAD_J@Z 1003c6b0 f i Interfaces.obj
 0001:0003b730       ?state@?$fpos@U_Mbstatet@@@std@@QBE?AU_Mbstatet@@XZ 1003c730 f i Interfaces.obj
 0001:0003b760       ?sync@?$basic_filebuf@DU?$char_traits@D@std@@@std@@MAEHXZ 1003c760 f i Interfaces.obj
 0001:0003b7d0       ?uflow@?$basic_filebuf@DU?$char_traits@D@std@@@std@@MAEHXZ 1003c7d0 f i Interfaces.obj
 0001:0003ba60       ?underflow@?$basic_filebuf@DU?$char_traits@D@std@@@std@@MAEHXZ 1003ca60 f i Interfaces.obj
 0001:0003bb10       ?xsgetn@?$basic_filebuf@DU?$char_traits@D@std@@@std@@MAE_JPAD_J@Z 1003cb10 f i Interfaces.obj
 0001:0003bc80       ?xsputn@?$basic_filebuf@DU?$char_traits@D@std@@@std@@MAE_JPBD_J@Z 1003cc80 f i Interfaces.obj
 0001:0003bda0       ??$isinf@M@@YA_NM@Z        1003cda0 f i Math.obj
 0001:0003bde0       ??AVector@@QBEMH@Z         1003cde0 f i Math.obj
 0001:0003be00       ??Amatrix3x4_t@@QBEPBMH@Z  1003ce00 f i Math.obj
 0001:0003be20       ?AngleVectors@Math@@QAEXABVVector@@PAV2@11@Z 1003ce20 f   Math.obj
 0001:0003c000       ?AngleVectors@Math@@QAEXABVVector@@PAV2@@Z 1003d000 f   Math.obj
 0001:0003c100       ?CalcAngle@Math@@QAE?AVVector@@ABV2@0@Z 1003d100 f   Math.obj
 0001:0003c330       ?Clamp@Math@@QAE_NAAVVector@@@Z 1003d330 f   Math.obj
 0001:0003c420       ?ClampAngles@Math@@QAEXAAVVector@@@Z 1003d420 f   Math.obj
 0001:0003c4c0       ?CrossProduct@@YA?AVVector@@ABV1@0@Z 1003d4c0 f i Math.obj
 0001:0003c550       ?Distance@Math@@QAEMVVector2D@@0@Z 1003d550 f   Math.obj
 0001:0003c5b0       ?DotProduct@@YAMABVVector@@0@Z 1003d5b0 f i Math.obj
 0001:0003c600       ?GRD_TO_BOG@Math@@QAEMM@Z  1003d600 f   Math.obj
 0001:0003c630       ?NormalizeAngles@Math@@QAEXAAVVector@@@Z 1003d630 f   Math.obj
 0001:0003c6e0       ?NormalizeYaw@Math@@QAEMM@Z 1003d6e0 f   Math.obj
 0001:0003c780       ?RandomFloat@Math@@QAEMMM@Z 1003d780 f   Math.obj
 0001:0003c810       ?VectorAngles@Math@@QAEXABVVector@@AAV2@1@Z 1003d810 f   Math.obj
 0001:0003ca10       ?VectorAngles@Math@@QAEXABVVector@@AAV2@@Z 1003da10 f   Math.obj
 0001:0003cc90       ?VectorTransform@Math@@QAEXVVector@@Vmatrix3x4_t@@AAV2@@Z 1003dc90 f   Math.obj
 0001:0003cf00       ?atan2@@YAMMM@Z            1003df00 f i Math.obj
 0001:0003cf30       ?atan@@YAMM@Z              1003df30 f i Math.obj
 0001:0003cf50       ?round@@YAMM@Z             1003df50 f i Math.obj
 0001:0003cf70       ?sin_cos@@YAXMPAM0@Z       1003df70 f   Math.obj
 0001:0003cfb0       _atan2f                    1003dfb0 f i Math.obj
 0001:0003cff0       _atanf                     1003dff0 f i Math.obj
 0001:0003d010       ??$?0H@?$_Ref_count_obj2@UNode@NetvarTree@@@std@@QAE@$$QAH@Z 1003e010 f i NetvarManager.obj
 0001:0003d090       ??$?0PBDABV?$shared_ptr@UNode@NetvarTree@@@std@@$0A@@?$pair@$$CBV?$basic_string@DU?$char_traits@D@std@@V?$allocator@D@2@@std@@V?$shared_ptr@UNode@NetvarTree@@@2@@std@@QAE@$$QAPBDABV?$shared_ptr@UNode@NetvarTree@@@1@@Z 1003e090 f i NetvarManager.obj
 0001:0003d0d0       ??$?0PBDABV?$shared_ptr@UNode@NetvarTree@@@std@@@?$_List_node_emplace_op2@V?$allocator@U?$_List_node@U?$pair@$$CBV?$basic_string@DU?$char_traits@D@std@@V?$allocator@D@2@@std@@V?$shared_ptr@UNode@NetvarTree@@@2@@std@@PAX@std@@@std@@@std@@QAE@AAV?$allocator@U?$_List_node@U?$pair@$$CBV?$basic_string@DU?$char_traits@D@std@@V?$allocator@D@2@@std@@V?$shared_ptr@UNode@NetvarTree@@@2@@std@@PAX@std@@@1@$$QAPBDABV?$shared_ptr@UNode@NetvarTree@@@1@@Z 1003e0d0 f i NetvarManager.obj
 0001:0003d170       ??$?0V?$_List_iterator@V?$_List_val@U?$_List_simple_types@U?$pair@$$CBV?$basic_string@DU?$char_traits@D@std@@V?$allocator@D@2@@std@@V?$shared_ptr@UNode@NetvarTree@@@2@@std@@@std@@@std@@@std@@_N$0A@@?$pair@V?$_List_iterator@V?$_List_val@U?$_List_simple_types@U?$pair@$$CBV?$basic_string@DU?$char_traits@D@std@@V?$allocator@D@2@@std@@V?$shared_ptr@UNode@NetvarTree@@@2@@std@@@std@@@std@@@std@@_N@std@@QAE@$$QAV?$_List_iterator@V?$_List_val@U?$_List_simple_types@U?$pair@$$CBV?$basic_string@DU?$char_traits@D@std@@V?$allocator@D@2@@std@@V?$shared_ptr@UNode@NetvarTree@@@2@@std@@@std@@@std@@@1@$$QA_N@Z 1003e170 f i NetvarManager.obj
 0001:0003d1a0       ??$_Construct_in_place@UNode@NetvarTree@@H@std@@YAXAAUNode@NetvarTree@@$$QAH@Z 1003e1a0 f i NetvarManager.obj
 0001:0003d200       ??$_Copy_construct_from@UNode@NetvarTree@@@?$_Ptr_base@UNode@NetvarTree@@@std@@IAEXABV?$shared_ptr@UNode@NetvarTree@@@1@@Z 1003e200 f i NetvarManager.obj
 0001:0003d230       ??$_Destroy_in_place@UNode@NetvarTree@@@std@@YAXAAUNode@NetvarTree@@@Z 1003e230 f i NetvarManager.obj
 0001:0003d240       ??$_Set_ptr_rep_and_enable_shared@UNode@NetvarTree@@@?$shared_ptr@UNode@NetvarTree@@@std@@AAEXQAUNode@NetvarTree@@QAV_Ref_count_base@1@@Z 1003e240 f i NetvarManager.obj
 0001:0003d260       ??$construct@U?$pair@$$CBV?$basic_string@DU?$char_traits@D@std@@V?$allocator@D@2@@std@@V?$shared_ptr@UNode@NetvarTree@@@2@@std@@PBDABV?$shared_ptr@UNode@NetvarTree@@@2@@?$_Default_allocator_traits@V?$allocator@U?$_List_node@U?$pair@$$CBV?$basic_string@DU?$char_traits@D@std@@V?$allocator@D@2@@std@@V?$shared_ptr@UNode@NetvarTree@@@2@@std@@PAX@std@@@std@@@std@@SAXAAV?$allocator@U?$_List_node@U?$pair@$$CBV?$basic_string@DU?$char_traits@D@std@@V?$allocator@D@2@@std@@V?$shared_ptr@UNode@NetvarTree@@@2@@std@@PAX@std@@@1@QAU?$pair@$$CBV?$basic_string@DU?$char_traits@D@std@@V?$allocator@D@2@@std@@V?$shared_ptr@UNode@NetvarTree@@@2@@1@$$QAPBDABV?$shared_ptr@UNode@NetvarTree@@@1@@Z 1003e260 f i NetvarManager.obj
 0001:0003d280       ??$construct_at@U?$pair@$$CBV?$basic_string@DU?$char_traits@D@std@@V?$allocator@D@2@@std@@V?$shared_ptr@UNode@NetvarTree@@@2@@std@@PBDABV?$shared_ptr@UNode@NetvarTree@@@2@@std@@YAPAU?$pair@$$CBV?$basic_string@DU?$char_traits@D@std@@V?$allocator@D@2@@std@@V?$shared_ptr@UNode@NetvarTree@@@2@@0@QAU10@$$QAPBDABV?$shared_ptr@UNode@NetvarTree@@@0@@Z 1003e280 f i NetvarManager.obj
 0001:0003d2b0       ??$construct_at@UNode@NetvarTree@@H@std@@YAPAUNode@NetvarTree@@QAU12@$$QAH@Z 1003e2b0 f i NetvarManager.obj
 0001:0003d2e0       ??$emplace@PBDABV?$shared_ptr@UNode@NetvarTree@@@std@@@?$_Hash@V?$_Umap_traits@V?$basic_string@DU?$char_traits@D@std@@V?$allocator@D@2@@std@@V?$shared_ptr@UNode@NetvarTree@@@2@V?$_Uhash_compare@V?$basic_string@DU?$char_traits@D@std@@V?$allocator@D@2@@std@@U?$hash@V?$basic_string@DU?$char_traits@D@std@@V?$allocator@D@2@@std@@@2@U?$equal_to@V?$basic_string@DU?$char_traits@D@std@@V?$allocator@D@2@@std@@@2@@2@V?$allocator@U?$pair@$$CBV?$basic_string@DU?$char_traits@D@std@@V?$allocator@D@2@@std@@V?$shared_ptr@UNode@NetvarTree@@@2@@std@@@2@$0A@@std@@@std@@QAE?AU?$pair@V?$_List_iterator@V?$_List_val@U?$_List_simple_types@U?$pair@$$CBV?$basic_string@DU?$char_traits@D@std@@V?$allocator@D@2@@std@@V?$shared_ptr@UNode@NetvarTree@@@2@@std@@@std@@@std@@@std@@_N@1@$$QAPBDABV?$shared_ptr@UNode@NetvarTree@@@1@@Z 1003e2e0 f i NetvarManager.obj
 0001:0003d470       ??$make_shared@UNode@NetvarTree@@H@std@@YA?AV?$shared_ptr@UNode@NetvarTree@@@0@$$QAH@Z 1003e470 f i NetvarManager.obj
 0001:0003d530       ??0?$_Hash@V?$_Umap_traits@V?$basic_string@DU?$char_traits@D@std@@V?$allocator@D@2@@std@@V?$shared_ptr@UNode@NetvarTree@@@2@V?$_Uhash_compare@V?$basic_string@DU?$char_traits@D@std@@V?$allocator@D@2@@std@@U?$hash@V?$basic_string@DU?$char_traits@D@std@@V?$allocator@D@2@@std@@@2@U?$equal_to@V?$basic_string@DU?$char_traits@D@std@@V?$allocator@D@2@@std@@@2@@2@V?$allocator@U?$pair@$$CBV?$basic_string@DU?$char_traits@D@std@@V?$allocator@D@2@@std@@V?$shared_ptr@UNode@NetvarTree@@@2@@std@@@2@$0A@@std@@@std@@IAE@ABV?$_Uhash_compare@V?$basic_string@DU?$char_traits@D@std@@V?$allocator@D@2@@std@@U?$hash@V?$basic_string@DU?$char_traits@D@std@@V?$allocator@D@2@@std@@@2@U?$equal_to@V?$basic_string@DU?$char_traits@D@std@@V?$allocator@D@2@@std@@@2@@1@ABV?$allocator@U?$pair@$$CBV?$basic_string@DU?$char_traits@D@std@@V?$allocator@D@2@@std@@V?$shared_ptr@UNode@NetvarTree@@@2@@std@@@1@@Z 1003e530 f i NetvarManager.obj
 0001:0003d610       ??0?$_List_iterator@V?$_List_val@U?$_List_simple_types@U?$pair@$$CBV?$basic_string@DU?$char_traits@D@std@@V?$allocator@D@2@@std@@V?$shared_ptr@UNode@NetvarTree@@@2@@std@@@std@@@std@@@std@@QAE@PAU?$_List_node@U?$pair@$$CBV?$basic_string@DU?$char_traits@D@std@@V?$allocator@D@2@@std@@V?$shared_ptr@UNode@NetvarTree@@@2@@std@@PAX@1@PBV?$_List_val@U?$_List_simple_types@U?$pair@$$CBV?$basic_string@DU?$char_traits@D@std@@V?$allocator@D@2@@std@@V?$shared_ptr@UNode@NetvarTree@@@2@@std@@@std@@@1@@Z 1003e610 f i NetvarManager.obj
 0001:0003d640       ??0?$list@U?$pair@$$CBV?$basic_string@DU?$char_traits@D@std@@V?$allocator@D@2@@std@@V?$shared_ptr@UNode@NetvarTree@@@2@@std@@V?$allocator@U?$pair@$$CBV?$basic_string@DU?$char_traits@D@std@@V?$allocator@D@2@@std@@V?$shared_ptr@UNode@NetvarTree@@@2@@std@@@2@@std@@QAE@ABV?$allocator@U?$pair@$$CBV?$basic_string@DU?$char_traits@D@std@@V?$allocator@D@2@@std@@V?$shared_ptr@UNode@NetvarTree@@@2@@std@@@1@@Z 1003e640 f i NetvarManager.obj
 0001:0003d680       ??0?$shared_ptr@UNode@NetvarTree@@@std@@QAE@ABV01@@Z 1003e680 f i NetvarManager.obj
 0001:0003d6b0       ??0?$unordered_map@V?$basic_string@DU?$char_traits@D@std@@V?$allocator@D@2@@std@@V?$shared_ptr@UNode@NetvarTree@@@2@U?$hash@V?$basic_string@DU?$char_traits@D@std@@V?$allocator@D@2@@std@@@2@U?$equal_to@V?$basic_string@DU?$char_traits@D@std@@V?$allocator@D@2@@std@@@2@V?$allocator@U?$pair@$$CBV?$basic_string@DU?$char_traits@D@std@@V?$allocator@D@2@@std@@V?$shared_ptr@UNode@NetvarTree@@@2@@std@@@2@@std@@QAE@XZ 1003e6b0 f i NetvarManager.obj
 0001:0003d6f0       ??0NetvarTree@@QAE@XZ      1003e6f0 f   NetvarManager.obj
 0001:0003d7e0       ??0Node@NetvarTree@@QAE@H@Z 1003e7e0 f i NetvarManager.obj
 0001:0003d810       ??0_Ref_count_base@std@@IAE@XZ 1003e810 f i NetvarManager.obj
 0001:0003d840       ??1?$_Ref_count_obj2@UNode@NetvarTree@@@std@@UAE@XZ 1003e840 f i NetvarManager.obj
 0001:0003d860       ??_E?$_Ref_count_obj2@UNode@NetvarTree@@@std@@UAEPAXI@Z 1003e860 f i NetvarManager.obj
 0001:0003d860       ??_G?$_Ref_count_obj2@UNode@NetvarTree@@@std@@UAEPAXI@Z 1003e860 f i NetvarManager.obj
 0001:0003d890       ??_GNode@NetvarTree@@QAEPAXI@Z 1003e890 f i NetvarManager.obj
 0001:0003d8c0       ?GetDataTable@RecvProp@@QBEPAVRecvTable@@XZ 1003e8c0 f i NetvarManager.obj
 0001:0003d8e0       ?GetName@RecvTable@@QAEPBDXZ 1003e8e0 f i NetvarManager.obj
 0001:0003d900       ?GetProp@RecvTable@@QAEPAVRecvProp@@H@Z 1003e900 f i NetvarManager.obj
 0001:0003d920       ?PopulateNodes@NetvarTree@@AAEXPAVRecvTable@@PAV?$unordered_map@V?$basic_string@DU?$char_traits@D@std@@V?$allocator@D@2@@std@@V?$shared_ptr@UNode@NetvarTree@@@2@U?$hash@V?$basic_string@DU?$char_traits@D@std@@V?$allocator@D@2@@std@@@2@U?$equal_to@V?$basic_string@DU?$char_traits@D@std@@V?$allocator@D@2@@std@@@2@V?$allocator@U?$pair@$$CBV?$basic_string@DU?$char_traits@D@std@@V?$allocator@D@2@@std@@V?$shared_ptr@UNode@NetvarTree@@@2@@std@@@2@@std@@@Z 1003e920 f   NetvarManager.obj
 0001:0003da20       ?_Alloc_sentinel_and_proxy@?$list@U?$pair@$$CBV?$basic_string@DU?$char_traits@D@std@@V?$allocator@D@2@@std@@V?$shared_ptr@UNode@NetvarTree@@@2@@std@@V?$allocator@U?$pair@$$CBV?$basic_string@DU?$char_traits@D@std@@V?$allocator@D@2@@std@@V?$shared_ptr@UNode@NetvarTree@@@2@@std@@@2@@std@@AAEXXZ 1003ea20 f i NetvarManager.obj
 0001:0003daa0       ?_Delete_this@?$_Ref_count_obj2@UNode@NetvarTree@@@std@@EAEXXZ 1003eaa0 f i NetvarManager.obj
 0001:0003dae0       ?_Destroy@?$_Ref_count_obj2@UNode@NetvarTree@@@std@@EAEXXZ 1003eae0 f i NetvarManager.obj
 0001:0003db00       ?_Get_deleter@_Ref_count_base@std@@UBEPAXABVtype_info@@@Z 1003eb00 f i NetvarManager.obj
 0001:0003db10       ?_Incref@?$_Ptr_base@UNode@NetvarTree@@@std@@IBEXXZ 1003eb10 f i NetvarManager.obj
 0001:0003db30       ?_Incref@_Ref_count_base@std@@QAEXXZ 1003eb30 f i NetvarManager.obj
 0001:0003db50       ?_Make_iter@?$list@U?$pair@$$CBV?$basic_string@DU?$char_traits@D@std@@V?$allocator@D@2@@std@@V?$shared_ptr@UNode@NetvarTree@@@2@@std@@V?$allocator@U?$pair@$$CBV?$basic_string@DU?$char_traits@D@std@@V?$allocator@D@2@@std@@V?$shared_ptr@UNode@NetvarTree@@@2@@std@@@2@@std@@QBE?AV?$_List_iterator@V?$_List_val@U?$_List_simple_types@U?$pair@$$CBV?$basic_string@DU?$char_traits@D@std@@V?$allocator@D@2@@std@@V?$shared_ptr@UNode@NetvarTree@@@2@@std@@@std@@@std@@@2@PAU?$_List_node@U?$pair@$$CBV?$basic_string@DU?$char_traits@D@std@@V?$allocator@D@2@@std@@V?$shared_ptr@UNode@NetvarTree@@@2@@std@@PAX@2@@Z 1003eb50 f i NetvarManager.obj
 0001:0003db80       ??$?HDU?$char_traits@D@std@@V?$allocator@D@1@@std@@YA?AV?$basic_string@DU?$char_traits@D@std@@V?$allocator@D@2@@0@QBD$$QAV10@@Z 1003eb80 f i ESP.obj
 0001:0003dbc0       ??0ESP@@QAE@XZ             1003ebc0 f i ESP.obj
 0001:0003dbf0       ?BoundBox@ESP@@AAEXPAVC_BaseEntity@@@Z 1003ebf0 f   ESP.obj
 0001:0003dd60       ?DrawOutlinedRect@ISurface@@QAEXHHHH@Z 1003ed60 f i ESP.obj
 0001:0003dda0       ?OutlinedRect@ISurface@@QAEXHHHHUColor@@@Z 1003eda0 f i ESP.obj
 0001:0003ddf0       ?Render@ESP@@QAEXXZ        1003edf0 f   ESP.obj
 0001:0003e0b0       ?RenderBox@ESP@@AAEXXZ     1003f0b0 f   ESP.obj
 0001:0003e380       ?RenderHealth@ESP@@AAEXPAVC_BaseEntity@@@Z 1003f380 f   ESP.obj
 0001:0003e750       ?RenderHitboxPoints@ESP@@AAEXPAVC_BaseEntity@@@Z 1003f750 f   ESP.obj
 0001:0003e810       ?RenderName@ESP@@AAEXPAVC_BaseEntity@@H@Z 1003f810 f   ESP.obj
 0001:0003e960       ?RenderSkeleton@ESP@@AAEXPAVC_BaseEntity@@@Z 1003f960 f   ESP.obj
 0001:0003f3f0       ?RenderWeaponName@ESP@@AAEXPAVC_BaseEntity@@@Z 100403f0 f   ESP.obj
 0001:0003f5e0       ?insert@?$basic_string@DU?$char_traits@D@std@@V?$allocator@D@2@@std@@QAEAAV12@IQBD@Z 100405e0 f i ESP.obj
 0001:0003f613       _K32GetModuleInformation@16 10040613 f   kernel32:KERNEL32.dll
 0001:0003f619       ?_Xbad_alloc@std@@YAXXZ    10040619 f   msvcprt:MSVCP140.dll
 0001:0003f61f       ?_Xlength_error@std@@YAXPBD@Z 1004061f f   msvcprt:MSVCP140.dll
 0001:0003f625       ?_Xout_of_range@std@@YAXPBD@Z 10040625 f   msvcprt:MSVCP140.dll
 0001:0003f62b       __Query_perf_counter       1004062b f   msvcprt:MSVCP140.dll
 0001:0003f631       __Query_perf_frequency     10040631 f   msvcprt:MSVCP140.dll
 0001:0003f750       ___std_find_trivial_1@12   10040750 f   msvcprt:vector_algorithms.obj
 0001:0003f759       __Thrd_sleep_for@4         10040759 f   msvcprt:sharedmutex.obj
 0001:0003f75f       ___std_init_once_link_alternate_names_and_abort@0 1004075f f   msvcprt:xonce2.obj
 0001:0003f765       ??1_Fac_node@std@@QAE@XZ   10040765 f i msvcprt:locale0_implib.obj
 0001:0003f796       ??1_Fac_tidy_reg_t@std@@QAE@XZ 10040796 f i msvcprt:locale0_implib.obj
 0001:0003f7b1       ??_G_Fac_node@std@@QAEPAXI@Z 100407b1 f i msvcprt:locale0_implib.obj
 0001:0003f7e2       ?_Facet_Register@std@@YAXPAV_Facet_base@1@@Z 100407e2 f   msvcprt:locale0_implib.obj
 0001:0003f810       ?__empty_global_delete@@YAXPAXI@Z 10040810 f i msvcprt:locale0_implib.obj
 0001:0003f810       ?__global_delete@@YAXPAXI@Z 10040810 f i msvcprt:locale0_implib.obj
 0001:0003f810       @_guard_check_icall_nop@4  10040810 f i MSVCRT:guard_support.obj
 0001:0003f813       __Mbrtowc                  10040813 f   msvcprt:MSVCP140.dll
 0001:0003f819       ?_Init@locale@std@@CAPAV_Locimp@12@_N@Z 10040819 f   msvcprt:MSVCP140.dll
 0001:0003f81f       ?_Getgloballocale@locale@std@@CAPAV_Locimp@12@XZ 1004081f f   msvcprt:MSVCP140.dll
 0001:0003f825       ___std_get_cvt@8           10040825 f   msvcprt:format.obj
 0001:0003f924       ?_Incref@facet@locale@std@@UAEXXZ 10040924 f   msvcprt:MSVCP140.dll
 0001:0003f92a       ?_Decref@facet@locale@std@@UAEPAV_Facet_base@3@XZ 1004092a f   msvcprt:MSVCP140.dll
 0001:0003f930       ?uncaught_exceptions@std@@YAHXZ 10040930 f   msvcprt:MSVCP140.dll
 0001:0003f936       ?_Fiopen@std@@YAPAU_iobuf@@PBDHH@Z 10040936 f   msvcprt:MSVCP140.dll
 0001:0003f93c       ?showmanyc@?$basic_streambuf@DU?$char_traits@D@std@@@std@@MAE_JXZ 1004093c f   msvcprt:MSVCP140.dll
 0001:0003f942       ??2@YAPAXI@Z               10040942 f   MSVCRT:new_scalar.obj
 0001:0003f972       ??3@YAXPAX@Z               10040972 f   MSVCRT:delete_scalar.obj
 0001:0003f977       ??3@YAXPAXI@Z              10040977 f   MSVCRT:delete_scalar_size.obj
 0001:0003f9c7       ___scrt_acquire_startup_lock 100409c7 f   MSVCRT:utility.obj
 0001:0003f9f9       ___scrt_dllmain_after_initialize_c 100409f9 f   MSVCRT:utility.obj
 0001:0003fa24       ___scrt_dllmain_before_initialize_c 10040a24 f   MSVCRT:utility.obj
 0001:0003fa32       ___scrt_dllmain_crt_thread_attach 10040a32 f   MSVCRT:utility.obj
 0001:0003fa51       ___scrt_dllmain_crt_thread_detach 10040a51 f   MSVCRT:utility.obj
 0001:0003fa5e       ___scrt_dllmain_exception_filter 10040a5e f   MSVCRT:utility.obj
 0001:0003fa92       ___scrt_dllmain_uninitialize_c 10040a92 f   MSVCRT:utility.obj
 0001:0003fab5       ___scrt_dllmain_uninitialize_critical 10040ab5 f   MSVCRT:utility.obj
 0001:0003fac2       ___scrt_initialize_crt     10040ac2 f   MSVCRT:utility.obj
 0001:0003fafb       ___scrt_initialize_onexit_tables 10040afb f   MSVCRT:utility.obj
 0001:0003fb82       ___scrt_is_nonwritable_in_current_image 10040b82 f   MSVCRT:utility.obj
 0001:0003fc19       ___scrt_release_startup_lock 10040c19 f   MSVCRT:utility.obj
 0001:0003fc36       ___scrt_uninitialize_crt   10040c36 f   MSVCRT:utility.obj
 0001:0003fc5e       __onexit                   10040c5e f   MSVCRT:utility.obj
 0001:0003fc8c       _atexit                    10040c8c f   MSVCRT:utility.obj
 0001:0003fca1       __Init_thread_abort        10040ca1 f   MSVCRT:thread_safe_statics.obj
 0001:0003fccf       __Init_thread_footer       10040ccf f   MSVCRT:thread_safe_statics.obj
 0001:0003fd20       __Init_thread_header       10040d20 f   MSVCRT:thread_safe_statics.obj
 0001:0003fd72       __Init_thread_wait_v2      10040d72 f   MSVCRT:thread_safe_statics.obj
 0001:0003fd87       @__security_check_cookie@4 10040d87 f   MSVCRT:secchk.obj
 0001:0003fda0       __ftol3                    10040da0 f   MSVCRT:ftol3.obj
 0001:0003fe09       ??_Etype_info@@UAEPAXI@Z   10040e09 f i MSVCRT:std_type_info_static.obj
 0001:0003fe09       ??_Gtype_info@@UAEPAXI@Z   10040e09 f i MSVCRT:std_type_info_static.obj
 0001:0003fe2c       ___raise_securityfailure   10040e2c f   MSVCRT:gs_report.obj
 0001:0003fe54       ___report_gsfailure        10040e54 f   MSVCRT:gs_report.obj
 0001:0003ff4f       ___report_rangecheckfailure 10040f4f f   MSVCRT:gs_report.obj
 0001:0003ff5e       ___report_securityfailure  10040f5e f   MSVCRT:gs_report.obj
 0001:00040030       __alloca_probe             10041030 f   MSVCRT:chkstk.obj
 0001:00040030       __chkstk                   10041030 f   MSVCRT:chkstk.obj
 0001:0004005b       ??_M@YGXPAXIIP6EX0@Z@Z     1004105b f   MSVCRT:ehvecdtr.obj
 0001:000400e3       ?__ArrayUnwind@@YGXPAXIIP6EX0@Z@Z 100410e3 f   MSVCRT:ehvecdtr.obj
 0001:00040173       __except_handler4          10041173 f   MSVCRT:chandler4gs.obj
 0001:000401a2       ??_L@YGXPAXIIP6EX0@Z1@Z    100411a2 f   MSVCRT:ehvecctr.obj
 0001:00040220       __ftol2_sse                10041220 f   MSVCRT:ftol2.obj
 0001:00040230       __ftoi2                    10041230 f   MSVCRT:ftol2.obj
 0001:000402ac       ??_U@YAPAXI@Z              100412ac f   MSVCRT:new_array.obj
 0001:000402b5       ??_V@YAXPAX@Z              100412b5 f   MSVCRT:delete_array.obj
 0001:000402c0       __alldiv                   100412c0 f   MSVCRT:lldiv.obj
 0001:00040370       __allmul                   10041370 f   MSVCRT:llmul.obj
 0001:000403b0       __allrem                   100413b0 f   MSVCRT:llrem.obj
 0001:00040470       __allshl                   10041470 f   MSVCRT:llshl.obj
 0001:00040490       __aulldiv                  10041490 f   MSVCRT:ulldiv.obj
 0001:00040500       __aullrem                  10041500 f   MSVCRT:ullrem.obj
 0001:00040580       __aullshr                  10041580 f   MSVCRT:ullshr.obj
 0001:000408ec       __DllMainCRTStartup@12     100418ec f   MSVCRT:dll_dllmain.obj
 0001:0004090f       ___isa_available_init      1004190f f   MSVCRT:cpu_disp.obj
 0001:00040c29       ??0bad_alloc@std@@QAE@XZ   10041c29 f i MSVCRT:throw_bad_alloc.obj
 0001:00040c47       ?__scrt_throw_std_bad_alloc@@YAXXZ 10041c47 f   MSVCRT:throw_bad_alloc.obj
 0001:00040c64       ?__scrt_throw_std_bad_array_new_length@@YAXXZ 10041c64 f   MSVCRT:throw_bad_alloc.obj
 0001:00040c81       __get_startup_argv_mode    10041c81 f   MSVCRT:argv_mode.obj
 0001:00040c85       ___scrt_is_ucrt_dll_in_use 10041c85 f   MSVCRT:ucrt_detection.obj
 0001:00040c91       ___scrt_fastfail           10041c91 f   MSVCRT:utility_desktop.obj
 0001:00040da6       __crt_debugger_hook        10041da6 f   MSVCRT:utility_desktop.obj
 0001:00040dc0       __SEH_prolog4              10041dc0 f   MSVCRT:sehprolg4.obj
 0001:00040e52       ___security_init_cookie    10041e52 f   MSVCRT:gs_support.obj
 0001:00040e9d       ?__scrt_initialize_type_info@@YAXXZ 10041e9d f   MSVCRT:tncleanup.obj
 0001:00040ea9       ?__scrt_uninitialize_type_info@@YAXXZ 10041ea9 f   MSVCRT:tncleanup.obj
 0001:00040eb5       ___local_stdio_scanf_options 10041eb5 f i MSVCRT:default_local_stdio_options.obj
 0001:00040ebb       ___scrt_initialize_default_local_stdio_options 10041ebb f   MSVCRT:default_local_stdio_options.obj
 0001:00040ed8       ___scrt_get_dyn_tls_init_callback 10041ed8 f   MSVCRT:dyn_tls_init.obj
 0001:00040ede       __RTC_Initialize           10041ede f   MSVCRT:initsect.obj
 0001:00040f0a       __RTC_Terminate            10041f0a f   MSVCRT:initsect.obj
 0001:00040f36       ___std_exception_copy      10041f36 f   vcruntime:VCRUNTIME140.dll
 0001:00040f3c       ___std_exception_destroy   10041f3c f   vcruntime:VCRUNTIME140.dll
 0001:00040f42       __CxxThrowException@8      10041f42 f   vcruntime:VCRUNTIME140.dll
 0001:00040f48       ___CxxFrameHandler3        10041f48 f   vcruntime:VCRUNTIME140.dll
 0001:00040f4e       _memcmp                    10041f4e f   vcruntime:VCRUNTIME140.dll
 0001:00040f54       _memcpy                    10041f54 f   vcruntime:VCRUNTIME140.dll
 0001:00040f5a       _memset                    10041f5a f   vcruntime:VCRUNTIME140.dll
 0001:00040f60       _memmove                   10041f60 f   vcruntime:VCRUNTIME140.dll
 0001:00040f66       __purecall                 10041f66 f   vcruntime:VCRUNTIME140.dll
 0001:00040f6c       _strstr                    10041f6c f   vcruntime:VCRUNTIME140.dll
 0001:00040f72       ___current_exception       10041f72 f   vcruntime:VCRUNTIME140.dll
 0001:00040f78       ___current_exception_context 10041f78 f   vcruntime:VCRUNTIME140.dll
 0001:00040f7e       __except_handler4_common   10041f7e f   vcruntime:VCRUNTIME140.dll
 0001:00040f84       ___std_type_info_destroy_list 10041f84 f   vcruntime:VCRUNTIME140.dll
 0001:00040f8a       _ceil                      10041f8a f   ucrt:api-ms-win-crt-math-l1-1-0.dll
 0001:00040f90       __libm_sse2_cos_precise    10041f90 f   ucrt:api-ms-win-crt-math-l1-1-0.dll
 0001:00040f96       __libm_sse2_sin_precise    10041f96 f   ucrt:api-ms-win-crt-math-l1-1-0.dll
 0001:00040f9c       __libm_sse2_sqrt_precise   10041f9c f   ucrt:api-ms-win-crt-math-l1-1-0.dll
 0001:00040fa2       __libm_sse2_tan_precise    10041fa2 f   ucrt:api-ms-win-crt-math-l1-1-0.dll
 0001:00040fa8       __libm_sse2_pow_precise    10041fa8 f   ucrt:api-ms-win-crt-math-l1-1-0.dll
 0001:00040fae       _free                      10041fae f   ucrt:api-ms-win-crt-heap-l1-1-0.dll
 0001:00040fb4       __dclass                   10041fb4 f   ucrt:api-ms-win-crt-math-l1-1-0.dll
 0001:00040fba       __fdclass                  10041fba f   ucrt:api-ms-win-crt-math-l1-1-0.dll
 0001:00040fc0       __ldclass                  10041fc0 f   ucrt:api-ms-win-crt-math-l1-1-0.dll
 0001:00040fc6       __CIfmod                   10041fc6 f   ucrt:api-ms-win-crt-math-l1-1-0.dll
 0001:00040fcc       __CIatan2                  10041fcc f   ucrt:api-ms-win-crt-math-l1-1-0.dll
 0001:00040fd2       __libm_sse2_atan_precise   10041fd2 f   ucrt:api-ms-win-crt-math-l1-1-0.dll
 0001:00040fd8       _roundf                    10041fd8 f   ucrt:api-ms-win-crt-math-l1-1-0.dll
 0001:00040fde       _malloc                    10041fde f   ucrt:api-ms-win-crt-heap-l1-1-0.dll
 0001:00040fe4       __callnewh                 10041fe4 f   ucrt:api-ms-win-crt-heap-l1-1-0.dll
 0001:00040fea       __seh_filter_dll           10041fea f   ucrt:api-ms-win-crt-runtime-l1-1-0.dll
 0001:00040ff0       __configure_narrow_argv    10041ff0 f   ucrt:api-ms-win-crt-runtime-l1-1-0.dll
 0001:00040ff6       __initialize_narrow_environment 10041ff6 f   ucrt:api-ms-win-crt-runtime-l1-1-0.dll
 0001:00040ffe       __initialize_onexit_table  10041ffe f   ucrt:api-ms-win-crt-runtime-l1-1-0.dll
 0001:00041004       __register_onexit_function 10042004 f   ucrt:api-ms-win-crt-runtime-l1-1-0.dll
 0001:0004100a       __execute_onexit_table     1004200a f   ucrt:api-ms-win-crt-runtime-l1-1-0.dll
 0001:00041010       __crt_atexit               10042010 f   ucrt:api-ms-win-crt-runtime-l1-1-0.dll
 0001:00041016       __cexit                    10042016 f   ucrt:api-ms-win-crt-runtime-l1-1-0.dll
 0001:0004101c       _terminate                 1004201c f   ucrt:api-ms-win-crt-runtime-l1-1-0.dll
 0001:00041022       __initterm                 10042022 f   ucrt:api-ms-win-crt-runtime-l1-1-0.dll
 0001:00041028       __initterm_e               10042028 f   ucrt:api-ms-win-crt-runtime-l1-1-0.dll
 0001:0004102e       ___acrt_initialize         1004202e f   MSVCRT:ucrt_stubs.obj
 0001:0004102e       ___acrt_thread_attach      1004202e f   MSVCRT:ucrt_stubs.obj
 0001:0004102e       ___acrt_thread_detach      1004202e f   MSVCRT:ucrt_stubs.obj
 0001:0004102e       ___acrt_uninitialize       1004202e f   MSVCRT:ucrt_stubs.obj
 0001:0004102e       ___acrt_uninitialize_critical 1004202e f   MSVCRT:ucrt_stubs.obj
 0001:0004102e       ___scrt_stub_for_acrt_initialize 1004202e f   MSVCRT:ucrt_stubs.obj
 0001:0004102e       ___scrt_stub_for_acrt_thread_attach 1004202e f   MSVCRT:ucrt_stubs.obj
 0001:0004102e       ___scrt_stub_for_acrt_thread_detach 1004202e f   MSVCRT:ucrt_stubs.obj
 0001:0004102e       ___scrt_stub_for_acrt_uninitialize 1004202e f   MSVCRT:ucrt_stubs.obj
 0001:0004102e       ___scrt_stub_for_acrt_uninitialize_critical 1004202e f   MSVCRT:ucrt_stubs.obj
 0001:0004102e       ___vcrt_initialize         1004202e f   MSVCRT:ucrt_stubs.obj
 0001:0004102e       ___vcrt_thread_attach      1004202e f   MSVCRT:ucrt_stubs.obj
 0001:0004102e       ___vcrt_thread_detach      1004202e f   MSVCRT:ucrt_stubs.obj
 0001:0004102e       ___vcrt_uninitialize       1004202e f   MSVCRT:ucrt_stubs.obj
 0001:0004102e       ___vcrt_uninitialize_critical 1004202e f   MSVCRT:ucrt_stubs.obj
 0001:00041031       ___scrt_stub_for_is_c_termination_complete 10042031 f   MSVCRT:ucrt_stubs.obj
 0001:00041031       __is_c_termination_complete 10042031 f   MSVCRT:ucrt_stubs.obj
 0001:00041034       __filter_x86_sse2_floating_point_exception 10042034 f   MSVCRT:x86_exception_filter.obj
 0001:00041034       __filter_x86_sse2_floating_point_exception_default 10042034 f   MSVCRT:x86_exception_filter.obj
 0002:00000000       __imp__GetCurrentProcess@0 10044000     kernel32:KERNEL32.dll
 0002:00000004       __imp__GetModuleHandleA@4  10044004     kernel32:KERNEL32.dll
 0002:00000008       __imp__K32GetModuleInformation@16 10044008     kernel32:KERNEL32.dll
 0002:0000000c       __imp__VirtualProtect@16   1004400c     kernel32:KERNEL32.dll
 0002:00000010       __imp__GetProcAddress@8    10044010     kernel32:KERNEL32.dll
 0002:00000014       __imp__CloseHandle@4       10044014     kernel32:KERNEL32.dll
 0002:00000018       __imp__CreateThread@24     10044018     kernel32:KERNEL32.dll
 0002:0000001c       __imp__DisableThreadLibraryCalls@4 1004401c     kernel32:KERNEL32.dll
 0002:00000020       __imp__FreeLibraryAndExitThread@8 10044020     kernel32:KERNEL32.dll
 0002:00000024       __imp__CreateDirectoryA@8  10044024     kernel32:KERNEL32.dll
 0002:00000028       __imp__GetPrivateProfileStringA@24 10044028     kernel32:KERNEL32.dll
 0002:0000002c       __imp__WritePrivateProfileStringA@16 1004402c     kernel32:KERNEL32.dll
 0002:00000030       __imp__Sleep@4             10044030     kernel32:KERNEL32.dll
 0002:00000034       __imp__GetSystemTimeAsFileTime@4 10044034     kernel32:KERNEL32.dll
 0002:00000038       __imp__GetCurrentProcessId@0 10044038     kernel32:KERNEL32.dll
 0002:0000003c       __imp__QueryPerformanceCounter@4 1004403c     kernel32:KERNEL32.dll
 0002:00000040       __imp__IsDebuggerPresent@0 10044040     kernel32:KERNEL32.dll
 0002:00000044       __imp__IsProcessorFeaturePresent@4 10044044     kernel32:KERNEL32.dll
 0002:00000048       __imp__TerminateProcess@8  10044048     kernel32:KERNEL32.dll
 0002:0000004c       __imp__SetUnhandledExceptionFilter@4 1004404c     kernel32:KERNEL32.dll
 0002:00000050       __imp__UnhandledExceptionFilter@4 10044050     kernel32:KERNEL32.dll
 0002:00000054       __imp__WakeAllConditionVariable@4 10044054     kernel32:KERNEL32.dll
 0002:00000058       __imp__GetCPInfoExW@12     10044058     kernel32:KERNEL32.dll
 0002:0000005c       __imp__GetLastError@0      1004405c     kernel32:KERNEL32.dll
 0002:00000060       __imp__InitOnceComplete@12 10044060     kernel32:KERNEL32.dll
 0002:00000060       __imp____std_init_once_complete@12 10044060     kernel32:KERNEL32.dll
 0002:00000064       __imp__InitOnceBeginInitialize@16 10044064     kernel32:KERNEL32.dll
 0002:00000064       __imp____std_init_once_begin_initialize@16 10044064     kernel32:KERNEL32.dll
 0002:00000068       __imp__GetCurrentThreadId@0 10044068     kernel32:KERNEL32.dll
 0002:0000006c       __imp__SleepConditionVariableSRW@16 1004406c     kernel32:KERNEL32.dll
 0002:00000070       __imp__AcquireSRWLockExclusive@4 10044070     kernel32:KERNEL32.dll
 0002:00000074       __imp__ReleaseSRWLockExclusive@4 10044074     kernel32:KERNEL32.dll
 0002:00000078       __imp__InitializeSListHead@4 10044078     kernel32:KERNEL32.dll
 0002:0000007c       \177KERNEL32_NULL_THUNK_DATA 1004407c     kernel32:KERNEL32.dll
 0002:00000080       __imp_?_Getfalse@_Locinfo@std@@QBEPBDXZ 10044080     msvcprt:MSVCP140.dll
 0002:00000084       __imp_?_Gettrue@_Locinfo@std@@QBEPBDXZ 10044084     msvcprt:MSVCP140.dll
 0002:00000088       __imp_?c_str@?$_Yarn@D@std@@QBEPBDXZ 10044088     msvcprt:MSVCP140.dll
 0002:0000008c       __imp_??0facet@locale@std@@IAE@I@Z 1004408c     msvcprt:MSVCP140.dll
 0002:00000090       __imp_??1facet@locale@std@@MAE@XZ 10044090     msvcprt:MSVCP140.dll
 0002:00000094       __imp_?_Init@locale@std@@CAPAV_Locimp@12@_N@Z 10044094     msvcprt:MSVCP140.dll
 0002:00000098       __imp_?_Getgloballocale@locale@std@@CAPAV_Locimp@12@XZ 10044098     msvcprt:MSVCP140.dll
 0002:0000009c       __imp_?_Incref@facet@locale@std@@UAEXXZ 1004409c     msvcprt:MSVCP140.dll
 0002:000000a0       __imp_?_Decref@facet@locale@std@@UAEPAV_Facet_base@3@XZ 100440a0     msvcprt:MSVCP140.dll
 0002:000000a4       __imp_?_Id_cnt@id@locale@std@@0HA 100440a4     msvcprt:MSVCP140.dll
 0002:000000a8       __imp_?id@?$numpunct@D@std@@2V0locale@2@A 100440a8     msvcprt:MSVCP140.dll
 0002:000000ac       __imp_?uncaught_exceptions@std@@YAHXZ 100440ac     msvcprt:MSVCP140.dll
 0002:000000b0       __imp_?always_noconv@codecvt_base@std@@QBE_NXZ 100440b0     msvcprt:MSVCP140.dll
 0002:000000b4       __imp_?in@?$codecvt@DDU_Mbstatet@@@std@@QBEHAAU_Mbstatet@@PBD1AAPBDPAD3AAPAD@Z 100440b4     msvcprt:MSVCP140.dll
 0002:000000b8       __imp_?out@?$codecvt@DDU_Mbstatet@@@std@@QBEHAAU_Mbstatet@@PBD1AAPBDPAD3AAPAD@Z 100440b8     msvcprt:MSVCP140.dll
 0002:000000bc       __imp_?unshift@?$codecvt@DDU_Mbstatet@@@std@@QBEHAAU_Mbstatet@@PAD1AAPAD@Z 100440bc     msvcprt:MSVCP140.dll
 0002:000000c0       __imp_?_Getcat@?$codecvt@DDU_Mbstatet@@@std@@SAIPAPBVfacet@locale@2@PBV42@@Z 100440c0     msvcprt:MSVCP140.dll
 0002:000000c4       __imp_?good@ios_base@std@@QBE_NXZ 100440c4     msvcprt:MSVCP140.dll
 0002:000000c8       __imp_?flags@ios_base@std@@QBEHXZ 100440c8     msvcprt:MSVCP140.dll
 0002:000000cc       __imp_?width@ios_base@std@@QBE_JXZ 100440cc     msvcprt:MSVCP140.dll
 0002:000000d0       __imp_?width@ios_base@std@@QAE_J_J@Z 100440d0     msvcprt:MSVCP140.dll
 0002:000000d4       __imp_??0?$basic_streambuf@DU?$char_traits@D@std@@@std@@IAE@XZ 100440d4     msvcprt:MSVCP140.dll
 0002:000000d8       __imp_??1?$basic_streambuf@DU?$char_traits@D@std@@@std@@UAE@XZ 100440d8     msvcprt:MSVCP140.dll
 0002:000000dc       __imp_?getloc@?$basic_streambuf@DU?$char_traits@D@std@@@std@@QBE?AVlocale@2@XZ 100440dc     msvcprt:MSVCP140.dll
 0002:000000e0       __imp_?sputc@?$basic_streambuf@DU?$char_traits@D@std@@@std@@QAEHD@Z 100440e0     msvcprt:MSVCP140.dll
 0002:000000e4       __imp_?sputn@?$basic_streambuf@DU?$char_traits@D@std@@@std@@QAE_JPBD_J@Z 100440e4     msvcprt:MSVCP140.dll
 0002:000000e8       __imp_?eback@?$basic_streambuf@DU?$char_traits@D@std@@@std@@IBEPADXZ 100440e8     msvcprt:MSVCP140.dll
 0002:000000ec       __imp_?gptr@?$basic_streambuf@DU?$char_traits@D@std@@@std@@IBEPADXZ 100440ec     msvcprt:MSVCP140.dll
 0002:000000f0       __imp_?pptr@?$basic_streambuf@DU?$char_traits@D@std@@@std@@IBEPADXZ 100440f0     msvcprt:MSVCP140.dll
 0002:000000f4       __imp_?egptr@?$basic_streambuf@DU?$char_traits@D@std@@@std@@IBEPADXZ 100440f4     msvcprt:MSVCP140.dll
 0002:000000f8       __imp_?gbump@?$basic_streambuf@DU?$char_traits@D@std@@@std@@IAEXH@Z 100440f8     msvcprt:MSVCP140.dll
 0002:000000fc       __imp_?setg@?$basic_streambuf@DU?$char_traits@D@std@@@std@@IAEXPAD00@Z 100440fc     msvcprt:MSVCP140.dll
 0002:00000100       __imp_?epptr@?$basic_streambuf@DU?$char_traits@D@std@@@std@@IBEPADXZ 10044100     msvcprt:MSVCP140.dll
 0002:00000104       __imp_?_Gndec@?$basic_streambuf@DU?$char_traits@D@std@@@std@@IAEPADXZ 10044104     msvcprt:MSVCP140.dll
 0002:00000108       __imp_?_Gninc@?$basic_streambuf@DU?$char_traits@D@std@@@std@@IAEPADXZ 10044108     msvcprt:MSVCP140.dll
 0002:0000010c       __imp_?_Gnavail@?$basic_streambuf@DU?$char_traits@D@std@@@std@@IBE_JXZ 1004410c     msvcprt:MSVCP140.dll
 0002:00000110       __imp_?pbump@?$basic_streambuf@DU?$char_traits@D@std@@@std@@IAEXH@Z 10044110     msvcprt:MSVCP140.dll
 0002:00000114       __imp_?_Pninc@?$basic_streambuf@DU?$char_traits@D@std@@@std@@IAEPADXZ 10044114     msvcprt:MSVCP140.dll
 0002:00000118       __imp_?_Pnavail@?$basic_streambuf@DU?$char_traits@D@std@@@std@@IBE_JXZ 10044118     msvcprt:MSVCP140.dll
 0002:0000011c       __imp_?_Init@?$basic_streambuf@DU?$char_traits@D@std@@@std@@IAEXXZ 1004411c     msvcprt:MSVCP140.dll
 0002:00000120       __imp_?_Init@?$basic_streambuf@DU?$char_traits@D@std@@@std@@IAEXPAPAD0PAH001@Z 10044120     msvcprt:MSVCP140.dll
 0002:00000124       __imp_?xsgetn@?$basic_streambuf@DU?$char_traits@D@std@@@std@@MAE_JPAD_J@Z 10044124     msvcprt:MSVCP140.dll
 0002:00000128       __imp_?xsputn@?$basic_streambuf@DU?$char_traits@D@std@@@std@@MAE_JPBD_J@Z 10044128     msvcprt:MSVCP140.dll
 0002:0000012c       __imp_??1?$basic_ios@DU?$char_traits@D@std@@@std@@UAE@XZ 1004412c     msvcprt:MSVCP140.dll
 0002:00000130       __imp_?setstate@?$basic_ios@DU?$char_traits@D@std@@@std@@QAEXH_N@Z 10044130     msvcprt:MSVCP140.dll
 0002:00000134       __imp_?tie@?$basic_ios@DU?$char_traits@D@std@@@std@@QBEPAV?$basic_ostream@DU?$char_traits@D@std@@@2@XZ 10044134     msvcprt:MSVCP140.dll
 0002:00000138       __imp_?rdbuf@?$basic_ios@DU?$char_traits@D@std@@@std@@QBEPAV?$basic_streambuf@DU?$char_traits@D@std@@@2@XZ 10044138     msvcprt:MSVCP140.dll
 0002:0000013c       __imp_?fill@?$basic_ios@DU?$char_traits@D@std@@@std@@QBEDXZ 1004413c     msvcprt:MSVCP140.dll
 0002:00000140       __imp_??0?$basic_ios@DU?$char_traits@D@std@@@std@@IAE@XZ 10044140     msvcprt:MSVCP140.dll
 0002:00000144       __imp_??0?$basic_ostream@DU?$char_traits@D@std@@@std@@QAE@PAV?$basic_streambuf@DU?$char_traits@D@std@@@1@_N@Z 10044144     msvcprt:MSVCP140.dll
 0002:00000148       __imp_??1?$basic_ostream@DU?$char_traits@D@std@@@std@@UAE@XZ 10044148     msvcprt:MSVCP140.dll
 0002:0000014c       __imp_?_Osfx@?$basic_ostream@DU?$char_traits@D@std@@@std@@QAEXXZ 1004414c     msvcprt:MSVCP140.dll
 0002:00000150       __imp_?flush@?$basic_ostream@DU?$char_traits@D@std@@@std@@QAEAAV12@XZ 10044150     msvcprt:MSVCP140.dll
 0002:00000154       __imp_?_Fiopen@std@@YAPAU_iobuf@@PBDHH@Z 10044154     msvcprt:MSVCP140.dll
 0002:00000158       __imp_?showmanyc@?$basic_streambuf@DU?$char_traits@D@std@@@std@@MAE_JXZ 10044158     msvcprt:MSVCP140.dll
 0002:0000015c       __imp_?id@?$codecvt@DDU_Mbstatet@@@std@@2V0locale@2@A 1004415c     msvcprt:MSVCP140.dll
 0002:00000160       __imp___Mbrtowc            10044160     msvcprt:MSVCP140.dll
 0002:00000164       __imp___Query_perf_frequency 10044164     msvcprt:MSVCP140.dll
 0002:00000168       __imp___Query_perf_counter 10044168     msvcprt:MSVCP140.dll
 0002:0000016c       __imp_??1_Lockit@std@@QAE@XZ 1004416c     msvcprt:MSVCP140.dll
 0002:00000170       __imp_??0_Lockit@std@@QAE@H@Z 10044170     msvcprt:MSVCP140.dll
 0002:00000174       __imp_?_Xout_of_range@std@@YAXPBD@Z 10044174     msvcprt:MSVCP140.dll
 0002:00000178       __imp_??1_Locinfo@std@@QAE@XZ 10044178     msvcprt:MSVCP140.dll
 0002:0000017c       __imp_?_Getcvt@_Locinfo@std@@QBE?AU_Cvtvec@@XZ 1004417c     msvcprt:MSVCP140.dll
 0002:00000180       __imp_?_Xlength_error@std@@YAXPBD@Z 10044180     msvcprt:MSVCP140.dll
 0002:00000184       __imp_?_Xbad_alloc@std@@YAXXZ 10044184     msvcprt:MSVCP140.dll
 0002:00000188       __imp_?_Getlconv@_Locinfo@std@@QBEPBUlconv@@XZ 10044188     msvcprt:MSVCP140.dll
 0002:0000018c       __imp_??0_Locinfo@std@@QAE@PBD@Z 1004418c     msvcprt:MSVCP140.dll
 0002:00000190       \177MSVCP140_NULL_THUNK_DATA 10044190     msvcprt:MSVCP140.dll
 0002:00000194       __imp__SHGetFolderPathA@20 10044194     shell32:SHELL32.dll
 0002:00000198       \177SHELL32_NULL_THUNK_DATA 10044198     shell32:SHELL32.dll
 0002:0000019c       __imp__MessageBoxA@16      1004419c     user32:USER32.dll
 0002:000001a0       __imp__GetAsyncKeyState@4  100441a0     user32:USER32.dll
 0002:000001a4       __imp__CallWindowProcA@20  100441a4     user32:USER32.dll
 0002:000001a8       __imp__GetKeyState@4       100441a8     user32:USER32.dll
 0002:000001ac       __imp__SetWindowLongA@12   100441ac     user32:USER32.dll
 0002:000001b0       __imp__FindWindowA@8       100441b0     user32:USER32.dll
 0002:000001b4       __imp__GetCursorPos@4      100441b4     user32:USER32.dll
 0002:000001b8       __imp__ScreenToClient@8    100441b8     user32:USER32.dll
 0002:000001bc       \177USER32_NULL_THUNK_DATA 100441bc     user32:USER32.dll
 0002:000001c0       __imp__memcpy              100441c0     vcruntime:VCRUNTIME140.dll
 0002:000001c4       __imp____std_type_info_destroy_list 100441c4     vcruntime:VCRUNTIME140.dll
 0002:000001c8       __imp____current_exception 100441c8     vcruntime:VCRUNTIME140.dll
 0002:000001cc       __imp__strstr              100441cc     vcruntime:VCRUNTIME140.dll
 0002:000001d0       __imp___purecall           100441d0     vcruntime:VCRUNTIME140.dll
 0002:000001d4       __imp__memmove             100441d4     vcruntime:VCRUNTIME140.dll
 0002:000001d8       __imp__memset              100441d8     vcruntime:VCRUNTIME140.dll
 0002:000001dc       __imp__memcmp              100441dc     vcruntime:VCRUNTIME140.dll
 0002:000001e0       __imp____CxxFrameHandler3  100441e0     vcruntime:VCRUNTIME140.dll
 0002:000001e4       __imp___CxxThrowException@8 100441e4     vcruntime:VCRUNTIME140.dll
 0002:000001e8       __imp____std_exception_destroy 100441e8     vcruntime:VCRUNTIME140.dll
 0002:000001ec       __imp____std_exception_copy 100441ec     vcruntime:VCRUNTIME140.dll
 0002:000001f0       __imp___except_handler4_common 100441f0     vcruntime:VCRUNTIME140.dll
 0002:000001f4       __imp____current_exception_context 100441f4     vcruntime:VCRUNTIME140.dll
 0002:000001f8       \177VCRUNTIME140_NULL_THUNK_DATA 100441f8     vcruntime:VCRUNTIME140.dll
 0002:000001fc       __imp__mbstowcs_s          100441fc     ucrt:api-ms-win-crt-convert-l1-1-0.dll
 0002:00000200       __imp__atof                10044200     ucrt:api-ms-win-crt-convert-l1-1-0.dll
 0002:00000204       __imp__atoi                10044204     ucrt:api-ms-win-crt-convert-l1-1-0.dll
 0002:00000208       \177api-ms-win-crt-convert-l1-1-0_NULL_THUNK_DATA 10044208     ucrt:api-ms-win-crt-convert-l1-1-0.dll
 0002:0000020c       __imp___unlock_file        1004420c     ucrt:api-ms-win-crt-filesystem-l1-1-0.dll
 0002:00000210       __imp___lock_file          10044210     ucrt:api-ms-win-crt-filesystem-l1-1-0.dll
 0002:00000214       \177api-ms-win-crt-filesystem-l1-1-0_NULL_THUNK_DATA 10044214     ucrt:api-ms-win-crt-filesystem-l1-1-0.dll
 0002:00000218       __imp__free                10044218     ucrt:api-ms-win-crt-heap-l1-1-0.dll
 0002:0000021c       __imp__calloc              1004421c     ucrt:api-ms-win-crt-heap-l1-1-0.dll
 0002:00000220       __imp___callnewh           10044220     ucrt:api-ms-win-crt-heap-l1-1-0.dll
 0002:00000224       __imp__malloc              10044224     ucrt:api-ms-win-crt-heap-l1-1-0.dll
 0002:00000228       \177api-ms-win-crt-heap-l1-1-0_NULL_THUNK_DATA 10044228     ucrt:api-ms-win-crt-heap-l1-1-0.dll
 0002:0000022c       __imp___libm_sse2_sin_precise 1004422c     ucrt:api-ms-win-crt-math-l1-1-0.dll
 0002:00000230       __imp___libm_sse2_cos_precise 10044230     ucrt:api-ms-win-crt-math-l1-1-0.dll
 0002:00000234       __imp___CIatan2            10044234     ucrt:api-ms-win-crt-math-l1-1-0.dll
 0002:00000238       __imp___libm_sse2_atan_precise 10044238     ucrt:api-ms-win-crt-math-l1-1-0.dll
 0002:0000023c       __imp__roundf              1004423c     ucrt:api-ms-win-crt-math-l1-1-0.dll
 0002:00000240       __imp___fdsign             10044240     ucrt:api-ms-win-crt-math-l1-1-0.dll
 0002:00000244       __imp___ldsign             10044244     ucrt:api-ms-win-crt-math-l1-1-0.dll
 0002:00000248       __imp___dclass             10044248     ucrt:api-ms-win-crt-math-l1-1-0.dll
 0002:0000024c       __imp___fdclass            1004424c     ucrt:api-ms-win-crt-math-l1-1-0.dll
 0002:00000250       __imp___ldclass            10044250     ucrt:api-ms-win-crt-math-l1-1-0.dll
 0002:00000254       __imp__fmaxf               10044254     ucrt:api-ms-win-crt-math-l1-1-0.dll
 0002:00000258       __imp___CIfmod             10044258     ucrt:api-ms-win-crt-math-l1-1-0.dll
 0002:0000025c       __imp__ceil                1004425c     ucrt:api-ms-win-crt-math-l1-1-0.dll
 0002:00000260       __imp___dsign              10044260     ucrt:api-ms-win-crt-math-l1-1-0.dll
 0002:00000264       __imp___libm_sse2_tan_precise 10044264     ucrt:api-ms-win-crt-math-l1-1-0.dll
 0002:00000268       __imp___libm_sse2_sqrt_precise 10044268     ucrt:api-ms-win-crt-math-l1-1-0.dll
 0002:0000026c       __imp___libm_sse2_pow_precise 1004426c     ucrt:api-ms-win-crt-math-l1-1-0.dll
 0002:00000270       \177api-ms-win-crt-math-l1-1-0_NULL_THUNK_DATA 10044270     ucrt:api-ms-win-crt-math-l1-1-0.dll
 0002:00000274       __imp__terminate           10044274     ucrt:api-ms-win-crt-runtime-l1-1-0.dll
 0002:00000278       __imp___cexit              10044278     ucrt:api-ms-win-crt-runtime-l1-1-0.dll
 0002:0000027c       __imp___initterm_e         1004427c     ucrt:api-ms-win-crt-runtime-l1-1-0.dll
 0002:00000280       __imp___initterm           10044280     ucrt:api-ms-win-crt-runtime-l1-1-0.dll
 0002:00000284       __imp___invoke_watson      10044284     ucrt:api-ms-win-crt-runtime-l1-1-0.dll
 0002:00000288       __imp__abort               10044288     ucrt:api-ms-win-crt-runtime-l1-1-0.dll
 0002:0000028c       __imp___initialize_narrow_environment 1004428c     ucrt:api-ms-win-crt-runtime-l1-1-0.dll
 0002:00000290       __imp___crt_atexit         10044290     ucrt:api-ms-win-crt-runtime-l1-1-0.dll
 0002:00000294       __imp___execute_onexit_table 10044294     ucrt:api-ms-win-crt-runtime-l1-1-0.dll
 0002:00000298       __imp___register_onexit_function 10044298     ucrt:api-ms-win-crt-runtime-l1-1-0.dll
 0002:0000029c       __imp___seh_filter_dll     1004429c     ucrt:api-ms-win-crt-runtime-l1-1-0.dll
 0002:000002a0       __imp___initialize_onexit_table 100442a0     ucrt:api-ms-win-crt-runtime-l1-1-0.dll
 0002:000002a4       __imp___configure_narrow_argv 100442a4     ucrt:api-ms-win-crt-runtime-l1-1-0.dll
 0002:000002a8       \177api-ms-win-crt-runtime-l1-1-0_NULL_THUNK_DATA 100442a8     ucrt:api-ms-win-crt-runtime-l1-1-0.dll
 0002:000002ac       __imp____stdio_common_vsprintf_s 100442ac     ucrt:api-ms-win-crt-stdio-l1-1-0.dll
 0002:000002b0       __imp___get_stream_buffer_pointers 100442b0     ucrt:api-ms-win-crt-stdio-l1-1-0.dll
 0002:000002b4       __imp__fclose              100442b4     ucrt:api-ms-win-crt-stdio-l1-1-0.dll
 0002:000002b8       __imp__ungetc              100442b8     ucrt:api-ms-win-crt-stdio-l1-1-0.dll
 0002:000002bc       __imp__setvbuf             100442bc     ucrt:api-ms-win-crt-stdio-l1-1-0.dll
 0002:000002c0       __imp__fwrite              100442c0     ucrt:api-ms-win-crt-stdio-l1-1-0.dll
 0002:000002c4       __imp___fseeki64           100442c4     ucrt:api-ms-win-crt-stdio-l1-1-0.dll
 0002:000002c8       __imp____stdio_common_vsprintf 100442c8     ucrt:api-ms-win-crt-stdio-l1-1-0.dll
 0002:000002cc       __imp__fflush              100442cc     ucrt:api-ms-win-crt-stdio-l1-1-0.dll
 0002:000002d0       __imp__fsetpos             100442d0     ucrt:api-ms-win-crt-stdio-l1-1-0.dll
 0002:000002d4       __imp__fread               100442d4     ucrt:api-ms-win-crt-stdio-l1-1-0.dll
 0002:000002d8       __imp__fputc               100442d8     ucrt:api-ms-win-crt-stdio-l1-1-0.dll
 0002:000002dc       __imp__fgetpos             100442dc     ucrt:api-ms-win-crt-stdio-l1-1-0.dll
 0002:000002e0       __imp__fgetc               100442e0     ucrt:api-ms-win-crt-stdio-l1-1-0.dll
 0002:000002e4       \177api-ms-win-crt-stdio-l1-1-0_NULL_THUNK_DATA 100442e4     ucrt:api-ms-win-crt-stdio-l1-1-0.dll
 0002:000002e8       __imp__isdigit             100442e8     ucrt:api-ms-win-crt-string-l1-1-0.dll
 0002:000002ec       \177api-ms-win-crt-string-l1-1-0_NULL_THUNK_DATA 100442ec     ucrt:api-ms-win-crt-string-l1-1-0.dll
 0002:000002f0       ___guard_check_icall_fptr  100442f0     MSVCRT:guard_support.obj
 0002:000002f4       ___castguard_check_failure_os_handled_fptr 100442f4     MSVCRT:guard_support.obj
 0002:000002f8       ___xc_a                    100442f8     MSVCRT:initializers.obj
 0002:0000037c       ___xc_z                    1004437c     MSVCRT:initializers.obj
 0002:00000380       ___xi_a                    10044380     MSVCRT:initializers.obj
 0002:00000384       ___xi_z                    10044384     MSVCRT:initializers.obj
 0002:00000388       ___xl_a                    10044388     MSVCRT:tlssup.obj
 0002:0000038c       ___xl_z                    1004438c     MSVCRT:tlssup.obj
 0002:00000390       ___xp_a                    10044390     MSVCRT:initializers.obj
 0002:00000394       ___xp_z                    10044394     MSVCRT:initializers.obj
 0002:00000398       ___xt_a                    10044398     MSVCRT:initializers.obj
 0002:0000039c       ___xt_z                    1004439c     MSVCRT:initializers.obj
 0002:000006d2       ?piecewise_construct@std@@3Upiecewise_construct_t@1@B 100446d2     EnginePrediction.obj
 0002:000006d8       ??_7exception@std@@6B@     100446d8     EnginePrediction.obj
 0002:000006e0       ??_C@_0BC@EOODALEL@Unknown?5exception@ 100446e0     EnginePrediction.obj
 0002:000006f8       ??_7bad_alloc@std@@6B@     100446f8     EnginePrediction.obj
 0002:00000704       ??_7bad_array_new_length@std@@6B@ 10044704     EnginePrediction.obj
 0002:0000070c       ??_C@_0BF@KINCDENJ@bad?5array?5new?5length@ 1004470c     EnginePrediction.obj
 0002:00000724       ??_C@_0BA@JFNIOLAK@string?5too?5long@ 10044724     EnginePrediction.obj
 0002:00000734       ??_C@_07PENHCLKH@Antario@  10044734     EnginePrediction.obj
 0002:0000073c       ?_Min_buckets@?$_Hash@V?$_Umap_traits@V?$basic_string@DU?$char_traits@D@std@@V?$allocator@D@2@@std@@V?$shared_ptr@UNode@NetvarTree@@@2@V?$_Uhash_compare@V?$basic_string@DU?$char_traits@D@std@@V?$allocator@D@2@@std@@U?$hash@V?$basic_string@DU?$char_traits@D@std@@V?$allocator@D@2@@std@@@2@U?$equal_to@V?$basic_string@DU?$char_traits@D@std@@V?$allocator@D@2@@std@@@2@@2@V?$allocator@U?$pair@$$CBV?$basic_string@DU?$char_traits@D@std@@V?$allocator@D@2@@std@@V?$shared_ptr@UNode@NetvarTree@@@2@@std@@@2@$0A@@std@@@std@@2IB 1004473c     EnginePrediction.obj
 0002:00000740       ??_C@_0BA@MIGFFMNM@m_hActiveWeapon@ 10044740     EnginePrediction.obj
 0002:00000750       ??_C@_0BH@EFEKCINC@DT_BaseCombatCharacter@ 10044750     EnginePrediction.obj
 0002:00000768       ??_C@_0O@KNDKHNCF@DT_BasePlayer@ 10044768     EnginePrediction.obj
 0002:00000778       ??_C@_0M@GDCAJHLF@m_lifeState@ 10044778     EnginePrediction.obj
 0002:00000784       ??_C@_09FOIALPOM@m_iHealth@ 10044784     EnginePrediction.obj
 0002:00000790       ??_C@_0M@MBFMJJPI@m_nTickBase@ 10044790     EnginePrediction.obj
 0002:0000079c       ??_C@_09JINBMJKL@localdata@ 1004479c     EnginePrediction.obj
 0002:000007a8       ??_C@_0BE@HFJPMIJB@m_hConstraintEntity@ 100447a8     EnginePrediction.obj
 0002:000007bc       ??_C@_0BL@GOIGLPKN@unordered_map?1set?5too?5long@ 100447bc     EnginePrediction.obj
 0002:000007d8       ??_C@_0BK@OGNNAFAB@invalid?5hash?5bucket?5count@ 100447d8     EnginePrediction.obj
 0002:000007f4       __real@3f800000            100447f4     EnginePrediction.obj
 0002:00000800       __xmm@41f00000000000000000000000000000 10044800     EnginePrediction.obj
 0002:00000b24       ??_C@_0O@NDBNDAKG@DT_BaseEntity@ 10044b24     Aimbot.obj
 0002:00000b34       ??_C@_0L@OEKNBODE@m_iTeamNum@ 10044b34     Aimbot.obj
 0002:00000b40       ??_C@_08JPGJABNM@m_fFlags@ 10044b40     Aimbot.obj
 0002:00000b4c       ??_C@_0BD@IDNCLOOB@m_flSimulationTime@ 10044b4c     Aimbot.obj
 0002:00000b60       ??_C@_0M@LGBCIIFJ@DT_CSPlayer@ 10044b60     Aimbot.obj
 0002:00000b6c       ??_C@_0P@PAJMEMKA@m_angEyeAngles@ 10044b6c     Aimbot.obj
 0002:00000b7c       ??_C@_0M@BAFECOKC@m_vecOrigin@ 10044b7c     Aimbot.obj
 0002:00000b88       ??_C@_0BB@CHJEEOLK@m_vecVelocity?$FL0?$FN@ 10044b88     Aimbot.obj
 0002:00000b9c       ??_C@_0BD@LCOIAPKE@m_fAccuracyPenalty@ 10044b9c     Aimbot.obj
 0002:00000bb0       ??_C@_0BA@GJLMCNFJ@DT_WeaponCSBase@ 10044bb0     Aimbot.obj
 0002:00000bc0       ??_C@_0BA@PHEHCCBG@m_fLastShotTime@ 10044bc0     Aimbot.obj
 0002:00000bd0       ??_C@_0BG@IBOJPCLN@m_flNextPrimaryAttack@ 10044bd0     Aimbot.obj
 0002:00000be8       ??_C@_0BG@JBGBGMFE@LocalActiveWeaponData@ 10044be8     Aimbot.obj
 0002:00000c00       ??_C@_0BE@OBECLDDP@DT_BaseCombatWeapon@ 10044c00     Aimbot.obj
 0002:00000c14       ??_C@_0BA@FOIKENOD@vector?5too?5long@ 10044c14     Aimbot.obj
 0002:00000c24       ??_C@_0BL@KOKKEGGO@invalid?5deque?$DMT?$DO?5subscript@ 10044c24     Aimbot.obj
 0002:00000c40       __real@00000000            10044c40     Aimbot.obj
 0002:00000c44       __real@34000000            10044c44     Aimbot.obj
 0002:00000c48       __real@3eae147b            10044c48     Aimbot.obj
 0002:00000c50       __real@3fe0000000000000    10044c50     Aimbot.obj
 0002:00000c58       __real@400921fb54442d18    10044c58     Aimbot.obj
 0002:00000c60       __real@400ccccd            10044c60     Aimbot.obj
 0002:00000c68       __real@4066800000000000    10044c68     Aimbot.obj
 0002:00000c70       __real@40a00000            10044c70     Aimbot.obj
 0002:00000c74       __real@40c90fdb            10044c74     Aimbot.obj
 0002:00000c78       __real@41200000            10044c78     Aimbot.obj
 0002:00000c7c       __real@41e80000            10044c7c     Aimbot.obj
 0002:00000c80       __real@41f00000            10044c80     Aimbot.obj
 0002:00000c84       __real@42c80000            10044c84     Aimbot.obj
 0002:00000c88       __real@43340000            10044c88     Aimbot.obj
 0002:00000c8c       __real@43570000            10044c8c     Aimbot.obj
 0002:00000c90       __real@43800000            10044c90     Aimbot.obj
 0002:00000c94       __real@43b20000            10044c94     Aimbot.obj
 0002:00000c98       __real@43c80000            10044c98     Aimbot.obj
 0002:00000c9c       __real@453b8000            10044c9c     Aimbot.obj
 0002:00000ca0       __real@47c35000            10044ca0     Aimbot.obj
 0002:00000ca4       __real@49742400            10044ca4     Aimbot.obj
 0002:00000cb0       __xmm@7fffffffffffffff7fffffffffffffff 10044cb0     Aimbot.obj
 0002:00000cc0       __xmm@80000000800000008000000080000000 10044cc0     Aimbot.obj
 0002:00000f9c       ??_C@_0N@IIBEIILJ@m_ArmorValue@ 10044f9c     Autowall.obj
 0002:00000fac       ??_C@_0N@KELFAIEF@m_bHasHelmet@ 10044fac     Autowall.obj
 0002:00000fc0       ??_7ITraceFilter@@6B@      10044fc0     Autowall.obj
 0002:00000fcc       ??_7C_TraceFilter@@6B@     10044fcc     Autowall.obj
 0002:00000fd4       __real@3d4ccccd            10044fd4     Autowall.obj
 0002:00000fd8       __real@3dcccccd            10044fd8     Autowall.obj
 0002:00000fdc       __real@3e23d70a            10044fdc     Autowall.obj
 0002:00000fe0       __real@3f000000            10044fe0     Autowall.obj
 0002:00000fe4       __real@3f400000            10044fe4     Autowall.obj
 0002:00000fe8       __real@3f60624dd2f1a9fc    10044fe8     Autowall.obj
 0002:00000ff0       __real@3fa00000            10044ff0     Autowall.obj
 0002:00000ff8       __real@3ff0000000000000    10044ff8     Autowall.obj
 0002:00001000       __real@40000000            10045000     Autowall.obj
 0002:00001004       __real@40400000            10045004     Autowall.obj
 0002:00001008       __real@40800000            10045008     Autowall.obj
 0002:0000100c       __real@41c00000            1004500c     Autowall.obj
 0002:00001010       __real@42200000            10045010     Autowall.obj
 0002:00001014       __real@42700000            10045014     Autowall.obj
 0002:00001018       __real@42b40000            10045018     Autowall.obj
 0002:00001374       ??_C@_0BC@KBDMBKEH@deque?$DMT?$DO?5too?5long@ 10045374     LagComp.obj
 0002:00001388       __real@3e4ccccd            10045388     LagComp.obj
 0002:00001658       __real@41a00000            10045658     AntiAim.obj
 0002:0000165c       __real@42340000            1004565c     AntiAim.obj
 0002:00001660       __real@42480000            10045660     AntiAim.obj
 0002:00001664       __real@42b3cccd            10045664     AntiAim.obj
 0002:00001934       ??_C@_0CC@KGCKDAPP@0F?510?505?5?$DP?5?$DP?5?$DP?5?$DP?58D?585?5?$DP?5?$DP?5?$DP?5?$DP?5@ 10045934     Legitbot.obj
 0002:00001958       ??_C@_0L@PHFEFMEF@client?4dll@ 10045958     Legitbot.obj
 0002:00001964       __real@3a83126f            10045964     Legitbot.obj
 0002:00001c34       ?_Min_buckets@?$_Hash@V?$_Umap_traits@IIV?$_Uhash_compare@IU?$hash@I@std@@U?$equal_to@I@2@@std@@V?$allocator@U?$pair@$$CBII@std@@@2@$0A@@std@@@std@@2IB 10045c34     Resolver.obj
 0002:00001c38       ??_C@_0BH@BMLKANBG@m_bClientSideAnimation@ 10045c38     Resolver.obj
 0002:00001c50       ??_C@_0BB@POPPCPOC@DT_BaseAnimating@ 10045c50     Resolver.obj
 0002:00001c64       ??_C@_0BH@GJAPHBOD@m_flLowerBodyYawTarget@ 10045c64     Resolver.obj
 0002:00001c7c       __real@3e75c28f            10045c7c     Resolver.obj
 0002:00001c80       __real@42680000            10045c80     Resolver.obj
 0002:00001c84       __real@428c0000            10045c84     Resolver.obj
 0002:00001c88       __real@c2680000            10045c88     Resolver.obj
 0002:00001c8c       __real@c2700000            10045c8c     Resolver.obj
 0002:00001c90       __real@c2b40000            10045c90     Resolver.obj
 0002:0000207c       ??_7Event@@6B@             1004607c     Hooks.obj
 0002:00002088       ?less@strong_ordering@std@@2U12@B 10046088     Hooks.obj
 0002:00002089       ?equal@strong_ordering@std@@2U12@B 10046089     Hooks.obj
 0002:0000208a       ?greater@strong_ordering@std@@2U12@B 1004608a     Hooks.obj
 0002:00002090       ??_7bad_cast@std@@6B@      10046090     Hooks.obj
 0002:00002098       ??_C@_08EPJLHIJG@bad?5cast@ 10046098     Hooks.obj
 0002:000020a1       ?default_sentinel@std@@3Udefault_sentinel_t@1@B 100460a1     Hooks.obj
 0002:000020a8       ??_7runtime_error@std@@6B@ 100460a8     Hooks.obj
 0002:000020b0       ??_C@_00CNPNBAHC@@         100460b0     Hooks.obj
 0002:000020b8       ??_7?$numpunct@D@std@@6B@  100460b8     Hooks.obj
 0002:000020d8       ?__printable_property_data@std@@3U?$_Unicode_property_data@W4__printable_property_values@std@@$0CMH@$00@1@B 100460d8     Hooks.obj
 0002:00003188       ?_Grapheme_Extend_property_data@std@@3U?$_Unicode_property_data@W4_Grapheme_Extend_property_values@std@@$0BGL@$00@1@B 10047188     Hooks.obj
 0002:00003a10       ??_7format_error@std@@6B@  10047a10     Hooks.obj
 0002:00003a18       ??$__DIGIT_TABLE@D@std@@3QBDB 10047a18     Hooks.obj
 0002:00003ae0       ?__POW10_OFFSET@std@@3QBGB 10047ae0     Hooks.obj
 0002:00003b60       ?__POW10_OFFSET_2@std@@3QBGB 10047b60     Hooks.obj
 0002:00003bf0       ?__MIN_BLOCK_2@std@@3QBEB  10047bf0     Hooks.obj
 0002:00003c38       ??_C@_04OEBBALID@e?$CL00@  10047c38     Hooks.obj
 0002:00003c40       ?__FLOAT_POW5_INV_SPLIT@std@@3QB_KB 10047c40     Hooks.obj
 0002:00003d38       ?__FLOAT_POW5_SPLIT@std@@3QB_KB 10047d38     Hooks.obj
 0002:00003eb0       ?_Max_P@?$_General_precision_tables_2@M@std@@2HB 10047eb0     Hooks.obj
 0002:00003eb4       ?_Max_P@?$_General_precision_tables_2@N@std@@2HB 10047eb4     Hooks.obj
 0002:00003eb8       ?_Charconv_digits@std@@3QBDB 10047eb8     Hooks.obj
 0002:00003ee0       ??_7?$_Fmt_buffer@D@std@@6B@ 10047ee0     Hooks.obj
 0002:00003ee4       ??_C@_06NANAFOGC@?$HL?$HN?9?$DO?$HL?$HN@ 10047ee4     Hooks.obj
 0002:00003eec       ??_C@_0DG@LFMBAHLK@55?58B?5EC?583?5E4?5F8?583?5EC?518?556?55@ 10047eec     Hooks.obj
 0002:00003f24       ??_C@_0M@PPOAODEA@m_bIsScoped@ 10047f24     Hooks.obj
 0002:00003f30       ??_C@_0CK@NDFMKNFD@80?53D?5?$DP?5?$DP?5?$DP?5?$DP?5?$DP?574?516?5A1?5?$DP?5?$DP?5?$DP?5@ 10047f30     Hooks.obj
 0002:00003f60       ??_7IGameEventListener@@6B@ 10047f60     Hooks.obj
 0002:00003f6c       ??_C@_0M@GPCKBPEK@player_hurt@ 10047f6c     Hooks.obj
 0002:00003f78       ??_C@_0BK@ILCFOOBA@Failed?5to?5protect?5region?$CB@ 10047f78     Hooks.obj
 0002:00003f94       ??_C@_09NFOPKLIK@sv_cheats@ 10047f94     Hooks.obj
 0002:00003fa0       ??_C@_0BL@OOBMLGKK@weapon_debug_spread_show?50@ 10047fa0     Hooks.obj
 0002:00003fbc       ??_C@_0M@HPFLIJIB@crosshair?50@ 10047fbc     Hooks.obj
 0002:00003fc8       ??_C@_0BL@MFDBOFGJ@weapon_debug_spread_show?53@ 10047fc8     Hooks.obj
 0002:00003fe4       ??_C@_0M@GGEALIMA@crosshair?51@ 10047fe4     Hooks.obj
 0002:00003ff0       ??_C@_0BI@CFPLBAOH@invalid?5string?5position@ 10047ff0     Hooks.obj
 0002:00004008       ?_Adjustment@?CB@???$__to_chars@D@std@@YA?AU?$pair@PADW4errc@std@@@1@QAD0U__floating_decimal_32@1@W4chars_format@1@II@Z@4QBEB 10048008     Hooks.obj
 0002:00004030       ?_Max_shifted_mantissa@?DC@???$__to_chars@D@std@@YA?AU?$pair@PADW4errc@std@@@1@QAD0U__floating_decimal_32@1@W4chars_format@1@II@Z@4QBIB 10048030     Hooks.obj
 0002:00004060       ?_Adjustment@?CB@???$__to_chars@D@std@@YA?AU?$pair@PADW4errc@std@@@1@QAD0U__floating_decimal_64@1@W4chars_format@1@N@Z@4QBEB 10048060     Hooks.obj
 0002:00004198       ?_Max_shifted_mantissa@?DC@???$__to_chars@D@std@@YA?AU?$pair@PADW4errc@std@@@1@QAD0U__floating_decimal_64@1@W4chars_format@1@N@Z@4QB_KB 10048198     Hooks.obj
 0002:00004254       ??_7?$_Fmt_iterator_buffer@V?$back_insert_iterator@V?$basic_string@DU?$char_traits@D@std@@V?$allocator@D@2@@std@@@std@@DU_Fmt_buffer_traits@2@@std@@6B@ 10048254     Hooks.obj
 0002:00004258       ??_C@_0CA@EOADLFNL@Unmatched?5?8?$HN?8?5in?5format?5string?4@ 10048258     Hooks.obj
 0002:00004278       ??_C@_0BH@MCHHCMKF@Invalid?5format?5string?4@ 10048278     Hooks.obj
 0002:00004290       ??_C@_0BK@NMCHMIGI@Unknown?5format?5specifier?4@ 10048290     Hooks.obj
 0002:000042ac       ??_C@_0BO@FFAGMLDI@Missing?5?8?$HN?8?5in?5format?5string?4@ 100482ac     Hooks.obj
 0002:000042cc       ??_C@_0CM@HMOABGNI@Invalid?5encoded?5character?5in?5fo@ 100482cc     Hooks.obj
 0002:000042f8       ??_C@_0DB@GIGELLBG@Can?5not?5switch?5from?5manual?5to?5a@ 100482f8     Hooks.obj
 0002:0000432c       ??_C@_0BC@JOAOKPFE@Number?5is?5too?5big@ 1004832c     Hooks.obj
 0002:00004340       ??_C@_0BE@JHBJMIJI@Argument?5not?5found?4@ 10048340     Hooks.obj
 0002:00004354       ??_C@_0BM@ONFDPAFF@Invalid?5type?5specification?4@ 10048354     Hooks.obj
 0002:00004370       ??_C@_0CE@OLPMMFCN@Invalid?5presentation?5type?5speci@ 10048370     Hooks.obj
 0002:00004394       ??_C@_0CD@PLBGEFIO@Invalid?5presentation?5type?5for?5b@ 10048394     Hooks.obj
 0002:000043b8       ??_C@_0CD@IFHOEGFC@Invalid?5presentation?5type?5for?5c@ 100483b8     Hooks.obj
 0002:000043dc       ??_C@_0CG@PIIJGCKO@Invalid?5presentation?5type?5for?5i@ 100483dc     Hooks.obj
 0002:00004404       ??_C@_0CN@EEOMCCM@Invalid?5presentation?5type?5for?5f@ 10048404     Hooks.obj
 0002:00004434       ??_C@_0CF@MMFFCGKF@Invalid?5presentation?5type?5for?5s@ 10048434     Hooks.obj
 0002:0000445c       ??_C@_0CG@LHDOJLDP@Invalid?5presentation?5type?5for?5p@ 1004845c     Hooks.obj
 0002:00004484       ??_C@_0DM@LDJDLGDF@Hash?1sign?5modifier?5requires?5an?5@ 10048484     Hooks.obj
 0002:000044c0       ??_C@_0EC@JCIMBFLB@Zero?5modifier?5requires?5an?5arith@ 100484c0     Hooks.obj
 0002:00004504       ??_C@_0BL@KNEDAEPA@invalid?5fill?5character?5?8?$HL?8@ 10048504     Hooks.obj
 0002:00004520       ??_C@_0BN@CAABEHAA@Missing?5precision?5specifier?4@ 10048520     Hooks.obj
 0002:00004540       ??_C@_0DB@FGJJGOLD@Can?5not?5switch?5from?5automatic?5t@ 10048540     Hooks.obj
 0002:00004574       ??_C@_0BJ@FNNNKMGD@Invalid?5fill?5?$CItoo?5long?$CJ?4@ 10048574     Hooks.obj
 0002:00004590       ??_C@_0DH@FFGBOAOP@Format?5specifier?5requires?5numer@ 10048590     Hooks.obj
 0002:000045c8       ??_C@_0CM@EFKJINMJ@Format?5specifier?5requires?5numer@ 100485c8     Hooks.obj
 0002:000045f4       ??_C@_02HDBOMKFI@0b@       100485f4     Hooks.obj
 0002:000045f8       ??_C@_02OGJKOOPK@0B@       100485f8     Hooks.obj
 0002:000045fc       ??_C@_02MDDDDAID@0x@       100485fc     Hooks.obj
 0002:00004600       ??_C@_02FGLHBECB@0X@       10048600     Hooks.obj
 0002:00004604       ??_C@_01GBGANLPD@0@        10048604     Hooks.obj
 0002:00004608       ??_C@_0CO@ILLNLEBH@Precision?5not?5allowed?5for?5this?5@ 10048608     Hooks.obj
 0002:00004638       ??_C@_0BD@GHJPJCGO@Number?5is?5too?5big?4@ 10048638     Hooks.obj
 0002:0000464c       ??_C@_0BJ@FLMOJPKL@Width?5is?5not?5an?5integer?4@ 1004864c     Hooks.obj
 0002:00004668       ??_C@_0BA@INGMONDA@Negative?5width?4@ 10048668     Hooks.obj
 0002:00004678       ??_C@_0BN@DNNEEKIC@Precision?5is?5not?5an?5integer?4@ 10048678     Hooks.obj
 0002:00004698       ??_C@_0BE@DEGOCOHL@Negative?5precision?4@ 10048698     Hooks.obj
 0002:000046b0       __real@0000000000000000    100486b0     Hooks.obj
 0002:000046b8       __real@3e500000            100486b8     Hooks.obj
 0002:000046bc       __real@3e600000            100486bc     Hooks.obj
 0002:000046c0       __real@3ee66663            100486c0     Hooks.obj
 0002:000046c4       __real@41000000            100486c4     Hooks.obj
 0002:000046c8       __real@42b20000            100486c8     Hooks.obj
 0002:000046cc       __real@43160000            100486cc     Hooks.obj
 0002:000046d0       __real@437f0000            100486d0     Hooks.obj
 0002:000046d4       __real@43b40000            100486d4     Hooks.obj
 0002:000046d8       __real@43e10000            100486d8     Hooks.obj
 0002:000046dc       __real@461c4000            100486dc     Hooks.obj
 0002:000046e0       __real@c2b20000            100486e0     Hooks.obj
 0002:000046e4       __real@c3340000            100486e4     Hooks.obj
 0002:000046e8       __real@c3e10000            100486e8     Hooks.obj
 0002:000046ec       __real@ff7fffff            100486ec     Hooks.obj
 0002:00005034       ??_C@_0CB@PJCPBMCH@Counter?9Strike?3?5Global?5Offensiv@ 10049034     Menu.obj
 0002:00005058       ??_C@_0BJ@DHFDPMIM@invalid?5vector?5subscript@ 10049058     Menu.obj
 0002:00005074       __real@3c23d70a            10049074     Menu.obj
 0002:00005078       __real@3e2aaaab            10049078     Menu.obj
 0002:0000507c       __real@3ec8f5c3            1004907c     Menu.obj
 0002:00005080       __real@40c00000            10049080     Menu.obj
 0002:00005084       __real@40c8f5c3            10049084     Menu.obj
 0002:00005088       __real@41c80000            10049088     Menu.obj
 0002:0000508c       __real@42aa0000            1004908c     Menu.obj
 0002:00005090       __real@42e40000            10049090     Menu.obj
 0002:00005094       __real@43870000            10049094     Menu.obj
 0002:00005098       __real@43938000            10049098     Menu.obj
 0002:0000509c       __real@c1c00000            1004909c     Menu.obj
 0002:00005494       ??_C@_02NJPGOMH@?$CFf@     10049494     TGFCfg.obj
 0002:00005a3c       __real@3a51b717            10049a3c     CEntity.obj
 0002:00005a40       __real@3d8f5c29            10049a40     CEntity.obj
 0002:00005a44       __real@3d99999a            10049a44     CEntity.obj
 0002:00005a48       __real@3da3d70a            10049a48     CEntity.obj
 0002:00005a4c       __real@3db645a2            10049a4c     CEntity.obj
 0002:00005a50       __real@3df5c28f            10049a50     CEntity.obj
 0002:00005a54       __real@3e19999a            10049a54     CEntity.obj
 0002:00005a58       __real@3e2d0e56            10049a58     CEntity.obj
 0002:00005a5c       __real@3e656042            10049a5c     CEntity.obj
 0002:00005a60       __real@3e800000            10049a60     CEntity.obj
 0002:00005a64       __real@3eb33333            10049a64     CEntity.obj
 0002:00005a68       __real@3f5851ec            10049a68     CEntity.obj
 0002:00005a6c       __real@3f61cac1            10049a6c     CEntity.obj
 0002:00005a70       __real@3fbb4396            10049a70     CEntity.obj
 0002:000069d4       ??_7?$basic_filebuf@DU?$char_traits@D@std@@@std@@6B@ 1004a9d4     Interfaces.obj
 0002:00006a14       ??_7?$basic_ofstream@DU?$char_traits@D@std@@@std@@6B@ 1004aa14     Interfaces.obj
 0002:00006a18       ??_8?$basic_ofstream@DU?$char_traits@D@std@@@std@@7B@ 1004aa18     Interfaces.obj
 0002:00006a50       __real@3c8efa35            1004aa50     Math.obj
 0002:00006a58       __real@3f91df46a2529d39    1004aa58     Math.obj
 0002:00006a60       __real@40490fdb            1004aa60     Math.obj
 0002:00006a68       __real@404ca5dc1a63c1f8    1004aa68     Math.obj
 0002:00006a70       __real@bf800000            1004aa70     Math.obj
 0002:00006a74       __real@c3b40000            1004aa74     Math.obj
 0002:00006ce0       ??_7?$_Ref_count_obj2@UNode@NetvarTree@@@std@@6B@ 1004ace0     NetvarManager.obj
 0002:000094e8       ?__DOUBLE_POW5_INV_SPLIT@std@@3QAY01$$CB_KA 1004d4e8     msvcprt:xcharconv_ryu_tables.obj
 0002:0000a728       ?__DOUBLE_POW5_SPLIT@std@@3QAY01$$CB_KA 1004e728     msvcprt:xcharconv_ryu_tables.obj
 0002:0000bb88       ?__POW10_SPLIT@std@@3QAY02$$CB_KA 1004fb88     msvcprt:xcharconv_ryu_tables.obj
 0002:00012e48       ?__POW10_SPLIT_2@std@@3QAY02$$CB_KA 10056e48     msvcprt:xcharconv_ryu_tables.obj
 0002:00025400       ?_Special_X_table@?$_General_precision_tables_2@M@std@@2QBIB 10069400     msvcprt:xcharconv_tables_float.obj
 0002:00025500       ?_Ordinary_X_table@?$_General_precision_tables_2@M@std@@2QBIB 10069500     msvcprt:xcharconv_tables_float.obj
 0002:000255b0       ?_Special_X_table@?$_General_precision_tables_2@N@std@@2QB_KB 100695b0     msvcprt:xcharconv_tables_double.obj
 0002:00025bc8       ?_Ordinary_X_table@?$_General_precision_tables_2@N@std@@2QB_KB 10069bc8     msvcprt:xcharconv_tables_double.obj
 0002:000265d4       ??_7type_info@@6B@         1006a5d4     MSVCRT:std_type_info_static.obj
 0002:000265ec       __pDefaultRawDllMain       1006a5ec     MSVCRT:dll_dllmain.obj
 0002:000265ec       __pRawDllMain              1006a5ec     MSVCRT:dll_dllmain.obj
 0002:000265f0       ??_C@_0P@GHFPNOJB@bad?5allocation@ 1006a5f0     MSVCRT:throw_bad_alloc.obj
 0002:00026600       __load_config_used         1006a600     MSVCRT:loadcfg.obj
 0002:00026740       __tls_used                 1006a740     MSVCRT:tlssup.obj
 0002:00026758       ??_R4exception@std@@6B@    1006a758     EnginePrediction.obj
 0002:0002676c       ??_R3exception@std@@8      1006a76c     EnginePrediction.obj
 0002:0002677c       ??_R2exception@std@@8      1006a77c     EnginePrediction.obj
 0002:00026784       ??_R1A@?0A@EA@exception@std@@8 1006a784     EnginePrediction.obj
 0002:000267a0       ??_R4bad_array_new_length@std@@6B@ 1006a7a0     EnginePrediction.obj
 0002:000267b4       ??_R3bad_array_new_length@std@@8 1006a7b4     EnginePrediction.obj
 0002:000267c4       ??_R2bad_array_new_length@std@@8 1006a7c4     EnginePrediction.obj
 0002:000267d4       ??_R1A@?0A@EA@bad_array_new_length@std@@8 1006a7d4     EnginePrediction.obj
 0002:000267f0       ??_R1A@?0A@EA@bad_alloc@std@@8 1006a7f0     EnginePrediction.obj
 0002:0002680c       ??_R3bad_alloc@std@@8      1006a80c     EnginePrediction.obj
 0002:0002681c       ??_R2bad_alloc@std@@8      1006a81c     EnginePrediction.obj
 0002:00026828       ??_R4bad_alloc@std@@6B@    1006a828     EnginePrediction.obj
 0002:0002683c       ??_R4ITraceFilter@@6B@     1006a83c     Autowall.obj
 0002:00026850       ??_R3ITraceFilter@@8       1006a850     Autowall.obj
 0002:00026860       ??_R2ITraceFilter@@8       1006a860     Autowall.obj
 0002:00026868       ??_R1A@?0A@EA@ITraceFilter@@8 1006a868     Autowall.obj
 0002:00026884       ??_R4C_TraceFilter@@6B@    1006a884     Autowall.obj
 0002:00026898       ??_R3C_TraceFilter@@8      1006a898     Autowall.obj
 0002:000268a8       ??_R2C_TraceFilter@@8      1006a8a8     Autowall.obj
 0002:000268b4       ??_R1A@?0A@EA@C_TraceFilter@@8 1006a8b4     Autowall.obj
 0002:000268d0       ??_R3IGameEventListener@@8 1006a8d0     Hooks.obj
 0002:000268e0       ??_R2IGameEventListener@@8 1006a8e0     Hooks.obj
 0002:000268e8       ??_R1A@?0A@EA@IGameEventListener@@8 1006a8e8     Hooks.obj
 0002:00026904       ??_R4Event@@6B@            1006a904     Hooks.obj
 0002:00026918       ??_R3Event@@8              1006a918     Hooks.obj
 0002:00026928       ??_R2Event@@8              1006a928     Hooks.obj
 0002:00026934       ??_R1A@?0A@EA@Event@@8     1006a934     Hooks.obj
 0002:00026950       ??_R4bad_cast@std@@6B@     1006a950     Hooks.obj
 0002:00026964       ??_R3bad_cast@std@@8       1006a964     Hooks.obj
 0002:00026974       ??_R2bad_cast@std@@8       1006a974     Hooks.obj
 0002:00026980       ??_R1A@?0A@EA@bad_cast@std@@8 1006a980     Hooks.obj
 0002:0002699c       ??_R4runtime_error@std@@6B@ 1006a99c     Hooks.obj
 0002:000269b0       ??_R3runtime_error@std@@8  1006a9b0     Hooks.obj
 0002:000269c0       ??_R2runtime_error@std@@8  1006a9c0     Hooks.obj
 0002:000269cc       ??_R1A@?0A@EA@runtime_error@std@@8 1006a9cc     Hooks.obj
 0002:000269e8       ??_R1A@?0A@EA@facet@locale@std@@8 1006a9e8     Hooks.obj
 0002:00026a04       ??_R3facet@locale@std@@8   1006aa04     Hooks.obj
 0002:00026a14       ??_R2facet@locale@std@@8   1006aa14     Hooks.obj
 0002:00026a24       ??_R1A@?0A@EA@_Facet_base@std@@8 1006aa24     Hooks.obj
 0002:00026a40       ??_R3_Facet_base@std@@8    1006aa40     Hooks.obj
 0002:00026a50       ??_R2_Facet_base@std@@8    1006aa50     Hooks.obj
 0002:00026a58       ??_R13?0A@EA@_Crt_new_delete@std@@8 1006aa58     Hooks.obj
 0002:00026a74       ??_R3_Crt_new_delete@std@@8 1006aa74     Hooks.obj
 0002:00026a84       ??_R2_Crt_new_delete@std@@8 1006aa84     Hooks.obj
 0002:00026a8c       ??_R1A@?0A@EA@_Crt_new_delete@std@@8 1006aa8c     Hooks.obj
 0002:00026aa8       ??_R4?$numpunct@D@std@@6B@ 1006aaa8     Hooks.obj
 0002:00026abc       ??_R3?$numpunct@D@std@@8   1006aabc     Hooks.obj
 0002:00026acc       ??_R2?$numpunct@D@std@@8   1006aacc     Hooks.obj
 0002:00026ae0       ??_R1A@?0A@EA@?$numpunct@D@std@@8 1006aae0     Hooks.obj
 0002:00026afc       ??_R4format_error@std@@6B@ 1006aafc     Hooks.obj
 0002:00026b10       ??_R3format_error@std@@8   1006ab10     Hooks.obj
 0002:00026b20       ??_R2format_error@std@@8   1006ab20     Hooks.obj
 0002:00026b30       ??_R1A@?0A@EA@format_error@std@@8 1006ab30     Hooks.obj
 0002:00026b4c       ??_R4?$_Fmt_buffer@D@std@@6B@ 1006ab4c     Hooks.obj
 0002:00026b60       ??_R3?$_Fmt_buffer@D@std@@8 1006ab60     Hooks.obj
 0002:00026b70       ??_R2?$_Fmt_buffer@D@std@@8 1006ab70     Hooks.obj
 0002:00026b78       ??_R1A@?0A@EA@?$_Fmt_buffer@D@std@@8 1006ab78     Hooks.obj
 0002:00026b94       ??_R4IGameEventListener@@6B@ 1006ab94     Hooks.obj
 0002:00026ba8       ??_R4?$_Fmt_iterator_buffer@V?$back_insert_iterator@V?$basic_string@DU?$char_traits@D@std@@V?$allocator@D@2@@std@@@std@@DU_Fmt_buffer_traits@2@@std@@6B@ 1006aba8     Hooks.obj
 0002:00026bbc       ??_R3?$_Fmt_iterator_buffer@V?$back_insert_iterator@V?$basic_string@DU?$char_traits@D@std@@V?$allocator@D@2@@std@@@std@@DU_Fmt_buffer_traits@2@@std@@8 1006abbc     Hooks.obj
 0002:00026bcc       ??_R2?$_Fmt_iterator_buffer@V?$back_insert_iterator@V?$basic_string@DU?$char_traits@D@std@@V?$allocator@D@2@@std@@@std@@DU_Fmt_buffer_traits@2@@std@@8 1006abcc     Hooks.obj
 0002:00026bdc       ??_R1A@?0A@EA@?$_Fmt_iterator_buffer@V?$back_insert_iterator@V?$basic_string@DU?$char_traits@D@std@@V?$allocator@D@2@@std@@@std@@DU_Fmt_buffer_traits@2@@std@@8 1006abdc     Hooks.obj
 0002:00026bf8       ??_R1BA@?0A@EA@_Fmt_buffer_traits@std@@8 1006abf8     Hooks.obj
 0002:00026c14       ??_R3_Fmt_buffer_traits@std@@8 1006ac14     Hooks.obj
 0002:00026c24       ??_R2_Fmt_buffer_traits@std@@8 1006ac24     Hooks.obj
 0002:00026c2c       ??_R1A@?0A@EA@_Fmt_buffer_traits@std@@8 1006ac2c     Hooks.obj
 0002:00026c48       ??_R1A@?0A@EA@?$basic_streambuf@DU?$char_traits@D@std@@@std@@8 1006ac48     Interfaces.obj
 0002:00026c64       ??_R3?$basic_streambuf@DU?$char_traits@D@std@@@std@@8 1006ac64     Interfaces.obj
 0002:00026c74       ??_R2?$basic_streambuf@DU?$char_traits@D@std@@@std@@8 1006ac74     Interfaces.obj
 0002:00026c7c       ??_R1A@?0A@EA@?$basic_ostream@DU?$char_traits@D@std@@@std@@8 1006ac7c     Interfaces.obj
 0002:00026c98       ??_R3?$basic_ostream@DU?$char_traits@D@std@@@std@@8 1006ac98     Interfaces.obj
 0002:00026ca8       ??_R2?$basic_ostream@DU?$char_traits@D@std@@@std@@8 1006aca8     Interfaces.obj
 0002:00026cbc       ??_R1A@A@3FA@?$basic_ios@DU?$char_traits@D@std@@@std@@8 1006acbc     Interfaces.obj
 0002:00026cd8       ??_R3?$basic_ios@DU?$char_traits@D@std@@@std@@8 1006acd8     Interfaces.obj
 0002:00026ce8       ??_R2?$basic_ios@DU?$char_traits@D@std@@@std@@8 1006ace8     Interfaces.obj
 0002:00026cf8       ??_R1A@?0A@EA@?$basic_ios@DU?$char_traits@D@std@@@std@@8 1006acf8     Interfaces.obj
 0002:00026d14       ??_R1A@?0A@EA@ios_base@std@@8 1006ad14     Interfaces.obj
 0002:00026d30       ??_R3ios_base@std@@8       1006ad30     Interfaces.obj
 0002:00026d40       ??_R2ios_base@std@@8       1006ad40     Interfaces.obj
 0002:00026d4c       ??_R17?0A@EA@?$_Iosb@H@std@@8 1006ad4c     Interfaces.obj
 0002:00026d68       ??_R3?$_Iosb@H@std@@8      1006ad68     Interfaces.obj
 0002:00026d78       ??_R2?$_Iosb@H@std@@8      1006ad78     Interfaces.obj
 0002:00026d80       ??_R1A@?0A@EA@?$_Iosb@H@std@@8 1006ad80     Interfaces.obj
 0002:00026d9c       ??_R1A@A@3EA@ios_base@std@@8 1006ad9c     Interfaces.obj
 0002:00026db8       ??_R17A@3EA@?$_Iosb@H@std@@8 1006adb8     Interfaces.obj
 0002:00026dd4       ??_R4?$basic_filebuf@DU?$char_traits@D@std@@@std@@6B@ 1006add4     Interfaces.obj
 0002:00026de8       ??_R3?$basic_filebuf@DU?$char_traits@D@std@@@std@@8 1006ade8     Interfaces.obj
 0002:00026df8       ??_R2?$basic_filebuf@DU?$char_traits@D@std@@@std@@8 1006adf8     Interfaces.obj
 0002:00026e04       ??_R1A@?0A@EA@?$basic_filebuf@DU?$char_traits@D@std@@@std@@8 1006ae04     Interfaces.obj
 0002:00026e20       ??_R4?$basic_ofstream@DU?$char_traits@D@std@@@std@@6B@ 1006ae20     Interfaces.obj
 0002:00026e34       ??_R3?$basic_ofstream@DU?$char_traits@D@std@@@std@@8 1006ae34     Interfaces.obj
 0002:00026e44       ??_R2?$basic_ofstream@DU?$char_traits@D@std@@@std@@8 1006ae44     Interfaces.obj
 0002:00026e5c       ??_R1A@?0A@EA@?$basic_ofstream@DU?$char_traits@D@std@@@std@@8 1006ae5c     Interfaces.obj
 0002:00026e78       ??_R3_Ref_count_base@std@@8 1006ae78     NetvarManager.obj
 0002:00026e88       ??_R2_Ref_count_base@std@@8 1006ae88     NetvarManager.obj
 0002:00026e90       ??_R1A@?0A@EA@_Ref_count_base@std@@8 1006ae90     NetvarManager.obj
 0002:00026eac       ??_R4?$_Ref_count_obj2@UNode@NetvarTree@@@std@@6B@ 1006aeac     NetvarManager.obj
 0002:00026ec0       ??_R3?$_Ref_count_obj2@UNode@NetvarTree@@@std@@8 1006aec0     NetvarManager.obj
 0002:00026ed0       ??_R2?$_Ref_count_obj2@UNode@NetvarTree@@@std@@8 1006aed0     NetvarManager.obj
 0002:00026edc       ??_R1A@?0A@EA@?$_Ref_count_obj2@UNode@NetvarTree@@@std@@8 1006aedc     NetvarManager.obj
 0002:00026ef8       ??_R4type_info@@6B@        1006aef8     MSVCRT:std_type_info_static.obj
 0002:00026f0c       ??_R3type_info@@8          1006af0c     MSVCRT:std_type_info_static.obj
 0002:00026f1c       ??_R2type_info@@8          1006af1c     MSVCRT:std_type_info_static.obj
 0002:00026f24       ??_R1A@?0A@EA@type_info@@8 1006af24     MSVCRT:std_type_info_static.obj
 0002:00026f40       ___safe_se_handler_table   1006af40     <linker-defined>
 0002:00027144       ___volatile_metadata       1006b144     <linker-defined>
 0002:00027b00       ___rtc_iaa                 1006bb00     MSVCRT:initsect.obj
 0002:00027b04       ___rtc_izz                 1006bb04     MSVCRT:initsect.obj
 0002:00027b08       ___rtc_taa                 1006bb08     MSVCRT:initsect.obj
 0002:00027b0c       ___rtc_tzz                 1006bb0c     MSVCRT:initsect.obj
 0002:00027b10       __tls_start                1006bb10     MSVCRT:tlssup.obj
 0002:00027b14       __Init_thread_epoch        1006bb14     MSVCRT:thread_safe_statics.obj
 0002:00027b18       __tls_end                  1006bb18     MSVCRT:tlssup.obj
 0002:00027d88       __CT??_R0?AVexception@std@@@8??0exception@std@@QAE@ABV01@@Z12 1006bd88     EnginePrediction.obj
 0002:00027da4       __TI3?AVbad_array_new_length@std@@ 1006bda4     EnginePrediction.obj
 0002:00027db4       __CTA3?AVbad_array_new_length@std@@ 1006bdb4     EnginePrediction.obj
 0002:00027dc4       __CT??_R0?AVbad_array_new_length@std@@@8??0bad_array_new_length@std@@QAE@ABV01@@Z12 1006bdc4     EnginePrediction.obj
 0002:00027de0       __CT??_R0?AVbad_alloc@std@@@8??0bad_alloc@std@@QAE@ABV01@@Z12 1006bde0     EnginePrediction.obj
 0002:000287ac       __TI2?AVbad_cast@std@@     1006c7ac     Hooks.obj
 0002:000287bc       __CTA2?AVbad_cast@std@@    1006c7bc     Hooks.obj
 0002:000287c8       __CT??_R0?AVbad_cast@std@@@8??0bad_cast@std@@QAE@ABV01@@Z12 1006c7c8     Hooks.obj
 0002:000287e4       __CT??_R0?AVruntime_error@std@@@8??0runtime_error@std@@QAE@ABV01@@Z12 1006c7e4     Hooks.obj
 0002:00028800       __TI3?AVformat_error@std@@ 1006c800     Hooks.obj
 0002:00028810       __CTA3?AVformat_error@std@@ 1006c810     Hooks.obj
 0002:00028820       __CT??_R0?AVformat_error@std@@@8??0format_error@std@@QAE@ABV01@@Z12 1006c820     Hooks.obj
 0002:0002883c       __TI2?AVruntime_error@std@@ 1006c83c     Hooks.obj
 0002:0002884c       __CTA2?AVruntime_error@std@@ 1006c84c     Hooks.obj
 0002:00029274       __TI2?AVbad_alloc@std@@    1006d274     MSVCRT:throw_bad_alloc.obj
 0002:00029284       __CTA2?AVbad_alloc@std@@   1006d284     MSVCRT:throw_bad_alloc.obj
 0002:00029290       __IMPORT_DESCRIPTOR_KERNEL32 1006d290     kernel32:KERNEL32.dll
 0002:000292a4       __IMPORT_DESCRIPTOR_USER32 1006d2a4     user32:USER32.dll
 0002:000292b8       __IMPORT_DESCRIPTOR_SHELL32 1006d2b8     shell32:SHELL32.dll
 0002:000292cc       __IMPORT_DESCRIPTOR_MSVCP140 1006d2cc     msvcprt:MSVCP140.dll
 0002:000292e0       __IMPORT_DESCRIPTOR_VCRUNTIME140 1006d2e0     vcruntime:VCRUNTIME140.dll
 0002:000292f4       __IMPORT_DESCRIPTOR_api-ms-win-crt-runtime-l1-1-0 1006d2f4     ucrt:api-ms-win-crt-runtime-l1-1-0.dll
 0002:00029308       __IMPORT_DESCRIPTOR_api-ms-win-crt-heap-l1-1-0 1006d308     ucrt:api-ms-win-crt-heap-l1-1-0.dll
 0002:0002931c       __IMPORT_DESCRIPTOR_api-ms-win-crt-math-l1-1-0 1006d31c     ucrt:api-ms-win-crt-math-l1-1-0.dll
 0002:00029330       __IMPORT_DESCRIPTOR_api-ms-win-crt-stdio-l1-1-0 1006d330     ucrt:api-ms-win-crt-stdio-l1-1-0.dll
 0002:00029344       __IMPORT_DESCRIPTOR_api-ms-win-crt-string-l1-1-0 1006d344     ucrt:api-ms-win-crt-string-l1-1-0.dll
 0002:00029358       __IMPORT_DESCRIPTOR_api-ms-win-crt-convert-l1-1-0 1006d358     ucrt:api-ms-win-crt-convert-l1-1-0.dll
 0002:0002936c       __IMPORT_DESCRIPTOR_api-ms-win-crt-filesystem-l1-1-0 1006d36c     ucrt:api-ms-win-crt-filesystem-l1-1-0.dll
 0002:00029380       __NULL_IMPORT_DESCRIPTOR   1006d380     kernel32:KERNEL32.dll
 0003:0000001c       ?g_Event@@3VEvent@@A       1006f01c     Hooks.obj
 0003:00000024       ?maxSpeed@?1??DoFakeLag@Misc@@ABEXXZ@4MA 1006f024     Hooks.obj
 0003:00000028       ?Acceleration@?1??DoFakeLag@Misc@@ABEXXZ@4MA 1006f028     Hooks.obj
 0003:0000002c       ?stop@?1??DoFakeLag@Misc@@ABEXXZ@4_NA 1006f02c     Hooks.obj
 0003:0000002d       ?stop2@?1??DoFakeLag@Misc@@ABEXXZ@4_NA 1006f02d     Hooks.obj
 0003:0000008c       ?bSendPacket@g@@3_NA       1006f08c     GlobalVars.obj
 0003:00000090       ?TargetIndex@g@@3HA        1006f090     GlobalVars.obj
 0003:00000094       ___scrt_native_dllmain_reason 1006f094     MSVCRT:utility.obj
 0003:00000098       __Init_global_epoch        1006f098     MSVCRT:thread_safe_statics.obj
 0003:000000c0       ___security_cookie         1006f0c0     MSVCRT:gs_cookie.obj
 0003:00000100       ___security_cookie_complement 1006f100     MSVCRT:gs_cookie.obj
 0003:00000104       __fltused                  1006f104     MSVCRT:fltused.obj
 0003:00000110       ___isa_inverted            1006f110     MSVCRT:cpu_disp.obj
 0003:00000118       ___isa_enabled             1006f118     MSVCRT:cpu_disp.obj
 0003:00000120       ___scrt_ucrt_dll_is_in_use 1006f120     MSVCRT:ucrt_stubs.obj
 0003:00000124       ??_R0?AVexception@std@@@8  1006f124     EnginePrediction.obj
 0003:00000140       ??_R0?AVbad_array_new_length@std@@@8 1006f140     EnginePrediction.obj
 0003:00000168       ??_R0?AVbad_alloc@std@@@8  1006f168     EnginePrediction.obj
 0003:00000184       ??_R0?AVbad_cast@std@@@8   1006f184     Hooks.obj
 0003:000001a0       ??_R0?AVruntime_error@std@@@8 1006f1a0     Hooks.obj
 0003:000001c0       ??_R0?AVformat_error@std@@@8 1006f1c0     Hooks.obj
 0003:000001e0       ??_R0?AVITraceFilter@@@8   1006f1e0     Autowall.obj
 0003:000001fc       ??_R0?AVC_TraceFilter@@@8  1006f1fc     Autowall.obj
 0003:00000218       ??_R0?AVIGameEventListener@@@8 1006f218     Hooks.obj
 0003:0000023c       ??_R0?AVEvent@@@8          1006f23c     Hooks.obj
 0003:00000250       ??_R0?AVfacet@locale@std@@@8 1006f250     Hooks.obj
 0003:00000270       ??_R0?AV_Facet_base@std@@@8 1006f270     Hooks.obj
 0003:00000290       ??_R0?AU_Crt_new_delete@std@@@8 1006f290     Hooks.obj
 0003:000002b4       ??_R0?AV?$numpunct@D@std@@@8 1006f2b4     Hooks.obj
 0003:000002d4       ??_R0?AV?$_Fmt_buffer@D@std@@@8 1006f2d4     Hooks.obj
 0003:000002f8       ??_R0?AV?$_Fmt_iterator_buffer@V?$back_insert_iterator@V?$basic_string@DU?$char_traits@D@std@@V?$allocator@D@2@@std@@@std@@DU_Fmt_buffer_traits@2@@std@@@8 1006f2f8     Hooks.obj
 0003:00000398       ??_R0?AU_Fmt_buffer_traits@std@@@8 1006f398     Hooks.obj
 0003:000003c0       ??_R0?AV?$basic_streambuf@DU?$char_traits@D@std@@@std@@@8 1006f3c0     Interfaces.obj
 0003:000003fc       ??_R0?AV?$basic_ostream@DU?$char_traits@D@std@@@std@@@8 1006f3fc     Interfaces.obj
 0003:00000438       ??_R0?AV?$basic_ios@DU?$char_traits@D@std@@@std@@@8 1006f438     Interfaces.obj
 0003:00000470       ??_R0?AVios_base@std@@@8   1006f470     Interfaces.obj
 0003:0000048c       ??_R0?AV?$_Iosb@H@std@@@8  1006f48c     Interfaces.obj
 0003:000004a8       ??_R0?AV?$basic_filebuf@DU?$char_traits@D@std@@@std@@@8 1006f4a8     Interfaces.obj
 0003:000004e4       ??_R0?AV?$basic_ofstream@DU?$char_traits@D@std@@@std@@@8 1006f4e4     Interfaces.obj
 0003:00000520       ??_R0?AV_Ref_count_base@std@@@8 1006f520     NetvarManager.obj
 0003:00000544       ??_R0?AV?$_Ref_count_obj2@UNode@NetvarTree@@@std@@@8 1006f544     NetvarManager.obj
 0003:0000057c       ??_R0?AVtype_info@@@8      1006f57c     MSVCRT:std_type_info_static.obj
 0003:00000598       ?flOldCurtime@@3MA         1006f598     EnginePrediction.obj
 0003:0000059c       ?flOldFrametime@@3MA       1006f59c     EnginePrediction.obj
 0003:000005a0       ?m_nPredictionRandomSeed@@3PAHA 1006f5a0     EnginePrediction.obj
 0003:000005a4       ?m_pSetPredictionPlayer@@3PAHA 1006f5a4     EnginePrediction.obj
 0003:000005b0       ?data@netvar@@3V?$unordered_map@IIU?$hash@I@std@@U?$equal_to@I@2@V?$allocator@U?$pair@$$CBII@std@@@2@@std@@A 1006f5b0     EnginePrediction.obj
 0003:000005d0       ?m_hActiveWeapon@?1??GetActiveWeapon@C_BaseEntity@@QAEPAVC_BaseCombatWeapon@@XZ@4HA 1006f5d0     EnginePrediction.obj
 0003:000005d4       ?$TSS0@?1??GetActiveWeapon@C_BaseEntity@@QAEPAVC_BaseCombatWeapon@@XZ@4HA 1006f5d4     EnginePrediction.obj
 0003:000005d8       ?m_lifeState@?1??GetLifeState@C_BaseEntity@@QAE_NXZ@4HA 1006f5d8     EnginePrediction.obj
 0003:000005dc       ?$TSS0@?1??GetLifeState@C_BaseEntity@@QAE_NXZ@4HA 1006f5dc     EnginePrediction.obj
 0003:000005e0       ?m_iHealth@?1??GetHealth@C_BaseEntity@@QAEHXZ@4HA 1006f5e0     EnginePrediction.obj
 0003:000005e4       ?$TSS0@?1??GetHealth@C_BaseEntity@@QAEHXZ@4HA 1006f5e4     EnginePrediction.obj
 0003:000005e8       ?m_nTickBase@?1??GetTickBase@C_BaseEntity@@QAEHXZ@4HA 1006f5e8     EnginePrediction.obj
 0003:000005ec       ?$TSS0@?1??GetTickBase@C_BaseEntity@@QAEHXZ@4HA 1006f5ec     EnginePrediction.obj
 0003:000005f0       ?m_hConstraintEntity@?1??SetCurrentCommand@C_BaseEntity@@QAEXPAVCUserCmd@@@Z@4HA 1006f5f0     EnginePrediction.obj
 0003:000005f4       ?$TSS0@?1??SetCurrentCommand@C_BaseEntity@@QAEXPAVCUserCmd@@@Z@4HA 1006f5f4     EnginePrediction.obj
 0003:00000600       ?g_Aimbot@@3VAimbot@@A     1006f600     Aimbot.obj
 0003:00061e8c       ?m_iTeamNum@?1??GetTeam@C_BaseEntity@@QAEHXZ@4HA 100d0e8c     Aimbot.obj
 0003:00061e90       ?$TSS0@?1??GetTeam@C_BaseEntity@@QAEHXZ@4HA 100d0e90     Aimbot.obj
 0003:00061e94       ?m_fFlags@?1??GetFlags@C_BaseEntity@@QAE?AW4EntityFlags@@XZ@4HA 100d0e94     Aimbot.obj
 0003:00061e98       ?$TSS0@?1??GetFlags@C_BaseEntity@@QAE?AW4EntityFlags@@XZ@4HA 100d0e98     Aimbot.obj
 0003:00061e9c       ?m_flSimulationTime@?1??GetSimulationTime@C_BaseEntity@@QAEMXZ@4HA 100d0e9c     Aimbot.obj
 0003:00061ea0       ?$TSS0@?1??GetSimulationTime@C_BaseEntity@@QAEMXZ@4HA 100d0ea0     Aimbot.obj
 0003:00061ea4       ?m_angEyeAngles@?1??GetEyeAngles@C_BaseEntity@@QAE?AVVector@@XZ@4HA 100d0ea4     Aimbot.obj
 0003:00061ea8       ?$TSS0@?1??GetEyeAngles@C_BaseEntity@@QAE?AVVector@@XZ@4HA 100d0ea8     Aimbot.obj
 0003:00061eac       ?m_vecOrigin@?1??GetOrigin@C_BaseEntity@@QAE?AVVector@@XZ@4HA 100d0eac     Aimbot.obj
 0003:00061eb0       ?$TSS0@?1??GetOrigin@C_BaseEntity@@QAE?AVVector@@XZ@4HA 100d0eb0     Aimbot.obj
 0003:00061eb4       ?m_vecVelocity@?1??GetVelocity@C_BaseEntity@@QAE?AVVector@@XZ@4HA 100d0eb4     Aimbot.obj
 0003:00061eb8       ?$TSS0@?1??GetVelocity@C_BaseEntity@@QAE?AVVector@@XZ@4HA 100d0eb8     Aimbot.obj
 0003:00061ebc       ?m_fAccuracyPenalty@?1??GetAccuracyPenalty@C_BaseCombatWeapon@@QAEMXZ@4HA 100d0ebc     Aimbot.obj
 0003:00061ec0       ?$TSS0@?1??GetAccuracyPenalty@C_BaseCombatWeapon@@QAEMXZ@4HA 100d0ec0     Aimbot.obj
 0003:00061ec4       ?m_fLastShotTime@?1??GetLastShotTime@C_BaseCombatWeapon@@QAEMXZ@4HA 100d0ec4     Aimbot.obj
 0003:00061ec8       ?$TSS0@?1??GetLastShotTime@C_BaseCombatWeapon@@QAEMXZ@4HA 100d0ec8     Aimbot.obj
 0003:00061ecc       ?m_flNextPrimaryAttack@?1??GetNextPrimaryAttack@C_BaseCombatWeapon@@QAEMXZ@4HA 100d0ecc     Aimbot.obj
 0003:00061ed0       ?$TSS0@?1??GetNextPrimaryAttack@C_BaseCombatWeapon@@QAEMXZ@4HA 100d0ed0     Aimbot.obj
 0003:0006233c       ?g_Autowall@@3VAutowall@@A 100d133c     Autowall.obj
 0003:00062348       ?m_ArmorValue@?1??ArmorValue@C_BaseEntity@@QAEHXZ@4HA 100d1348     Autowall.obj
 0003:0006234c       ?$TSS0@?1??ArmorValue@C_BaseEntity@@QAEHXZ@4HA 100d134c     Autowall.obj
 0003:00062350       ?m_bHasHelmet@?1??HasHelmet@C_BaseEntity@@QAE_NXZ@4HA 100d1350     Autowall.obj
 0003:00062354       ?$TSS0@?1??HasHelmet@C_BaseEntity@@QAE_NXZ@4HA 100d1354     Autowall.obj
 0003:00062360       ?g_LagComp@@3VLagComp@@A   100d1360     LagComp.obj
 0003:00062b84       ?Swtich@@3_NA              100d1b84     AntiAim.obj
 0003:00062b85       ?g_AntiAim@@3VAntiAim@@A   100d1b85     AntiAim.obj
 0003:00062ba0       ?g_Legitbot@@3VLegitbot@@A 100d1ba0     Legitbot.obj
 0003:000630b4       ?pViewMatrix@?1???R<lambda_1>@?1??WorldToScreen@Utils@@SA_NABVVector@@AAVVector2D@@@Z@QBE_NXZ@4IA 100d20b4     Legitbot.obj
 0003:000632d0       ?g_Resolver@@3VResolver@@A 100d22d0     Resolver.obj
 0003:00063528       ?m_bClientSideAnimation@?1??ClientAnimations@C_BaseEntity@@QAEX_N@Z@4HA 100d2528     Resolver.obj
 0003:0006352c       ?$TSS0@?1??ClientAnimations@C_BaseEntity@@QAEX_N@Z@4HA 100d252c     Resolver.obj
 0003:00063530       ?m_flLowerBodyYawTarget@?1??GetLowerBodyYaw@C_BaseEntity@@QAEMXZ@4HA 100d2530     Resolver.obj
 0003:00063534       ?$TSS0@?1??GetLowerBodyYaw@C_BaseEntity@@QAEMXZ@4HA 100d2534     Resolver.obj
 0003:00063538       ?m_flLowerBodyYawTarget@?1??SetLowerBodyYaw@C_BaseEntity@@QAEXM@Z@4HA 100d2538     Resolver.obj
 0003:0006353c       ?$TSS0@?1??SetLowerBodyYaw@C_BaseEntity@@QAEXM@Z@4HA 100d253c     Resolver.obj
 0003:00072e18       ?g_Misc@@3VMisc@@A         100e1e18     Hooks.obj
 0003:00072e28       ?g_Hooks@@3VHooks@@A       100e1e28     Hooks.obj
 0003:00072f50       ?_OptionsStorage@?1??__local_stdio_printf_options@@9@4_KA 100e1f50     Hooks.obj
 0003:00072f58       ?oUpdateAnimationState@?1??Update@C_AnimState@@QAEXAAVVector@@@Z@4P6QXPAX1MMM1@ZA 100e1f58     Hooks.obj
 0003:00072f5c       ?$TSS0@?1??Update@C_AnimState@@QAEXAAVVector@@@Z@4HA 100e1f5c     Hooks.obj
 0003:00072f60       ?m_bIsScoped@?1??IsScoped@C_BaseEntity@@QAE_NXZ@4HA 100e1f60     Hooks.obj
 0003:00072f64       ?$TSS0@?1??IsScoped@C_BaseEntity@@QAE_NXZ@4HA 100e1f64     Hooks.obj
 0003:00072f68       ?invalidateBoneCache@?1??MostRecentModelBoneCounter@C_BaseEntity@@QAEAAIXZ@4IA 100e1f68     Hooks.obj
 0003:00072f6c       ?$TSS0@?1??MostRecentModelBoneCounter@C_BaseEntity@@QAEAAIXZ@4HA 100e1f6c     Hooks.obj
 0003:00072f70       ?mostRecentModelBoneCounter@?1??MostRecentModelBoneCounter@C_BaseEntity@@QAEAAIXZ@4IA 100e1f70     Hooks.obj
 0003:00072f74       ?$TSS1@?1??MostRecentModelBoneCounter@C_BaseEntity@@QAEAAIXZ@4HA 100e1f74     Hooks.obj
 0003:00072f78       ?invalidateBoneCache@?1??LastBoneSetupTime@C_BaseEntity@@QAEAAMXZ@4IA 100e1f78     Hooks.obj
 0003:00072f7c       ?$TSS0@?1??LastBoneSetupTime@C_BaseEntity@@QAEAAMXZ@4HA 100e1f7c     Hooks.obj
 0003:00072f80       ?lastBoneSetupTime@?1??LastBoneSetupTime@C_BaseEntity@@QAEAAMXZ@4IA 100e1f80     Hooks.obj
 0003:00072f84       ?$TSS1@?1??LastBoneSetupTime@C_BaseEntity@@QAEAAMXZ@4HA 100e1f84     Hooks.obj
 0003:00072f88       ?init@?1??ThirdPerson@Misc@@QAEXW4ClientFrameStage_t@@@Z@4_NA 100e1f88     Hooks.obj
 0003:00072f89       ?init@?1??Crosshair@Misc@@QAEXXZ@4_NA 100e1f89     Hooks.obj
 0003:00072f8a       ?init2@?1??Crosshair@Misc@@QAEXXZ@4_NA 100e1f8a     Hooks.obj
 0003:00072f8b       ?bLastJumped@?1??DoBhop@Misc@@ABEXXZ@4_NA 100e1f8b     Hooks.obj
 0003:00072f8c       ?bShouldFake@?1??DoBhop@Misc@@ABEXXZ@4_NA 100e1f8c     Hooks.obj
 0003:00072f8d       ?init@?1??DoFakeLag@Misc@@ABEXXZ@4_NA 100e1f8d     Hooks.obj
 0003:00073324       ?_Flag@?1???$_Get_fmt_codec@D@std@@YAABV?$_Fmt_codec@D$0A@@1@XZ@4Uonce_flag@1@A 100e2324     Hooks.obj
 0003:00073328       ?_Storage@?1???$_Get_fmt_codec@D@std@@YAABV?$_Fmt_codec@D$0A@@1@XZ@4PAEA 100e2328     Hooks.obj
 0003:00073354       ?_Psave@?$_Facetptr@V?$numpunct@D@std@@@std@@2PBVfacet@locale@2@B 100e2354     Hooks.obj
 0003:00073360       ?g_Menu@@3VMenu@@A         100e2360     Menu.obj
 0003:00073458       ?verts@?1??RoundedFilledRect@ISurface@@QAEXHHHHMUColor@@@Z@4PAUVertex_t@@A 100e2458     Menu.obj
 0003:000735d8       ?$TSS0@?1??RoundedFilledRect@ISurface@@QAEXHHHHMUColor@@@Z@4HA 100e25d8     Menu.obj
 0003:00073664       ?g_Config@@3PAVCConfig@@A  100e2664     TGFCfg.obj
 0003:00073890       ?pCmd@g@@3PAVCUserCmd@@A   100e2890     GlobalVars.obj
 0003:00073894       ?pLocalEntity@g@@3PAVC_BaseEntity@@A 100e2894     GlobalVars.obj
 0003:00073898       ?uRandomSeed@g@@3IA        100e2898     GlobalVars.obj
 0003:0007389c       ?LagPeek@g@@3_NA           100e289c     GlobalVars.obj
 0003:000738a0       ?Shot@g@@3PA_NA            100e28a0     GlobalVars.obj
 0003:000738e8       ?Hit@g@@3PA_NA             100e28e8     GlobalVars.obj
 0003:00073930       ?MissedShots@g@@3PAHA      100e2930     GlobalVars.obj
 0003:00073a34       ?CourierNew@g@@3KA         100e2a34     GlobalVars.obj
 0003:00073a38       ?Tahoma@g@@3KA             100e2a38     GlobalVars.obj
 0003:00073a3c       ?FakeAngle@g@@3VVector@@A  100e2a3c     GlobalVars.obj
 0003:00073a48       ?OriginalView@g@@3VVector@@A 100e2a48     GlobalVars.obj
 0003:00073a58       ?AimbotHitbox@g@@3PAY0BM@VVector@@A 100e2a58     GlobalVars.obj
 0003:00078fb0       ?RealAngle@g@@3VVector@@A  100e7fb0     GlobalVars.obj
 0003:00078fc0       ?EnemyEyeAngs@g@@3PAVVector@@A 100e7fc0     GlobalVars.obj
 0003:000792cc       ?g_pMaterialSys@@3PAVIMaterialSystem@@A 100e82cc     Interfaces.obj
 0003:000792d0       ?g_pRenderView@@3PAVIVRenderView@@A 100e82d0     Interfaces.obj
 0003:000792d4       ?g_pGlobalVars@@3PAVCGlobalVarsBase@@A 100e82d4     Interfaces.obj
 0003:000792d8       ?g_pClientDll@@3PAVIBaseClientDLL@@A 100e82d8     Interfaces.obj
 0003:000792dc       ?g_pClientState@@3PAVCClientState@@A 100e82dc     Interfaces.obj
 0003:000792e0       ?g_pEngine@@3PAVIVEngineClient@@A 100e82e0     Interfaces.obj
 0003:000792e4       ?g_pPanel@@3PAVIPanel@@A   100e82e4     Interfaces.obj
 0003:000792e8       ?g_pClientMode@@3PAVIClientMode@@A 100e82e8     Interfaces.obj
 0003:000792ec       ?g_pMoveHelper@@3PAVIMoveHelper@@A 100e82ec     Interfaces.obj
 0003:000792f0       ?g_pMovement@@3PAVIGameMovement@@A 100e82f0     Interfaces.obj
 0003:000792f4       ?g_pEntityList@@3PAVIClientEntityList@@A 100e82f4     Interfaces.obj
 0003:000792f8       ?g_pInput@@3PAVCInput@@A   100e82f8     Interfaces.obj
 0003:000792fc       ?g_pPrediction@@3PAVCPrediction@@A 100e82fc     Interfaces.obj
 0003:00079300       ?g_pEventManager@@3PAVIGameEventManager@@A 100e8300     Interfaces.obj
 0003:00079304       ?g_pSurface@@3PAVISurface@@A 100e8304     Interfaces.obj
 0003:00079308       ?g_pTrace@@3PAVIEngineTrace@@A 100e8308     Interfaces.obj
 0003:0007930c       ?g_pSurfaceData@@3PAVIPhysicsSurfaceProps@@A 100e830c     Interfaces.obj
 0003:00079310       ?g_pCvar@@3PAVICVar@@A     100e8310     Interfaces.obj
 0003:00079314       ?g_pModelInfo@@3PAVIVModelInfo@@A 100e8314     Interfaces.obj
 0003:00079318       ?g_pModelRender@@3PAVCModelRender@@A 100e8318     Interfaces.obj
 0003:00079324       ?_Psave@?$_Facetptr@V?$codecvt@DDU_Mbstatet@@@std@@@std@@2PBVfacet@locale@2@B 100e8324     Interfaces.obj
 0003:00079328       ?_Stinit@?1??_Init@?$basic_filebuf@DU?$char_traits@D@std@@@std@@IAEXPAU_iobuf@@W4_Initfl@23@@Z@4U_Mbstatet@@A 100e8328     Interfaces.obj
 0003:00079330       ?g_Math@@3VMath@@A         100e8330     Math.obj
 0003:00079344       ?g_pNetvars@@3V?$unique_ptr@VNetvarTree@@U?$default_delete@VNetvarTree@@@std@@@std@@A 100e8344     NetvarManager.obj
 0003:00079350       ?g_ESP@@3VESP@@A           100e8350     ESP.obj
 0003:000793a0       ___scrt_current_native_startup_state 100e83a0     MSVCRT:utility.obj
 0003:000793a4       ___scrt_native_startup_lock 100e83a4     MSVCRT:utility.obj
 0003:000793cc       __tls_index                100e83cc     MSVCRT:tlssup.obj
 0003:000796f0       ___avx10_version           100e86f0     MSVCRT:cpu_disp.obj
 0003:000796f4       ___isa_available           100e86f4     MSVCRT:cpu_disp.obj
 0003:000796f8       ___favor                   100e86f8     MSVCRT:cpu_disp.obj
 0003:000796fc       ___scrt_debugger_hook_flag 100e86fc     MSVCRT:utility_desktop.obj
 0003:00079700       ?__type_info_root_node@@3U__type_info_node@@A 100e8700     MSVCRT:tncleanup.obj
 0003:00079708       ?_OptionsStorage@?1??__local_stdio_scanf_options@@9@4_KA 100e8708     MSVCRT:default_local_stdio_options.obj
 0003:00079710       ___dyn_tls_init_callback   100e8710     <common>

 entry point at        0001:000408ec

 Static symbols

 0000:fff13000       .debug$S                   10000000     ucrt:api-ms-win-crt-convert-l1-1-0.dll
 0000:fff13000       .debug$S                   10000000     ucrt:api-ms-win-crt-convert-l1-1-0.dll
 0000:fff13000       .debug$S                   10000000     ucrt:api-ms-win-crt-convert-l1-1-0.dll
 0000:fff13000       .debug$S                   10000000     ucrt:api-ms-win-crt-filesystem-l1-1-0.dll
 0000:fff13000       .debug$S                   10000000     ucrt:api-ms-win-crt-filesystem-l1-1-0.dll
 0000:fff13000       .debug$S                   10000000     ucrt:api-ms-win-crt-heap-l1-1-0.dll
 0000:fff13000       .debug$S                   10000000     ucrt:api-ms-win-crt-heap-l1-1-0.dll
 0000:fff13000       .debug$S                   10000000     ucrt:api-ms-win-crt-heap-l1-1-0.dll
 0000:fff13000       .debug$S                   10000000     ucrt:api-ms-win-crt-heap-l1-1-0.dll
 0000:fff13000       .debug$S                   10000000     ucrt:api-ms-win-crt-math-l1-1-0.dll
 0000:fff13000       .debug$S                   10000000     ucrt:api-ms-win-crt-math-l1-1-0.dll
 0000:fff13000       .debug$S                   10000000     ucrt:api-ms-win-crt-math-l1-1-0.dll
 0000:fff13000       .debug$S                   10000000     ucrt:api-ms-win-crt-math-l1-1-0.dll
 0000:fff13000       .debug$S                   10000000     ucrt:api-ms-win-crt-math-l1-1-0.dll
 0000:fff13000       .debug$S                   10000000     ucrt:api-ms-win-crt-math-l1-1-0.dll
 0000:fff13000       .debug$S                   10000000     ucrt:api-ms-win-crt-math-l1-1-0.dll
 0000:fff13000       .debug$S                   10000000     ucrt:api-ms-win-crt-math-l1-1-0.dll
 0000:fff13000       .debug$S                   10000000     ucrt:api-ms-win-crt-math-l1-1-0.dll
 0000:fff13000       .debug$S                   10000000     ucrt:api-ms-win-crt-math-l1-1-0.dll
 0000:fff13000       .debug$S                   10000000     ucrt:api-ms-win-crt-math-l1-1-0.dll
 0000:fff13000       .debug$S                   10000000     ucrt:api-ms-win-crt-math-l1-1-0.dll
 0000:fff13000       .debug$S                   10000000     ucrt:api-ms-win-crt-math-l1-1-0.dll
 0000:fff13000       .debug$S                   10000000     ucrt:api-ms-win-crt-math-l1-1-0.dll
 0000:fff13000       .debug$S                   10000000     ucrt:api-ms-win-crt-math-l1-1-0.dll
 0000:fff13000       .debug$S                   10000000     ucrt:api-ms-win-crt-math-l1-1-0.dll
 0000:fff13000       .debug$S                   10000000     ucrt:api-ms-win-crt-math-l1-1-0.dll
 0000:fff13000       .debug$S                   10000000     ucrt:api-ms-win-crt-math-l1-1-0.dll
 0000:fff13000       .debug$S                   10000000     ucrt:api-ms-win-crt-runtime-l1-1-0.dll
 0000:fff13000       .debug$S                   10000000     ucrt:api-ms-win-crt-runtime-l1-1-0.dll
 0000:fff13000       .debug$S                   10000000     ucrt:api-ms-win-crt-runtime-l1-1-0.dll
 0000:fff13000       .debug$S                   10000000     ucrt:api-ms-win-crt-runtime-l1-1-0.dll
 0000:fff13000       .debug$S                   10000000     ucrt:api-ms-win-crt-runtime-l1-1-0.dll
 0000:fff13000       .debug$S                   10000000     ucrt:api-ms-win-crt-runtime-l1-1-0.dll
 0000:fff13000       .debug$S                   10000000     ucrt:api-ms-win-crt-runtime-l1-1-0.dll
 0000:fff13000       .debug$S                   10000000     ucrt:api-ms-win-crt-runtime-l1-1-0.dll
 0000:fff13000       .debug$S                   10000000     ucrt:api-ms-win-crt-runtime-l1-1-0.dll
 0000:fff13000       .debug$S                   10000000     ucrt:api-ms-win-crt-runtime-l1-1-0.dll
 0000:fff13000       .debug$S                   10000000     ucrt:api-ms-win-crt-runtime-l1-1-0.dll
 0000:fff13000       .debug$S                   10000000     ucrt:api-ms-win-crt-runtime-l1-1-0.dll
 0000:fff13000       .debug$S                   10000000     ucrt:api-ms-win-crt-runtime-l1-1-0.dll
 0000:fff13000       .debug$S                   10000000     ucrt:api-ms-win-crt-runtime-l1-1-0.dll
 0000:fff13000       .debug$S                   10000000     ucrt:api-ms-win-crt-stdio-l1-1-0.dll
 0000:fff13000       .debug$S                   10000000     ucrt:api-ms-win-crt-stdio-l1-1-0.dll
 0000:fff13000       .debug$S                   10000000     ucrt:api-ms-win-crt-stdio-l1-1-0.dll
 0000:fff13000       .debug$S                   10000000     ucrt:api-ms-win-crt-stdio-l1-1-0.dll
 0000:fff13000       .debug$S                   10000000     ucrt:api-ms-win-crt-stdio-l1-1-0.dll
 0000:fff13000       .debug$S                   10000000     ucrt:api-ms-win-crt-stdio-l1-1-0.dll
 0000:fff13000       .debug$S                   10000000     ucrt:api-ms-win-crt-stdio-l1-1-0.dll
 0000:fff13000       .debug$S                   10000000     ucrt:api-ms-win-crt-stdio-l1-1-0.dll
 0000:fff13000       .debug$S                   10000000     ucrt:api-ms-win-crt-stdio-l1-1-0.dll
 0000:fff13000       .debug$S                   10000000     ucrt:api-ms-win-crt-stdio-l1-1-0.dll
 0000:fff13000       .debug$S                   10000000     ucrt:api-ms-win-crt-stdio-l1-1-0.dll
 0000:fff13000       .debug$S                   10000000     ucrt:api-ms-win-crt-stdio-l1-1-0.dll
 0000:fff13000       .debug$S                   10000000     ucrt:api-ms-win-crt-stdio-l1-1-0.dll
 0000:fff13000       .debug$S                   10000000     ucrt:api-ms-win-crt-stdio-l1-1-0.dll
 0000:fff13000       .debug$S                   10000000     ucrt:api-ms-win-crt-string-l1-1-0.dll
 0000:fff13000       .debug$S                   10000000     ucrt:api-ms-win-crt-utility-l1-1-0.dll
 0002:fffbc000       .idata$6                   10000000     ucrt:api-ms-win-crt-utility-l1-1-0.dll
 0000:fff13000       .debug$S                   10000000     kernel32:KERNEL32.dll
 0000:fff13000       .debug$S                   10000000     kernel32:KERNEL32.dll
 0000:fff13000       .debug$S                   10000000     kernel32:KERNEL32.dll
 0000:fff13000       .debug$S                   10000000     kernel32:KERNEL32.dll
 0000:fff13000       .debug$S                   10000000     kernel32:KERNEL32.dll
 0000:fff13000       .debug$S                   10000000     kernel32:KERNEL32.dll
 0000:fff13000       .debug$S                   10000000     kernel32:KERNEL32.dll
 0000:fff13000       .debug$S                   10000000     kernel32:KERNEL32.dll
 0000:fff13000       .debug$S                   10000000     kernel32:KERNEL32.dll
 0000:fff13000       .debug$S                   10000000     kernel32:KERNEL32.dll
 0000:fff13000       .debug$S                   10000000     kernel32:KERNEL32.dll
 0000:fff13000       .debug$S                   10000000     kernel32:KERNEL32.dll
 0000:fff13000       .debug$S                   10000000     kernel32:KERNEL32.dll
 0000:fff13000       .debug$S                   10000000     kernel32:KERNEL32.dll
 0000:fff13000       .debug$S                   10000000     kernel32:KERNEL32.dll
 0000:fff13000       .debug$S                   10000000     kernel32:KERNEL32.dll
 0000:fff13000       .debug$S                   10000000     kernel32:KERNEL32.dll
 0000:fff13000       .debug$S                   10000000     kernel32:KERNEL32.dll
 0000:fff13000       .debug$S                   10000000     kernel32:KERNEL32.dll
 0000:fff13000       .debug$S                   10000000     kernel32:KERNEL32.dll
 0000:fff13000       .debug$S                   10000000     kernel32:KERNEL32.dll
 0000:fff13000       .debug$S                   10000000     kernel32:KERNEL32.dll
 0000:fff13000       .debug$S                   10000000     kernel32:KERNEL32.dll
 0000:fff13000       .debug$S                   10000000     kernel32:KERNEL32.dll
 0000:fff13000       .debug$S                   10000000     kernel32:KERNEL32.dll
 0000:fff13000       .debug$S                   10000000     kernel32:KERNEL32.dll
 0000:fff13000       .debug$S                   10000000     kernel32:KERNEL32.dll
 0000:fff13000       .debug$S                   10000000     kernel32:KERNEL32.dll
 0000:fff13000       .debug$S                   10000000     kernel32:KERNEL32.dll
 0000:fff13000       .debug$S                   10000000     kernel32:KERNEL32.dll
 0000:fff13000       .debug$S                   10000000     kernel32:KERNEL32.dll
 0000:fff13000       .debug$S                   10000000     kernel32:KERNEL32.dll
 0000:fff13000       .debug$S                   10000000     kernel32:KERNEL32.dll
 0000:fff13000       .debug$S                   10000000     kernel32:KERNEL32.dll
 0000:fff13000       .debug$S                   10000000     kernel32:KERNEL32.dll
 0000:fff13000       .debug$S                   10000000     kernel32:KERNEL32.dll
 0000:fff13000       .debug$S                   10000000     kernel32:KERNEL32.dll
 0000:fff13000       .debug$S                   10000000     kernel32:KERNEL32.dll
 0000:fff13000       .debug$S                   10000000     shell32:SHELL32.dll
 0000:fff13000       .debug$S                   10000000     user32:USER32.dll
 0000:fff13000       .debug$S                   10000000     user32:USER32.dll
 0000:fff13000       .debug$S                   10000000     user32:USER32.dll
 0000:fff13000       .debug$S                   10000000     user32:USER32.dll
 0000:fff13000       .debug$S                   10000000     user32:USER32.dll
 0000:fff13000       .debug$S                   10000000     user32:USER32.dll
 0000:fff13000       .debug$S                   10000000     user32:USER32.dll
 0000:fff13000       .debug$S                   10000000     user32:USER32.dll
 0000:fff13000       .debug$S                   10000000     msvcprt:MSVCP140.dll
 0000:fff13000       .debug$S                   10000000     msvcprt:MSVCP140.dll
 0000:fff13000       .debug$S                   10000000     msvcprt:MSVCP140.dll
 0000:fff13000       .debug$S                   10000000     msvcprt:MSVCP140.dll
 0000:fff13000       .debug$S                   10000000     msvcprt:MSVCP140.dll
 0000:fff13000       .debug$S                   10000000     msvcprt:MSVCP140.dll
 0000:fff13000       .debug$S                   10000000     msvcprt:MSVCP140.dll
 0000:fff13000       .debug$S                   10000000     msvcprt:MSVCP140.dll
 0000:fff13000       .debug$S                   10000000     msvcprt:MSVCP140.dll
 0000:fff13000       .debug$S                   10000000     msvcprt:MSVCP140.dll
 0000:fff13000       .debug$S                   10000000     msvcprt:MSVCP140.dll
 0000:fff13000       .debug$S                   10000000     msvcprt:MSVCP140.dll
 0000:fff13000       .debug$S                   10000000     msvcprt:MSVCP140.dll
 0000:fff13000       .debug$S                   10000000     msvcprt:MSVCP140.dll
 0000:fff13000       .debug$S                   10000000     msvcprt:MSVCP140.dll
 0000:fff13000       .debug$S                   10000000     msvcprt:MSVCP140.dll
 0000:fff13000       .debug$S                   10000000     msvcprt:MSVCP140.dll
 0000:fff13000       .debug$S                   10000000     msvcprt:MSVCP140.dll
 0000:fff13000       .debug$S                   10000000     msvcprt:MSVCP140.dll
 0000:fff13000       .debug$S                   10000000     msvcprt:MSVCP140.dll
 0000:fff13000       .debug$S                   10000000     msvcprt:MSVCP140.dll
 0000:fff13000       .debug$S                   10000000     msvcprt:MSVCP140.dll
 0000:fff13000       .debug$S                   10000000     msvcprt:MSVCP140.dll
 0000:fff13000       .debug$S                   10000000     msvcprt:MSVCP140.dll
 0000:fff13000       .debug$S                   10000000     msvcprt:MSVCP140.dll
 0000:fff13000       .debug$S                   10000000     msvcprt:MSVCP140.dll
 0000:fff13000       .debug$S                   10000000     msvcprt:MSVCP140.dll
 0000:fff13000       .debug$S                   10000000     msvcprt:MSVCP140.dll
 0000:fff13000       .debug$S                   10000000     msvcprt:MSVCP140.dll
 0000:fff13000       .debug$S                   10000000     msvcprt:MSVCP140.dll
 0000:fff13000       .debug$S                   10000000     msvcprt:MSVCP140.dll
 0000:fff13000       .debug$S                   10000000     msvcprt:MSVCP140.dll
 0000:fff13000       .debug$S                   10000000     msvcprt:MSVCP140.dll
 0000:fff13000       .debug$S                   10000000     msvcprt:MSVCP140.dll
 0000:fff13000       .debug$S                   10000000     msvcprt:MSVCP140.dll
 0000:fff13000       .debug$S                   10000000     msvcprt:MSVCP140.dll
 0000:fff13000       .debug$S                   10000000     msvcprt:MSVCP140.dll
 0000:fff13000       .debug$S                   10000000     msvcprt:MSVCP140.dll
 0000:fff13000       .debug$S                   10000000     msvcprt:MSVCP140.dll
 0000:fff13000       .debug$S                   10000000     msvcprt:MSVCP140.dll
 0000:fff13000       .debug$S                   10000000     msvcprt:MSVCP140.dll
 0000:fff13000       .debug$S                   10000000     msvcprt:MSVCP140.dll
 0000:fff13000       .debug$S                   10000000     msvcprt:MSVCP140.dll
 0000:fff13000       .debug$S                   10000000     msvcprt:MSVCP140.dll
 0000:fff13000       .debug$S                   10000000     msvcprt:MSVCP140.dll
 0000:fff13000       .debug$S                   10000000     msvcprt:MSVCP140.dll
 0000:fff13000       .debug$S                   10000000     msvcprt:MSVCP140.dll
 0000:fff13000       .debug$S                   10000000     msvcprt:MSVCP140.dll
 0000:fff13000       .debug$S                   10000000     msvcprt:MSVCP140.dll
 0000:fff13000       .debug$S                   10000000     msvcprt:MSVCP140.dll
 0000:fff13000       .debug$S                   10000000     msvcprt:MSVCP140.dll
 0000:fff13000       .debug$S                   10000000     msvcprt:MSVCP140.dll
 0000:fff13000       .debug$S                   10000000     msvcprt:MSVCP140.dll
 0000:fff13000       .debug$S                   10000000     msvcprt:MSVCP140.dll
 0000:fff13000       .debug$S                   10000000     msvcprt:MSVCP140.dll
 0000:fff13000       .debug$S                   10000000     msvcprt:MSVCP140.dll
 0000:fff13000       .debug$S                   10000000     msvcprt:MSVCP140.dll
 0000:fff13000       .debug$S                   10000000     msvcprt:MSVCP140.dll
 0000:fff13000       .debug$S                   10000000     msvcprt:MSVCP140.dll
 0000:fff13000       .debug$S                   10000000     msvcprt:MSVCP140.dll
 0000:fff13000       .debug$S                   10000000     msvcprt:MSVCP140.dll
 0000:fff13000       .debug$S                   10000000     msvcprt:MSVCP140.dll
 0000:fff13000       .debug$S                   10000000     msvcprt:MSVCP140.dll
 0000:fff13000       .debug$S                   10000000     msvcprt:MSVCP140.dll
 0000:fff13000       .debug$S                   10000000     msvcprt:MSVCP140.dll
 0000:fff13000       .debug$S                   10000000     msvcprt:MSVCP140.dll
 0000:fff13000       .debug$S                   10000000     msvcprt:MSVCP140.dll
 0000:fff13000       .debug$S                   10000000     msvcprt:MSVCP140.dll
 0000:fff13000       .debug$S                   10000000     msvcprt:MSVCP140.dll
 0000:fff13000       .debug$S                   10000000     msvcprt:MSVCP140.dll
 0000:fff13000       .debug$S                   10000000     vcruntime:VCRUNTIME140.dll
 0000:fff13000       .debug$S                   10000000     vcruntime:VCRUNTIME140.dll
 0000:fff13000       .debug$S                   10000000     vcruntime:VCRUNTIME140.dll
 0000:fff13000       .debug$S                   10000000     vcruntime:VCRUNTIME140.dll
 0000:fff13000       .debug$S                   10000000     vcruntime:VCRUNTIME140.dll
 0000:fff13000       .debug$S                   10000000     vcruntime:VCRUNTIME140.dll
 0000:fff13000       .debug$S                   10000000     vcruntime:VCRUNTIME140.dll
 0000:fff13000       .debug$S                   10000000     vcruntime:VCRUNTIME140.dll
 0000:fff13000       .debug$S                   10000000     vcruntime:VCRUNTIME140.dll
 0000:fff13000       .debug$S                   10000000     vcruntime:VCRUNTIME140.dll
 0000:fff13000       .debug$S                   10000000     vcruntime:VCRUNTIME140.dll
 0000:fff13000       .debug$S                   10000000     vcruntime:VCRUNTIME140.dll
 0000:fff13000       .debug$S                   10000000     vcruntime:VCRUNTIME140.dll
 0000:fff13000       .debug$S                   10000000     vcruntime:VCRUNTIME140.dll
 0000:fff13000       .debug$S                   10000000     vcruntime:VCRUNTIME140.dll
 0001:00000000       ??__Edata@netvar@@YAXXZ    10001000 f   EnginePrediction.obj
 0001:00000020       ??__Evec2_origin@@YAXXZ    10001020 f   EnginePrediction.obj
 0001:00000050       ??__Eg_Aimbot@@YAXXZ       10001050 f   Aimbot.obj
 0001:00000060       ??__Evec2_origin@@YAXXZ    10001060 f   Aimbot.obj
 0001:00000090       ??__Evec2_origin@@YAXXZ    10001090 f   Autowall.obj
 0001:000000c0       ??__Eg_LagComp@@YAXXZ      100010c0 f   LagComp.obj
 0001:000000e0       ??__Evec2_origin@@YAXXZ    100010e0 f   LagComp.obj
 0001:00000110       ??__Evec2_origin@@YAXXZ    10001110 f   AntiAim.obj
 0001:00000140       ??__Eg_Legitbot@@YAXXZ     10001140 f   Legitbot.obj
 0001:00000160       ??__Evec2_origin@@YAXXZ    10001160 f   Legitbot.obj
 0001:00000190       ??__Eg_Resolver@@YAXXZ     10001190 f   Resolver.obj
 0001:000001a0       ??__Evec2_origin@@YAXXZ    100011a0 f   Resolver.obj
 0001:000001d0       ??__Eg_Event@@YAXXZ        100011d0 f   Hooks.obj
 0001:000001f0       ??__Eg_Hooks@@YAXXZ        100011f0 f   Hooks.obj
 0001:00000210       ??__Evec2_origin@@YAXXZ    10001210 f   Hooks.obj
 0001:00000240       ??__Evec2_origin@@YAXXZ    10001240 f   DLLMain.obj
 0001:00000270       ??__Eg_Menu@@YAXXZ         10001270 f   Menu.obj
 0001:00000280       ??__Evec2_origin@@YAXXZ    10001280 f   Menu.obj
 0001:000002b0       ??__Eg_Config@@YAXXZ       100012b0 f   TGFCfg.obj
 0001:00000330       ??__Evec2_origin@@YAXXZ    10001330 f   CEntity.obj
 0001:00000360       ??__EAimbotHitbox@g@@YAXXZ 10001360 f   GlobalVars.obj
 0001:00000380       ??__EEnemyEyeAngs@g@@YAXXZ 10001380 f   GlobalVars.obj
 0001:000003a0       ??__EFakeAngle@g@@YAXXZ    100013a0 f   GlobalVars.obj
 0001:000003b0       ??__EOriginalView@g@@YAXXZ 100013b0 f   GlobalVars.obj
 0001:000003c0       ??__ERealAngle@g@@YAXXZ    100013c0 f   GlobalVars.obj
 0001:000003d0       ??__Evec2_origin@@YAXXZ    100013d0 f   GlobalVars.obj
 0001:00000400       ??__Evec2_origin@@YAXXZ    10001400 f   Interfaces.obj
 0001:00000430       ??__Evec2_origin@@YAXXZ    10001430 f   Math.obj
 0001:00000460       ??__Eg_pNetvars@@YAXXZ     10001460 f   NetvarManager.obj
 0001:00000480       ??__Eg_ESP@@YAXXZ          10001480 f   ESP.obj
 0001:00000490       ??__Evec2_origin@@YAXXZ    10001490 f   ESP.obj
 0001:000004b2       ??__E_Fac_tidy_reg@std@@YAXXZ 100014b2 f   msvcprt:locale0_implib.obj
 0001:00008d64       $LN9                       10009d64     Autowall.obj
 0001:0000e6c0       ??R<lambda_1>@?1??AnimationFix@Resolver@@AAEXPAVC_BaseEntity@@@Z@QBEMMMMMM@Z 1000f6c0 f   Resolver.obj
 0001:00010ee0       ??0<lambda_1>@?1??WndProc@Hooks@@SGJPAUHWND__@@IIJ@Z@QAE@ABI1@Z 10011ee0 f i Hooks.obj
 0001:00010ee0       ??0<lambda_2>@?1??WndProc@Hooks@@SGJPAUHWND__@@IIJ@Z@QAE@ABI1@Z 10011ee0 f i Hooks.obj
 0001:00012e44       $LN23                      10013e44     Hooks.obj
 0001:00013124       $LN23                      10014124     Hooks.obj
 0001:00016074       $LN70                      10017074     Hooks.obj
 0001:00016098       $LN69                      10017098     Hooks.obj
 0001:000160c0       $LN71                      100170c0     Hooks.obj
 0001:00016ac4       $LN70                      10017ac4     Hooks.obj
 0001:00016ae8       $LN69                      10017ae8     Hooks.obj
 0001:00016b10       $LN71                      10017b10     Hooks.obj
 0001:00017514       $LN70                      10018514     Hooks.obj
 0001:00017538       $LN69                      10018538     Hooks.obj
 0001:00017560       $LN71                      10018560     Hooks.obj
 0001:00017a60       $LN14                      10018a60     Hooks.obj
 0001:00017a78       $LN13                      10018a78     Hooks.obj
 0001:00017b7c       $LN14                      10018b7c     Hooks.obj
 0001:00017b7c       $LN14                      10018b7c     Hooks.obj
 0001:00017b94       $LN13                      10018b94     Hooks.obj
 0001:00017b94       $LN13                      10018b94     Hooks.obj
 0001:00017ca0       $LN14                      10018ca0     Hooks.obj
 0001:00017ca0       $LN14                      10018ca0     Hooks.obj
 0001:00017cb8       $LN13                      10018cb8     Hooks.obj
 0001:00017cb8       $LN13                      10018cb8     Hooks.obj
 0001:000182c0       $LN44                      100192c0     Hooks.obj
 0001:000182e0       $LN43                      100192e0     Hooks.obj
 0001:000185a4       $LN46                      100195a4     Hooks.obj
 0001:000185c4       $LN45                      100195c4     Hooks.obj
 0001:00018848       $LN44                      10019848     Hooks.obj
 0001:00018868       $LN43                      10019868     Hooks.obj
 0001:00018c90       $LN52                      10019c90     Hooks.obj
 0001:00018cb0       $LN51                      10019cb0     Hooks.obj
 0001:00019084       $LN49                      1001a084     Hooks.obj
 0001:000190a4       $LN48                      1001a0a4     Hooks.obj
 0001:00019908       $LN59                      1001a908     Hooks.obj
 0001:00019928       $LN58                      1001a928     Hooks.obj
 0001:000199a4       $LN60                      1001a9a4     Hooks.obj
 0001:0001aa84       $LN20                      1001ba84     Hooks.obj
 0001:0001acb4       $LN20                      1001bcb4     Hooks.obj
 0001:0001ae78       $LN20                      1001be78     Hooks.obj
 0001:0001b038       $LN20                      1001c038     Hooks.obj
 0001:0001c534       $LN27                      1001d534     Hooks.obj
 0001:0001c544       $LN26                      1001d544     Hooks.obj
 0001:0001c9b0       $LN27                      1001d9b0     Hooks.obj
 0001:0001c9c0       $LN26                      1001d9c0     Hooks.obj
 0001:0001ce30       $LN27                      1001de30     Hooks.obj
 0001:0001ce40       $LN26                      1001de40     Hooks.obj
 0001:0001d2d0       $LN27                      1001e2d0     Hooks.obj
 0001:0001d2e0       $LN26                      1001e2e0     Hooks.obj
 0001:0001d770       $LN27                      1001e770     Hooks.obj
 0001:0001d780       $LN26                      1001e780     Hooks.obj
 0001:000264c4       __catch$?RestoreTable@ShadowVTManager@@QAEXXZ$0 100274c4 f i Hooks.obj
 0001:000272dc       $LN36                      100282dc     Hooks.obj
 0001:000272f0       $LN35                      100282f0     Hooks.obj
 0001:0002b79c       $LN22                      1002c79c     Hooks.obj
 0001:0002d680       ??0<unnamed-type-Config>@Menu@@QAE@XZ 1002e680 f   Menu.obj
 0001:0002d7b0       ??0<unnamed-type-Pos>@Menu@@QAE@XZ 1002e7b0 f   Menu.obj
 0001:0002fb94       $LN13                      10030b94     Menu.obj
 0001:00037e1c       $LN20                      10038e1c     checksum_crc32.obj
 0001:000380fb       __catch$??$?6U?$char_traits@D@std@@@std@@YAAAV?$basic_ostream@DU?$char_traits@D@std@@@0@AAV10@PBD@Z$0 100390fb f i Interfaces.obj
 0001:0003f640       ??$__std_find_trivial_impl@U_Find_traits_1@?A0x8417fefe@@E@?A0x8417fefe@@YGPBXPBX0E@Z 10040640 f   msvcprt:vector_algorithms.obj
 0001:0003f985       ?find_pe_section@@YAPAU_IMAGE_SECTION_HEADER@@QAEI@Z 10040985 f   MSVCRT:utility.obj
 0001:0003fda0       $$000000                   10040da0     MSVCRT:ftol3.obj
 0001:0003fdbf       _ftol3_default             10040dbf     MSVCRT:ftol3.obj
 0001:0003fdd3       _ftol3_notsafe             10040dd3     MSVCRT:ftol3.obj
 0001:0003fdf3       _ftol3_mincheck            10040df3     MSVCRT:ftol3.obj
 0001:0003fdf9       _ftol3_NaN                 10040df9     MSVCRT:ftol3.obj
 0001:0003fe01       _ftol3_retmin              10040e01     MSVCRT:ftol3.obj
 0001:00040030       $$000000                   10041030     MSVCRT:chkstk.obj
 0001:00040044       cs10                       10041044     MSVCRT:chkstk.obj
 0001:00040052       cs20                       10041052     MSVCRT:chkstk.obj
 0001:00040220       $$000000                   10041220     MSVCRT:ftol2.obj
 0001:00040230       $$000000                   10041230     MSVCRT:ftol2.obj
 0001:00040241       L3B                        10041241     MSVCRT:ftol2.obj
 0001:00040284       L3F                        10041284     MSVCRT:ftol2.obj
 0001:0004028c       L40                        1004128c     MSVCRT:ftol2.obj
 0001:0004029f       L41                        1004129f     MSVCRT:ftol2.obj
 0001:000402c0       $$000000                   100412c0     MSVCRT:lldiv.obj
 0001:000402e1       L1                         100412e1     MSVCRT:lldiv.obj
 0001:000402fd       L2                         100412fd     MSVCRT:lldiv.obj
 0001:00040319       L3                         10041319     MSVCRT:lldiv.obj
 0001:00040327       L5                         10041327     MSVCRT:lldiv.obj
 0001:00040355       L6                         10041355     MSVCRT:lldiv.obj
 0001:00040356       L7                         10041356     MSVCRT:lldiv.obj
 0001:0004035a       L4                         1004135a     MSVCRT:lldiv.obj
 0001:00040364       L8                         10041364     MSVCRT:lldiv.obj
 0001:00040370       $$000000                   10041370     MSVCRT:llmul.obj
 0001:00040389       hard                       10041389     MSVCRT:llmul.obj
 0001:000403b0       $$000000                   100413b0     MSVCRT:llrem.obj
 0001:000403d0       L1                         100413d0     MSVCRT:llrem.obj
 0001:000403eb       L2                         100413eb     MSVCRT:llrem.obj
 0001:0004040a       L3                         1004140a     MSVCRT:llrem.obj
 0001:00040418       L5                         10041418     MSVCRT:llrem.obj
 0001:00040443       L6                         10041443     MSVCRT:llrem.obj
 0001:0004044b       L7                         1004144b     MSVCRT:llrem.obj
 0001:00040456       L4                         10041456     MSVCRT:llrem.obj
 0001:0004045d       L8                         1004145d     MSVCRT:llrem.obj
 0001:00040470       $$000000                   10041470     MSVCRT:llshl.obj
 0001:00040480       MORE32                     10041480     MSVCRT:llshl.obj
 0001:0004048a       RETZERO                    1004148a     MSVCRT:llshl.obj
 0001:00040490       $$000000                   10041490     MSVCRT:ulldiv.obj
 0001:000404b2       L1                         100414b2     MSVCRT:ulldiv.obj
 0001:000404c0       L3                         100414c0     MSVCRT:ulldiv.obj
 0001:000404ee       L4                         100414ee     MSVCRT:ulldiv.obj
 0001:000404ef       L5                         100414ef     MSVCRT:ulldiv.obj
 0001:000404f3       L2                         100414f3     MSVCRT:ulldiv.obj
 0001:00040500       $$000000                   10041500     MSVCRT:ullrem.obj
 0001:00040521       L1                         10041521     MSVCRT:ullrem.obj
 0001:0004052f       L3                         1004152f     MSVCRT:ullrem.obj
 0001:0004055a       L4                         1004155a     MSVCRT:ullrem.obj
 0001:00040562       L5                         10041562     MSVCRT:ullrem.obj
 0001:00040571       L2                         10041571     MSVCRT:ullrem.obj
 0001:00040580       $$000000                   10041580     MSVCRT:ullshr.obj
 0001:00040590       MORE32                     10041590     MSVCRT:ullshr.obj
 0001:0004059a       RETZERO                    1004159a     MSVCRT:ullshr.obj
 0001:0004059f       ?dllmain_crt_dispatch@@YGHQAUHINSTANCE__@@KQAX@Z 1004159f f   MSVCRT:dll_dllmain.obj
 0001:000405f2       ?dllmain_crt_process_attach@@YAHQAUHINSTANCE__@@QAX@Z 100415f2 f   MSVCRT:dll_dllmain.obj
 0001:000406fc       ?dllmain_crt_process_detach@@YAH_N@Z 100416fc f   MSVCRT:dll_dllmain.obj
 0001:000407b3       ?dllmain_dispatch@@YAHQAUHINSTANCE__@@KQAX@Z 100417b3 f   MSVCRT:dll_dllmain.obj
 0001:000408c1       ?dllmain_raw@@YGHQAUHINSTANCE__@@KQAX@Z 100418c1 f   MSVCRT:dll_dllmain.obj
 0001:00040dc0       $$000000                   10041dc0     MSVCRT:sehprolg4.obj
 0001:00040e05       ___get_entropy             10041e05 f   MSVCRT:gs_support.obj
 0001:000410b0       __unwindfunclet$??$?0ABUpiecewise_construct_t@std@@V?$tuple@$$QAV?$basic_string@DU?$char_traits@D@std@@V?$allocator@D@2@@std@@@1@V?$tuple@$$V@1@@?$_List_node_emplace_op2@V?$allocator@U?$_List_node@U?$pair@$$CBV?$basic_string@DU?$char_traits@D@std@@V?$allocator@D@2@@std@@V?$shared_ptr@UNode@NetvarTree@@@2@@std@@PAX@std@@@std@@@std@@QAE@AAV?$allocator@U?$_List_node@U?$pair@$$CBV?$basic_string@DU?$char_traits@D@std@@V?$allocator@D@2@@std@@V?$shared_ptr@UNode@NetvarTree@@@2@@std@@PAX@std@@@1@ABUpiecewise_construct_t@1@$$QAV?$tuple@$$QAV?$basic_string@DU?$char_traits@D@std@@V?$allocator@D@2@@std@@@1@$$QAV?$tuple@$$V@1@@Z$0 100420b0 f   EnginePrediction.obj
 0001:000410b0       __unwindfunclet$??$?0PBDABV?$shared_ptr@UNode@NetvarTree@@@std@@@?$_List_node_emplace_op2@V?$allocator@U?$_List_node@U?$pair@$$CBV?$basic_string@DU?$char_traits@D@std@@V?$allocator@D@2@@std@@V?$shared_ptr@UNode@NetvarTree@@@2@@std@@PAX@std@@@std@@@std@@QAE@AAV?$allocator@U?$_List_node@U?$pair@$$CBV?$basic_string@DU?$char_traits@D@std@@V?$allocator@D@2@@std@@V?$shared_ptr@UNode@NetvarTree@@@2@@std@@PAX@std@@@1@$$QAPBDABV?$shared_ptr@UNode@NetvarTree@@@1@@Z$0 100420b0 f   NetvarManager.obj
 0001:000410bd       __ehhandler$??$?0ABUpiecewise_construct_t@std@@V?$tuple@$$QAV?$basic_string@DU?$char_traits@D@std@@V?$allocator@D@2@@std@@@1@V?$tuple@$$V@1@@?$_List_node_emplace_op2@V?$allocator@U?$_List_node@U?$pair@$$CBV?$basic_string@DU?$char_traits@D@std@@V?$allocator@D@2@@std@@V?$shared_ptr@UNode@NetvarTree@@@2@@std@@PAX@std@@@std@@@std@@QAE@AAV?$allocator@U?$_List_node@U?$pair@$$CBV?$basic_string@DU?$char_traits@D@std@@V?$allocator@D@2@@std@@V?$shared_ptr@UNode@NetvarTree@@@2@@std@@PAX@std@@@1@ABUpiecewise_construct_t@1@$$QAV?$tuple@$$QAV?$basic_string@DU?$char_traits@D@std@@V?$allocator@D@2@@std@@@1@$$QAV?$tuple@$$V@1@@Z 100420bd f   EnginePrediction.obj
 0001:000410bd       __ehhandler$??$?0PBDABV?$shared_ptr@UNode@NetvarTree@@@std@@@?$_List_node_emplace_op2@V?$allocator@U?$_List_node@U?$pair@$$CBV?$basic_string@DU?$char_traits@D@std@@V?$allocator@D@2@@std@@V?$shared_ptr@UNode@NetvarTree@@@2@@std@@PAX@std@@@std@@@std@@QAE@AAV?$allocator@U?$_List_node@U?$pair@$$CBV?$basic_string@DU?$char_traits@D@std@@V?$allocator@D@2@@std@@V?$shared_ptr@UNode@NetvarTree@@@2@@std@@PAX@std@@@1@$$QAPBDABV?$shared_ptr@UNode@NetvarTree@@@1@@Z 100420bd f   NetvarManager.obj
 0001:000410e0       __ehhandler$??$?0V?$basic_string@DU?$char_traits@D@std@@V?$allocator@D@2@@std@@$$V$0A@@?$tuple@$$QAV?$basic_string@DU?$char_traits@D@std@@V?$allocator@D@2@@std@@@std@@QAE@$$QAV?$basic_string@DU?$char_traits@D@std@@V?$allocator@D@2@@1@@Z 100420e0 f   EnginePrediction.obj
 0001:000410e0       __ehhandler$??1ShadowVTManager@@QAE@XZ 100420e0 f   Hooks.obj
 0001:000410e0       __ehhandler$?_Units_in_next_character@?$_Fmt_codec@D$0A@@std@@QBEHQBD0@Z 100420e0 f   Hooks.obj
 0001:000410e0       __ehhandler$??$?0I$$V$0A@@?$tuple@$$QAI@std@@QAE@$$QAI@Z 100420e0 f   Resolver.obj
 0001:00041100       __unwindfunclet$??$GetOffset@PBD@NetvarTree@@QAEHPBD0@Z$0 10042100 f   EnginePrediction.obj
 0001:00041100       __unwindfunclet$??$GetOffset@PBDPBD@NetvarTree@@QAEHPBD00@Z$0 10042100 f   EnginePrediction.obj
 0001:0004110d       __ehhandler$??$GetOffset@PBD@NetvarTree@@QAEHPBD0@Z 1004210d f   EnginePrediction.obj
 0001:0004110d       __ehhandler$??$GetOffset@PBDPBD@NetvarTree@@QAEHPBD00@Z 1004210d f   EnginePrediction.obj
 0001:00041140       __unwindfunclet$??$GetOffsetRecursive@PBD@NetvarTree@@AAEHAAV?$unordered_map@V?$basic_string@DU?$char_traits@D@std@@V?$allocator@D@2@@std@@V?$shared_ptr@UNode@NetvarTree@@@2@U?$hash@V?$basic_string@DU?$char_traits@D@std@@V?$allocator@D@2@@std@@@2@U?$equal_to@V?$basic_string@DU?$char_traits@D@std@@V?$allocator@D@2@@std@@@2@V?$allocator@U?$pair@$$CBV?$basic_string@DU?$char_traits@D@std@@V?$allocator@D@2@@std@@V?$shared_ptr@UNode@NetvarTree@@@2@@std@@@2@@std@@HPBD1@Z$0 10042140 f   EnginePrediction.obj
 0001:0004114d       __ehhandler$??$GetOffsetRecursive@PBD@NetvarTree@@AAEHAAV?$unordered_map@V?$basic_string@DU?$char_traits@D@std@@V?$allocator@D@2@@std@@V?$shared_ptr@UNode@NetvarTree@@@2@U?$hash@V?$basic_string@DU?$char_traits@D@std@@V?$allocator@D@2@@std@@@2@U?$equal_to@V?$basic_string@DU?$char_traits@D@std@@V?$allocator@D@2@@std@@@2@V?$allocator@U?$pair@$$CBV?$basic_string@DU?$char_traits@D@std@@V?$allocator@D@2@@std@@V?$shared_ptr@UNode@NetvarTree@@@2@@std@@@2@@std@@HPBD1@Z 1004214d f   EnginePrediction.obj
 0001:00041180       __ehhandler$??$_Deallocate@$07@std@@YAXPAXI@Z 10042180 f   EnginePrediction.obj
 0001:00041180       __ehhandler$??$_Freenode@V?$allocator@U?$_List_node@U?$pair@$$CBII@std@@PAX@std@@@std@@@?$_List_node@U?$pair@$$CBII@std@@PAX@std@@SAXAAV?$allocator@U?$_List_node@U?$pair@$$CBII@std@@PAX@std@@@1@PAU01@@Z 10042180 f   EnginePrediction.obj
 0001:00041180       __ehhandler$??$_Freenode@V?$allocator@U?$_List_node@U?$pair@$$CBV?$basic_string@DU?$char_traits@D@std@@V?$allocator@D@2@@std@@V?$shared_ptr@UNode@NetvarTree@@@2@@std@@PAX@std@@@std@@@?$_List_node@U?$pair@$$CBV?$basic_string@DU?$char_traits@D@std@@V?$allocator@D@2@@std@@V?$shared_ptr@UNode@NetvarTree@@@2@@std@@PAX@std@@SAXAAV?$allocator@U?$_List_node@U?$pair@$$CBV?$basic_string@DU?$char_traits@D@std@@V?$allocator@D@2@@std@@V?$shared_ptr@UNode@NetvarTree@@@2@@std@@PAX@std@@@1@PAU01@@Z 10042180 f   EnginePrediction.obj
 0001:00041180       __ehhandler$??$_Destroy_range@V?$allocator@V?$basic_string@DU?$char_traits@D@std@@V?$allocator@D@2@@std@@@std@@@std@@YAXPAV?$basic_string@DU?$char_traits@D@std@@V?$allocator@D@2@@0@QAV10@AAV?$allocator@V?$basic_string@DU?$char_traits@D@std@@V?$allocator@D@2@@std@@@0@@Z 10042180 f   Menu.obj
 0001:000411a0       __unwindfunclet$??$_Try_emplace@V?$basic_string@DU?$char_traits@D@std@@V?$allocator@D@2@@std@@$$V@?$_Hash@V?$_Umap_traits@V?$basic_string@DU?$char_traits@D@std@@V?$allocator@D@2@@std@@V?$shared_ptr@UNode@NetvarTree@@@2@V?$_Uhash_compare@V?$basic_string@DU?$char_traits@D@std@@V?$allocator@D@2@@std@@U?$hash@V?$basic_string@DU?$char_traits@D@std@@V?$allocator@D@2@@std@@@2@U?$equal_to@V?$basic_string@DU?$char_traits@D@std@@V?$allocator@D@2@@std@@@2@@2@V?$allocator@U?$pair@$$CBV?$basic_string@DU?$char_traits@D@std@@V?$allocator@D@2@@std@@V?$shared_ptr@UNode@NetvarTree@@@2@@std@@@2@$0A@@std@@@std@@IAE?AU?$pair@PAU?$_List_node@U?$pair@$$CBV?$basic_string@DU?$char_traits@D@std@@V?$allocator@D@2@@std@@V?$shared_ptr@UNode@NetvarTree@@@2@@std@@PAX@std@@_N@1@$$QAV?$basic_string@DU?$char_traits@D@std@@V?$allocator@D@2@@1@@Z$0 100421a0 f   EnginePrediction.obj
 0001:000411ad       __ehhandler$??$_Try_emplace@V?$basic_string@DU?$char_traits@D@std@@V?$allocator@D@2@@std@@$$V@?$_Hash@V?$_Umap_traits@V?$basic_string@DU?$char_traits@D@std@@V?$allocator@D@2@@std@@V?$shared_ptr@UNode@NetvarTree@@@2@V?$_Uhash_compare@V?$basic_string@DU?$char_traits@D@std@@V?$allocator@D@2@@std@@U?$hash@V?$basic_string@DU?$char_traits@D@std@@V?$allocator@D@2@@std@@@2@U?$equal_to@V?$basic_string@DU?$char_traits@D@std@@V?$allocator@D@2@@std@@@2@@2@V?$allocator@U?$pair@$$CBV?$basic_string@DU?$char_traits@D@std@@V?$allocator@D@2@@std@@V?$shared_ptr@UNode@NetvarTree@@@2@@std@@@2@$0A@@std@@@std@@IAE?AU?$pair@PAU?$_List_node@U?$pair@$$CBV?$basic_string@DU?$char_traits@D@std@@V?$allocator@D@2@@std@@V?$shared_ptr@UNode@NetvarTree@@@2@@std@@PAX@std@@_N@1@$$QAV?$basic_string@DU?$char_traits@D@std@@V?$allocator@D@2@@1@@Z 100421ad f   EnginePrediction.obj
 0001:000411d0       __unwindfunclet$??$uninitialized_fill@PAV?$_List_unchecked_iterator@V?$_List_val@U?$_List_simple_types@U?$pair@$$CBII@std@@@std@@@std@@@std@@V12@@std@@YAXQAV?$_List_unchecked_iterator@V?$_List_val@U?$_List_simple_types@U?$pair@$$CBII@std@@@std@@@std@@@0@0ABV10@@Z$0 100421d0 f   EnginePrediction.obj
 0001:000411d0       __unwindfunclet$??$uninitialized_fill@PAV?$_List_unchecked_iterator@V?$_List_val@U?$_List_simple_types@U?$pair@$$CBV?$basic_string@DU?$char_traits@D@std@@V?$allocator@D@2@@std@@V?$shared_ptr@UNode@NetvarTree@@@2@@std@@@std@@@std@@@std@@V12@@std@@YAXQAV?$_List_unchecked_iterator@V?$_List_val@U?$_List_simple_types@U?$pair@$$CBV?$basic_string@DU?$char_traits@D@std@@V?$allocator@D@2@@std@@V?$shared_ptr@UNode@NetvarTree@@@2@@std@@@std@@@std@@@0@0ABV10@@Z$0 100421d0 f   EnginePrediction.obj
 0001:000411dd       __ehhandler$??$uninitialized_fill@PAV?$_List_unchecked_iterator@V?$_List_val@U?$_List_simple_types@U?$pair@$$CBII@std@@@std@@@std@@@std@@V12@@std@@YAXQAV?$_List_unchecked_iterator@V?$_List_val@U?$_List_simple_types@U?$pair@$$CBII@std@@@std@@@std@@@0@0ABV10@@Z 100421dd f   EnginePrediction.obj
 0001:000411dd       __ehhandler$??$uninitialized_fill@PAV?$_List_unchecked_iterator@V?$_List_val@U?$_List_simple_types@U?$pair@$$CBV?$basic_string@DU?$char_traits@D@std@@V?$allocator@D@2@@std@@V?$shared_ptr@UNode@NetvarTree@@@2@@std@@@std@@@std@@@std@@V12@@std@@YAXQAV?$_List_unchecked_iterator@V?$_List_val@U?$_List_simple_types@U?$pair@$$CBV?$basic_string@DU?$char_traits@D@std@@V?$allocator@D@2@@std@@V?$shared_ptr@UNode@NetvarTree@@@2@@std@@@std@@@std@@@0@0ABV10@@Z 100421dd f   EnginePrediction.obj
 0001:00041200       __unwindfunclet$??0?$_Hash@V?$_Umap_traits@IIV?$_Uhash_compare@IU?$hash@I@std@@U?$equal_to@I@2@@std@@V?$allocator@U?$pair@$$CBII@std@@@2@$0A@@std@@@std@@IAE@ABV?$_Uhash_compare@IU?$hash@I@std@@U?$equal_to@I@2@@1@ABV?$allocator@U?$pair@$$CBII@std@@@1@@Z$0 10042200 f   EnginePrediction.obj
 0001:0004120b       __unwindfunclet$??0?$_Hash@V?$_Umap_traits@IIV?$_Uhash_compare@IU?$hash@I@std@@U?$equal_to@I@2@@std@@V?$allocator@U?$pair@$$CBII@std@@@2@$0A@@std@@@std@@IAE@ABV?$_Uhash_compare@IU?$hash@I@std@@U?$equal_to@I@2@@1@ABV?$allocator@U?$pair@$$CBII@std@@@1@@Z$1 1004220b f   EnginePrediction.obj
 0001:0004121b       __ehhandler$??0?$_Hash@V?$_Umap_traits@IIV?$_Uhash_compare@IU?$hash@I@std@@U?$equal_to@I@2@@std@@V?$allocator@U?$pair@$$CBII@std@@@2@$0A@@std@@@std@@IAE@ABV?$_Uhash_compare@IU?$hash@I@std@@U?$equal_to@I@2@@1@ABV?$allocator@U?$pair@$$CBII@std@@@1@@Z 1004221b f   EnginePrediction.obj
 0001:00041240       __unwindfunclet$??0?$basic_string@DU?$char_traits@D@std@@V?$allocator@D@2@@std@@QAE@QBD@Z$0 10042240 f   EnginePrediction.obj
 0001:00041240       __unwindfunclet$??0?$basic_string@DU?$char_traits@D@std@@V?$allocator@D@2@@std@@QAE@ID@Z$0 10042240 f   TGFCfg.obj
 0001:0004124d       __ehhandler$??0?$basic_string@DU?$char_traits@D@std@@V?$allocator@D@2@@std@@QAE@QBD@Z 1004224d f   EnginePrediction.obj
 0001:0004124d       __ehhandler$??0?$basic_string@DU?$char_traits@D@std@@V?$allocator@D@2@@std@@QAE@ID@Z 1004224d f   TGFCfg.obj
 0001:00041270       __ehhandler$??1?$_List_node_emplace_op2@V?$allocator@U?$_List_node@U?$pair@$$CBV?$basic_string@DU?$char_traits@D@std@@V?$allocator@D@2@@std@@V?$shared_ptr@UNode@NetvarTree@@@2@@std@@PAX@std@@@std@@@std@@QAE@XZ 10042270 f   EnginePrediction.obj
 0001:00041270       __ehhandler$??0?$basic_string@DU?$char_traits@D@std@@V?$allocator@D@2@@std@@QAE@XZ 10042270 f   Hooks.obj
 0001:00041270       __ehhandler$??1_Sentry_base@?$basic_ostream@DU?$char_traits@D@std@@@std@@QAE@XZ 10042270 f   Interfaces.obj
 0001:00041270       __ehhandler$??1?$_List_node_emplace_op2@V?$allocator@U?$_List_node@U?$pair@$$CBII@std@@PAX@std@@@std@@@std@@QAE@XZ 10042270 f   Resolver.obj
 0001:00041290       __unwindfunclet$?GetActiveWeapon@C_BaseEntity@@QAEPAVC_BaseCombatWeapon@@XZ$0 10042290 f   EnginePrediction.obj
 0001:000412a1       __ehhandler$?GetActiveWeapon@C_BaseEntity@@QAEPAVC_BaseCombatWeapon@@XZ 100422a1 f   EnginePrediction.obj
 0001:000412c0       __unwindfunclet$?GetHealth@C_BaseEntity@@QAEHXZ$0 100422c0 f   EnginePrediction.obj
 0001:000412d1       __ehhandler$?GetHealth@C_BaseEntity@@QAEHXZ 100422d1 f   EnginePrediction.obj
 0001:000412f0       __unwindfunclet$?GetLifeState@C_BaseEntity@@QAE_NXZ$0 100422f0 f   EnginePrediction.obj
 0001:00041301       __ehhandler$?GetLifeState@C_BaseEntity@@QAE_NXZ 10042301 f   EnginePrediction.obj
 0001:00041320       __unwindfunclet$?GetOffsetRecursive@NetvarTree@@CAHAAV?$unordered_map@V?$basic_string@DU?$char_traits@D@std@@V?$allocator@D@2@@std@@V?$shared_ptr@UNode@NetvarTree@@@2@U?$hash@V?$basic_string@DU?$char_traits@D@std@@V?$allocator@D@2@@std@@@2@U?$equal_to@V?$basic_string@DU?$char_traits@D@std@@V?$allocator@D@2@@std@@@2@V?$allocator@U?$pair@$$CBV?$basic_string@DU?$char_traits@D@std@@V?$allocator@D@2@@std@@V?$shared_ptr@UNode@NetvarTree@@@2@@std@@@2@@std@@HPBD@Z$0 10042320 f   EnginePrediction.obj
 0001:0004132d       __ehhandler$?GetOffsetRecursive@NetvarTree@@CAHAAV?$unordered_map@V?$basic_string@DU?$char_traits@D@std@@V?$allocator@D@2@@std@@V?$shared_ptr@UNode@NetvarTree@@@2@U?$hash@V?$basic_string@DU?$char_traits@D@std@@V?$allocator@D@2@@std@@@2@U?$equal_to@V?$basic_string@DU?$char_traits@D@std@@V?$allocator@D@2@@std@@@2@V?$allocator@U?$pair@$$CBV?$basic_string@DU?$char_traits@D@std@@V?$allocator@D@2@@std@@V?$shared_ptr@UNode@NetvarTree@@@2@@std@@@2@@std@@HPBD@Z 1004232d f   EnginePrediction.obj
 0001:00041360       __unwindfunclet$?GetTickBase@C_BaseEntity@@QAEHXZ$0 10042360 f   EnginePrediction.obj
 0001:00041371       __ehhandler$?GetTickBase@C_BaseEntity@@QAEHXZ 10042371 f   EnginePrediction.obj
 0001:00041390       __unwindfunclet$?SetCurrentCommand@C_BaseEntity@@QAEXPAVCUserCmd@@@Z$0 10042390 f   EnginePrediction.obj
 0001:000413a1       __ehhandler$?SetCurrentCommand@C_BaseEntity@@QAEXPAVCUserCmd@@@Z 100423a1 f   EnginePrediction.obj
 0001:000413c0       __ehhandler$?clear@?$_Hash@V?$_Umap_traits@V?$basic_string@DU?$char_traits@D@std@@V?$allocator@D@2@@std@@V?$shared_ptr@UNode@NetvarTree@@@2@V?$_Uhash_compare@V?$basic_string@DU?$char_traits@D@std@@V?$allocator@D@2@@std@@U?$hash@V?$basic_string@DU?$char_traits@D@std@@V?$allocator@D@2@@std@@@2@U?$equal_to@V?$basic_string@DU?$char_traits@D@std@@V?$allocator@D@2@@std@@@2@@2@V?$allocator@U?$pair@$$CBV?$basic_string@DU?$char_traits@D@std@@V?$allocator@D@2@@std@@V?$shared_ptr@UNode@NetvarTree@@@2@@std@@@2@$0A@@std@@@std@@QAEXXZ 100423c0 f   EnginePrediction.obj
 0001:000413c0       __ehhandler$?pop_back@?$deque@UPlayerRecords@@V?$allocator@UPlayerRecords@@@std@@@std@@QAEXXZ 100423c0 f   LagComp.obj
 0001:000413c0       __ehhandler$?pop_front@?$deque@UPlayerRecords@@V?$allocator@UPlayerRecords@@@std@@@std@@QAEXXZ 100423c0 f   LagComp.obj
 0001:000413c0       __ehhandler$?pop_back@?$deque@ULegitPlayerRecords@@V?$allocator@ULegitPlayerRecords@@@std@@@std@@QAEXXZ 100423c0 f   Legitbot.obj
 0001:000413c0       __ehhandler$?pop_front@?$deque@ULegitPlayerRecords@@V?$allocator@ULegitPlayerRecords@@@std@@@std@@QAEXXZ 100423c0 f   Legitbot.obj
 0001:000413c0       __ehhandler$?clear@?$_Hash@V?$_Umap_traits@IIV?$_Uhash_compare@IU?$hash@I@std@@U?$equal_to@I@2@@std@@V?$allocator@U?$pair@$$CBII@std@@@2@$0A@@std@@@std@@QAEXXZ 100423c0 f   Resolver.obj
 0001:000413e0       __unwindfunclet$??$_Emplace_reallocate@H@?$vector@HV?$allocator@H@std@@@std@@AAEPAHQAH$$QAH@Z$0 100423e0 f   Aimbot.obj
 0001:000413e0       __unwindfunclet$??$_Emplace_reallocate@PAV?$ConfigValue@H@@@?$vector@PAV?$ConfigValue@H@@V?$allocator@PAV?$ConfigValue@H@@@std@@@std@@AAEPAPAV?$ConfigValue@H@@QAPAV2@$$QAPAV2@@Z$0 100423e0 f   TGFCfg.obj
 0001:000413e0       __unwindfunclet$??$_Emplace_reallocate@PAV?$ConfigValue@M@@@?$vector@PAV?$ConfigValue@M@@V?$allocator@PAV?$ConfigValue@M@@@std@@@std@@AAEPAPAV?$ConfigValue@M@@QAPAV2@$$QAPAV2@@Z$0 100423e0 f   TGFCfg.obj
 0001:000413e0       __unwindfunclet$??$_Emplace_reallocate@PAV?$ConfigValue@_N@@@?$vector@PAV?$ConfigValue@_N@@V?$allocator@PAV?$ConfigValue@_N@@@std@@@std@@AAEPAPAV?$ConfigValue@_N@@QAPAV2@$$QAPAV2@@Z$0 100423e0 f   TGFCfg.obj
 0001:000413ed       __ehhandler$??$_Emplace_reallocate@H@?$vector@HV?$allocator@H@std@@@std@@AAEPAHQAH$$QAH@Z 100423ed f   Aimbot.obj
 0001:000413ed       __ehhandler$??$_Emplace_reallocate@PAV?$ConfigValue@H@@@?$vector@PAV?$ConfigValue@H@@V?$allocator@PAV?$ConfigValue@H@@@std@@@std@@AAEPAPAV?$ConfigValue@H@@QAPAV2@$$QAPAV2@@Z 100423ed f   TGFCfg.obj
 0001:000413ed       __ehhandler$??$_Emplace_reallocate@PAV?$ConfigValue@M@@@?$vector@PAV?$ConfigValue@M@@V?$allocator@PAV?$ConfigValue@M@@@std@@@std@@AAEPAPAV?$ConfigValue@M@@QAPAV2@$$QAPAV2@@Z 100423ed f   TGFCfg.obj
 0001:000413ed       __ehhandler$??$_Emplace_reallocate@PAV?$ConfigValue@_N@@@?$vector@PAV?$ConfigValue@_N@@V?$allocator@PAV?$ConfigValue@_N@@@std@@@std@@AAEPAPAV?$ConfigValue@_N@@QAPAV2@$$QAPAV2@@Z 100423ed f   TGFCfg.obj
 0001:00041410       __unwindfunclet$??$_Uninitialized_move@PAHV?$allocator@H@std@@@std@@YAPAHQAH0PAHAAV?$allocator@H@0@@Z$0 10042410 f   Aimbot.obj
 0001:00041410       __unwindfunclet$??$_Uninitialized_move@PAPAV?$ConfigValue@H@@V?$allocator@PAV?$ConfigValue@H@@@std@@@std@@YAPAPAV?$ConfigValue@H@@QAPAV1@0PAPAV1@AAV?$allocator@PAV?$ConfigValue@H@@@0@@Z$0 10042410 f   TGFCfg.obj
 0001:00041410       __unwindfunclet$??$_Uninitialized_move@PAPAV?$ConfigValue@M@@V?$allocator@PAV?$ConfigValue@M@@@std@@@std@@YAPAPAV?$ConfigValue@M@@QAPAV1@0PAPAV1@AAV?$allocator@PAV?$ConfigValue@M@@@0@@Z$0 10042410 f   TGFCfg.obj
 0001:00041410       __unwindfunclet$??$_Uninitialized_move@PAPAV?$ConfigValue@_N@@V?$allocator@PAV?$ConfigValue@_N@@@std@@@std@@YAPAPAV?$ConfigValue@_N@@QAPAV1@0PAPAV1@AAV?$allocator@PAV?$ConfigValue@_N@@@0@@Z$0 10042410 f   TGFCfg.obj
 0001:0004141d       __ehhandler$??$_Uninitialized_move@PAHV?$allocator@H@std@@@std@@YAPAHQAH0PAHAAV?$allocator@H@0@@Z 1004241d f   Aimbot.obj
 0001:0004141d       __ehhandler$??$_Uninitialized_move@PAPAV?$ConfigValue@H@@V?$allocator@PAV?$ConfigValue@H@@@std@@@std@@YAPAPAV?$ConfigValue@H@@QAPAV1@0PAPAV1@AAV?$allocator@PAV?$ConfigValue@H@@@0@@Z 1004241d f   TGFCfg.obj
 0001:0004141d       __ehhandler$??$_Uninitialized_move@PAPAV?$ConfigValue@M@@V?$allocator@PAV?$ConfigValue@M@@@std@@@std@@YAPAPAV?$ConfigValue@M@@QAPAV1@0PAPAV1@AAV?$allocator@PAV?$ConfigValue@M@@@0@@Z 1004241d f   TGFCfg.obj
 0001:0004141d       __ehhandler$??$_Uninitialized_move@PAPAV?$ConfigValue@_N@@V?$allocator@PAV?$ConfigValue@_N@@@std@@@std@@YAPAPAV?$ConfigValue@_N@@QAPAV1@0PAPAV1@AAV?$allocator@PAV?$ConfigValue@_N@@@0@@Z 1004241d f   TGFCfg.obj
 0001:00041440       __unwindfunclet$?GetAccuracyPenalty@C_BaseCombatWeapon@@QAEMXZ$0 10042440 f   Aimbot.obj
 0001:00041451       __ehhandler$?GetAccuracyPenalty@C_BaseCombatWeapon@@QAEMXZ 10042451 f   Aimbot.obj
 0001:00041470       __unwindfunclet$?GetEyeAngles@C_BaseEntity@@QAE?AVVector@@XZ$0 10042470 f   Aimbot.obj
 0001:00041481       __ehhandler$?GetEyeAngles@C_BaseEntity@@QAE?AVVector@@XZ 10042481 f   Aimbot.obj
 0001:000414a0       __unwindfunclet$?GetFlags@C_BaseEntity@@QAE?AW4EntityFlags@@XZ$0 100424a0 f   Aimbot.obj
 0001:000414b1       __ehhandler$?GetFlags@C_BaseEntity@@QAE?AW4EntityFlags@@XZ 100424b1 f   Aimbot.obj
 0001:000414d0       __unwindfunclet$?GetLastShotTime@C_BaseCombatWeapon@@QAEMXZ$0 100424d0 f   Aimbot.obj
 0001:000414e1       __ehhandler$?GetLastShotTime@C_BaseCombatWeapon@@QAEMXZ 100424e1 f   Aimbot.obj
 0001:00041500       __unwindfunclet$?GetNextPrimaryAttack@C_BaseCombatWeapon@@QAEMXZ$0 10042500 f   Aimbot.obj
 0001:00041511       __ehhandler$?GetNextPrimaryAttack@C_BaseCombatWeapon@@QAEMXZ 10042511 f   Aimbot.obj
 0001:00041530       __unwindfunclet$?GetOrigin@C_BaseEntity@@QAE?AVVector@@XZ$0 10042530 f   Aimbot.obj
 0001:00041541       __ehhandler$?GetOrigin@C_BaseEntity@@QAE?AVVector@@XZ 10042541 f   Aimbot.obj
 0001:00041560       __unwindfunclet$?GetSimulationTime@C_BaseEntity@@QAEMXZ$0 10042560 f   Aimbot.obj
 0001:00041571       __ehhandler$?GetSimulationTime@C_BaseEntity@@QAEMXZ 10042571 f   Aimbot.obj
 0001:00041590       __unwindfunclet$?GetTeam@C_BaseEntity@@QAEHXZ$0 10042590 f   Aimbot.obj
 0001:000415a1       __ehhandler$?GetTeam@C_BaseEntity@@QAEHXZ 100425a1 f   Aimbot.obj
 0001:000415c0       __unwindfunclet$?GetVelocity@C_BaseEntity@@QAE?AVVector@@XZ$0 100425c0 f   Aimbot.obj
 0001:000415d1       __ehhandler$?GetVelocity@C_BaseEntity@@QAE?AVVector@@XZ 100425d1 f   Aimbot.obj
 0001:000415f0       __unwindfunclet$?Hitscan@Aimbot@@AAE?AVVector@@PAVC_BaseEntity@@@Z$0 100425f0 f   Aimbot.obj
 0001:00041600       __ehhandler$?Hitscan@Aimbot@@AAE?AVVector@@PAVC_BaseEntity@@@Z 10042600 f   Aimbot.obj
 0001:00041630       __unwindfunclet$?ArmorValue@C_BaseEntity@@QAEHXZ$0 10042630 f   Autowall.obj
 0001:00041641       __ehhandler$?ArmorValue@C_BaseEntity@@QAEHXZ 10042641 f   Autowall.obj
 0001:00041660       __unwindfunclet$?HasHelmet@C_BaseEntity@@QAE_NXZ$0 10042660 f   Autowall.obj
 0001:00041671       __ehhandler$?HasHelmet@C_BaseEntity@@QAE_NXZ 10042671 f   Autowall.obj
 0001:00041690       __unwindfunclet$??$_Uninitialized_copy_unchecked@PAPAUPlayerRecords@@PAPAU1@@std@@YAPAPAUPlayerRecords@@PAPAU1@QAPAU1@0@Z$0 10042690 f   LagComp.obj
 0001:00041690       __unwindfunclet$??$_Uninitialized_copy_unchecked@PAPAULegitPlayerRecords@@PAPAU1@@std@@YAPAPAULegitPlayerRecords@@PAPAU1@QAPAU1@0@Z$0 10042690 f   Legitbot.obj
 0001:0004169d       __ehhandler$??$_Uninitialized_copy_unchecked@PAPAUPlayerRecords@@PAPAU1@@std@@YAPAPAUPlayerRecords@@PAPAU1@QAPAU1@0@Z 1004269d f   LagComp.obj
 0001:0004169d       __ehhandler$??$_Uninitialized_copy_unchecked@PAPAULegitPlayerRecords@@PAPAU1@@std@@YAPAPAULegitPlayerRecords@@PAPAU1@QAPAU1@0@Z 1004269d f   Legitbot.obj
 0001:000416c0       __ehhandler$??0locale@std@@QAE@XZ 100426c0 f   Hooks.obj
 0001:000416c0       __ehhandler$??1?$_Fmt_iterator_buffer@V?$back_insert_iterator@V?$basic_string@DU?$char_traits@D@std@@V?$allocator@D@2@@std@@@std@@DU_Fmt_buffer_traits@2@@std@@QAE@XZ 100426c0 f   Hooks.obj
 0001:000416c0       __ehhandler$??1Hooks@@QAE@XZ 100426c0 f   Hooks.obj
 0001:000416c0       __ehhandler$??E_Measure_string_prefix_iterator_legacy@__p2286@std@@QAEAAV012@XZ 100426c0 f   Hooks.obj
 0001:000416c0       __ehhandler$??1?$basic_filebuf@DU?$char_traits@D@std@@@std@@UAE@XZ 100426c0 f   Interfaces.obj
 0001:000416c0       __ehhandler$??1LagComp@@QAE@XZ 100426c0 f   LagComp.obj
 0001:000416c0       __ehhandler$??1Legitbot@@QAE@XZ 100426c0 f   Legitbot.obj
 0001:000416e0       __ehhandler$?erase@?$deque@UPlayerRecords@@V?$allocator@UPlayerRecords@@@std@@@std@@QAE?AV?$_Deque_iterator@V?$_Deque_val@U?$_Deque_simple_types@UPlayerRecords@@@std@@@std@@@2@V?$_Deque_const_iterator@V?$_Deque_val@U?$_Deque_simple_types@UPlayerRecords@@@std@@@std@@@2@0@Z 100426e0 f   LagComp.obj
 0001:00041700       __ehhandler$??0?$_Format_arg_store@V?$basic_format_context@V?$back_insert_iterator@V?$_Fmt_buffer@D@std@@@std@@D@std@@$$CBV?$basic_string_view@DU?$char_traits@D@std@@@2@PBD@std@@QAE@ABV?$basic_string_view@DU?$char_traits@D@std@@@1@AAPBD@Z 10042700 f   Hooks.obj
 0001:00041700       __ehhandler$?_Get_property_for_codepoint@?$_Unicode_property_data@W4_Grapheme_Extend_property_values@std@@$0BGL@$00@std@@QBE?AW4_Grapheme_Extend_property_values@2@I@Z 10042700 f   Hooks.obj
 0001:00041700       __ehhandler$?_Get_property_for_codepoint@?$_Unicode_property_data@W4__printable_property_values@std@@$0CMH@$00@std@@QBE?AW4__printable_property_values@2@I@Z 10042700 f   Hooks.obj
 0001:00041700       __ehhandler$?erase@?$deque@UPlayerRecords@@V?$allocator@UPlayerRecords@@@std@@@std@@QAE?AV?$_Deque_iterator@V?$_Deque_val@U?$_Deque_simple_types@UPlayerRecords@@@std@@@std@@@2@V?$_Deque_const_iterator@V?$_Deque_val@U?$_Deque_simple_types@UPlayerRecords@@@std@@@std@@@2@@Z 10042700 f   LagComp.obj
 0001:00041720       __unwindfunclet$??$?0ABUpiecewise_construct_t@std@@V?$tuple@$$QAI@1@V?$tuple@$$V@1@@?$_List_node_emplace_op2@V?$allocator@U?$_List_node@U?$pair@$$CBII@std@@PAX@std@@@std@@@std@@QAE@AAV?$allocator@U?$_List_node@U?$pair@$$CBII@std@@PAX@std@@@1@ABUpiecewise_construct_t@1@$$QAV?$tuple@$$QAI@1@$$QAV?$tuple@$$V@1@@Z$0 10042720 f   Resolver.obj
 0001:0004172d       __ehhandler$??$?0ABUpiecewise_construct_t@std@@V?$tuple@$$QAI@1@V?$tuple@$$V@1@@?$_List_node_emplace_op2@V?$allocator@U?$_List_node@U?$pair@$$CBII@std@@PAX@std@@@std@@@std@@QAE@AAV?$allocator@U?$_List_node@U?$pair@$$CBII@std@@PAX@std@@@1@ABUpiecewise_construct_t@1@$$QAV?$tuple@$$QAI@1@$$QAV?$tuple@$$V@1@@Z 1004272d f   Resolver.obj
 0001:00041750       __unwindfunclet$??$_Try_emplace@I$$V@?$_Hash@V?$_Umap_traits@IIV?$_Uhash_compare@IU?$hash@I@std@@U?$equal_to@I@2@@std@@V?$allocator@U?$pair@$$CBII@std@@@2@$0A@@std@@@std@@IAE?AU?$pair@PAU?$_List_node@U?$pair@$$CBII@std@@PAX@std@@_N@1@$$QAI@Z$0 10042750 f   Resolver.obj
